
Orientation.elf:     file format elf32-littlearm

Sections:
Idx Name          Size      VMA       LMA       File off  Algn
  0 .isr_vector   000001d8  08000000  08000000  00010000  2**0
                  CONTENTS, ALLOC, LOAD, READONLY, DATA
  1 .text         0000cfe8  080001d8  080001d8  000101d8  2**2
                  CONTENTS, ALLOC, LOAD, READONLY, CODE
  2 .rodata       00000088  0800d1c0  0800d1c0  0001d1c0  2**2
                  CONTENTS, ALLOC, LOAD, READONLY, DATA
  3 .ARM.extab    00000000  0800d248  0800d248  000201ac  2**0
                  CONTENTS
  4 .ARM          00000008  0800d248  0800d248  0001d248  2**2
                  CONTENTS, ALLOC, LOAD, READONLY, DATA
  5 .preinit_array 00000000  0800d250  0800d250  000201ac  2**0
                  CONTENTS, ALLOC, LOAD, DATA
  6 .init_array   00000004  0800d250  0800d250  0001d250  2**2
                  CONTENTS, ALLOC, LOAD, DATA
  7 .fini_array   00000004  0800d254  0800d254  0001d254  2**2
                  CONTENTS, ALLOC, LOAD, DATA
  8 .data         000001ac  20000000  0800d258  00020000  2**2
                  CONTENTS, ALLOC, LOAD, DATA
  9 .bss          00001520  200001ac  0800d404  000201ac  2**2
                  ALLOC
 10 ._user_heap_stack 00000604  200016cc  0800d404  000216cc  2**0
                  ALLOC
 11 .ARM.attributes 00000030  00000000  00000000  000201ac  2**0
                  CONTENTS, READONLY
 12 .debug_info   00020c50  00000000  00000000  000201dc  2**0
                  CONTENTS, READONLY, DEBUGGING, OCTETS
 13 .debug_abbrev 00004c60  00000000  00000000  00040e2c  2**0
                  CONTENTS, READONLY, DEBUGGING, OCTETS
 14 .debug_aranges 000016a0  00000000  00000000  00045a90  2**3
                  CONTENTS, READONLY, DEBUGGING, OCTETS
 15 .debug_ranges 000014b8  00000000  00000000  00047130  2**3
                  CONTENTS, READONLY, DEBUGGING, OCTETS
 16 .debug_macro  00021e17  00000000  00000000  000485e8  2**0
                  CONTENTS, READONLY, DEBUGGING, OCTETS
 17 .debug_line   0001dc42  00000000  00000000  0006a3ff  2**0
                  CONTENTS, READONLY, DEBUGGING, OCTETS
 18 .debug_str    000c0574  00000000  00000000  00088041  2**0
                  CONTENTS, READONLY, DEBUGGING, OCTETS
 19 .comment      00000050  00000000  00000000  001485b5  2**0
                  CONTENTS, READONLY
 20 .debug_frame  00005be8  00000000  00000000  00148608  2**2
                  CONTENTS, READONLY, DEBUGGING, OCTETS

Disassembly of section .text:

080001d8 <__do_global_dtors_aux>:
 80001d8:	b510      	push	{r4, lr}
 80001da:	4c05      	ldr	r4, [pc, #20]	; (80001f0 <__do_global_dtors_aux+0x18>)
 80001dc:	7823      	ldrb	r3, [r4, #0]
 80001de:	b933      	cbnz	r3, 80001ee <__do_global_dtors_aux+0x16>
 80001e0:	4b04      	ldr	r3, [pc, #16]	; (80001f4 <__do_global_dtors_aux+0x1c>)
 80001e2:	b113      	cbz	r3, 80001ea <__do_global_dtors_aux+0x12>
 80001e4:	4804      	ldr	r0, [pc, #16]	; (80001f8 <__do_global_dtors_aux+0x20>)
 80001e6:	f3af 8000 	nop.w
 80001ea:	2301      	movs	r3, #1
 80001ec:	7023      	strb	r3, [r4, #0]
 80001ee:	bd10      	pop	{r4, pc}
 80001f0:	200001ac 	.word	0x200001ac
 80001f4:	00000000 	.word	0x00000000
 80001f8:	0800d1a8 	.word	0x0800d1a8

080001fc <frame_dummy>:
 80001fc:	b508      	push	{r3, lr}
 80001fe:	4b03      	ldr	r3, [pc, #12]	; (800020c <frame_dummy+0x10>)
 8000200:	b11b      	cbz	r3, 800020a <frame_dummy+0xe>
 8000202:	4903      	ldr	r1, [pc, #12]	; (8000210 <frame_dummy+0x14>)
 8000204:	4803      	ldr	r0, [pc, #12]	; (8000214 <frame_dummy+0x18>)
 8000206:	f3af 8000 	nop.w
 800020a:	bd08      	pop	{r3, pc}
 800020c:	00000000 	.word	0x00000000
 8000210:	200001b0 	.word	0x200001b0
 8000214:	0800d1a8 	.word	0x0800d1a8

08000218 <__aeabi_uldivmod>:
 8000218:	b953      	cbnz	r3, 8000230 <__aeabi_uldivmod+0x18>
 800021a:	b94a      	cbnz	r2, 8000230 <__aeabi_uldivmod+0x18>
 800021c:	2900      	cmp	r1, #0
 800021e:	bf08      	it	eq
 8000220:	2800      	cmpeq	r0, #0
 8000222:	bf1c      	itt	ne
 8000224:	f04f 31ff 	movne.w	r1, #4294967295
 8000228:	f04f 30ff 	movne.w	r0, #4294967295
 800022c:	f000 b974 	b.w	8000518 <__aeabi_idiv0>
 8000230:	f1ad 0c08 	sub.w	ip, sp, #8
 8000234:	e96d ce04 	strd	ip, lr, [sp, #-16]!
 8000238:	f000 f806 	bl	8000248 <__udivmoddi4>
 800023c:	f8dd e004 	ldr.w	lr, [sp, #4]
 8000240:	e9dd 2302 	ldrd	r2, r3, [sp, #8]
 8000244:	b004      	add	sp, #16
 8000246:	4770      	bx	lr

08000248 <__udivmoddi4>:
 8000248:	e92d 47f0 	stmdb	sp!, {r4, r5, r6, r7, r8, r9, sl, lr}
 800024c:	9d08      	ldr	r5, [sp, #32]
 800024e:	4604      	mov	r4, r0
 8000250:	468e      	mov	lr, r1
 8000252:	2b00      	cmp	r3, #0
 8000254:	d14d      	bne.n	80002f2 <__udivmoddi4+0xaa>
 8000256:	428a      	cmp	r2, r1
 8000258:	4694      	mov	ip, r2
 800025a:	d969      	bls.n	8000330 <__udivmoddi4+0xe8>
 800025c:	fab2 f282 	clz	r2, r2
 8000260:	b152      	cbz	r2, 8000278 <__udivmoddi4+0x30>
 8000262:	fa01 f302 	lsl.w	r3, r1, r2
 8000266:	f1c2 0120 	rsb	r1, r2, #32
 800026a:	fa20 f101 	lsr.w	r1, r0, r1
 800026e:	fa0c fc02 	lsl.w	ip, ip, r2
 8000272:	ea41 0e03 	orr.w	lr, r1, r3
 8000276:	4094      	lsls	r4, r2
 8000278:	ea4f 481c 	mov.w	r8, ip, lsr #16
 800027c:	0c21      	lsrs	r1, r4, #16
 800027e:	fbbe f6f8 	udiv	r6, lr, r8
 8000282:	fa1f f78c 	uxth.w	r7, ip
 8000286:	fb08 e316 	mls	r3, r8, r6, lr
 800028a:	ea41 4303 	orr.w	r3, r1, r3, lsl #16
 800028e:	fb06 f107 	mul.w	r1, r6, r7
 8000292:	4299      	cmp	r1, r3
 8000294:	d90a      	bls.n	80002ac <__udivmoddi4+0x64>
 8000296:	eb1c 0303 	adds.w	r3, ip, r3
 800029a:	f106 30ff 	add.w	r0, r6, #4294967295
 800029e:	f080 811f 	bcs.w	80004e0 <__udivmoddi4+0x298>
 80002a2:	4299      	cmp	r1, r3
 80002a4:	f240 811c 	bls.w	80004e0 <__udivmoddi4+0x298>
 80002a8:	3e02      	subs	r6, #2
 80002aa:	4463      	add	r3, ip
 80002ac:	1a5b      	subs	r3, r3, r1
 80002ae:	b2a4      	uxth	r4, r4
 80002b0:	fbb3 f0f8 	udiv	r0, r3, r8
 80002b4:	fb08 3310 	mls	r3, r8, r0, r3
 80002b8:	ea44 4403 	orr.w	r4, r4, r3, lsl #16
 80002bc:	fb00 f707 	mul.w	r7, r0, r7
 80002c0:	42a7      	cmp	r7, r4
 80002c2:	d90a      	bls.n	80002da <__udivmoddi4+0x92>
 80002c4:	eb1c 0404 	adds.w	r4, ip, r4
 80002c8:	f100 33ff 	add.w	r3, r0, #4294967295
 80002cc:	f080 810a 	bcs.w	80004e4 <__udivmoddi4+0x29c>
 80002d0:	42a7      	cmp	r7, r4
 80002d2:	f240 8107 	bls.w	80004e4 <__udivmoddi4+0x29c>
 80002d6:	4464      	add	r4, ip
 80002d8:	3802      	subs	r0, #2
 80002da:	ea40 4006 	orr.w	r0, r0, r6, lsl #16
 80002de:	1be4      	subs	r4, r4, r7
 80002e0:	2600      	movs	r6, #0
 80002e2:	b11d      	cbz	r5, 80002ec <__udivmoddi4+0xa4>
 80002e4:	40d4      	lsrs	r4, r2
 80002e6:	2300      	movs	r3, #0
 80002e8:	e9c5 4300 	strd	r4, r3, [r5]
 80002ec:	4631      	mov	r1, r6
 80002ee:	e8bd 87f0 	ldmia.w	sp!, {r4, r5, r6, r7, r8, r9, sl, pc}
 80002f2:	428b      	cmp	r3, r1
 80002f4:	d909      	bls.n	800030a <__udivmoddi4+0xc2>
 80002f6:	2d00      	cmp	r5, #0
 80002f8:	f000 80ef 	beq.w	80004da <__udivmoddi4+0x292>
 80002fc:	2600      	movs	r6, #0
 80002fe:	e9c5 0100 	strd	r0, r1, [r5]
 8000302:	4630      	mov	r0, r6
 8000304:	4631      	mov	r1, r6
 8000306:	e8bd 87f0 	ldmia.w	sp!, {r4, r5, r6, r7, r8, r9, sl, pc}
 800030a:	fab3 f683 	clz	r6, r3
 800030e:	2e00      	cmp	r6, #0
 8000310:	d14a      	bne.n	80003a8 <__udivmoddi4+0x160>
 8000312:	428b      	cmp	r3, r1
 8000314:	d302      	bcc.n	800031c <__udivmoddi4+0xd4>
 8000316:	4282      	cmp	r2, r0
 8000318:	f200 80f9 	bhi.w	800050e <__udivmoddi4+0x2c6>
 800031c:	1a84      	subs	r4, r0, r2
 800031e:	eb61 0303 	sbc.w	r3, r1, r3
 8000322:	2001      	movs	r0, #1
 8000324:	469e      	mov	lr, r3
 8000326:	2d00      	cmp	r5, #0
 8000328:	d0e0      	beq.n	80002ec <__udivmoddi4+0xa4>
 800032a:	e9c5 4e00 	strd	r4, lr, [r5]
 800032e:	e7dd      	b.n	80002ec <__udivmoddi4+0xa4>
 8000330:	b902      	cbnz	r2, 8000334 <__udivmoddi4+0xec>
 8000332:	deff      	udf	#255	; 0xff
 8000334:	fab2 f282 	clz	r2, r2
 8000338:	2a00      	cmp	r2, #0
 800033a:	f040 8092 	bne.w	8000462 <__udivmoddi4+0x21a>
 800033e:	eba1 010c 	sub.w	r1, r1, ip
 8000342:	ea4f 471c 	mov.w	r7, ip, lsr #16
 8000346:	fa1f fe8c 	uxth.w	lr, ip
 800034a:	2601      	movs	r6, #1
 800034c:	0c20      	lsrs	r0, r4, #16
 800034e:	fbb1 f3f7 	udiv	r3, r1, r7
 8000352:	fb07 1113 	mls	r1, r7, r3, r1
 8000356:	ea40 4101 	orr.w	r1, r0, r1, lsl #16
 800035a:	fb0e f003 	mul.w	r0, lr, r3
 800035e:	4288      	cmp	r0, r1
 8000360:	d908      	bls.n	8000374 <__udivmoddi4+0x12c>
 8000362:	eb1c 0101 	adds.w	r1, ip, r1
 8000366:	f103 38ff 	add.w	r8, r3, #4294967295
 800036a:	d202      	bcs.n	8000372 <__udivmoddi4+0x12a>
 800036c:	4288      	cmp	r0, r1
 800036e:	f200 80cb 	bhi.w	8000508 <__udivmoddi4+0x2c0>
 8000372:	4643      	mov	r3, r8
 8000374:	1a09      	subs	r1, r1, r0
 8000376:	b2a4      	uxth	r4, r4
 8000378:	fbb1 f0f7 	udiv	r0, r1, r7
 800037c:	fb07 1110 	mls	r1, r7, r0, r1
 8000380:	ea44 4401 	orr.w	r4, r4, r1, lsl #16
 8000384:	fb0e fe00 	mul.w	lr, lr, r0
 8000388:	45a6      	cmp	lr, r4
 800038a:	d908      	bls.n	800039e <__udivmoddi4+0x156>
 800038c:	eb1c 0404 	adds.w	r4, ip, r4
 8000390:	f100 31ff 	add.w	r1, r0, #4294967295
 8000394:	d202      	bcs.n	800039c <__udivmoddi4+0x154>
 8000396:	45a6      	cmp	lr, r4
 8000398:	f200 80bb 	bhi.w	8000512 <__udivmoddi4+0x2ca>
 800039c:	4608      	mov	r0, r1
 800039e:	eba4 040e 	sub.w	r4, r4, lr
 80003a2:	ea40 4003 	orr.w	r0, r0, r3, lsl #16
 80003a6:	e79c      	b.n	80002e2 <__udivmoddi4+0x9a>
 80003a8:	f1c6 0720 	rsb	r7, r6, #32
 80003ac:	40b3      	lsls	r3, r6
 80003ae:	fa22 fc07 	lsr.w	ip, r2, r7
 80003b2:	ea4c 0c03 	orr.w	ip, ip, r3
 80003b6:	fa20 f407 	lsr.w	r4, r0, r7
 80003ba:	fa01 f306 	lsl.w	r3, r1, r6
 80003be:	431c      	orrs	r4, r3
 80003c0:	40f9      	lsrs	r1, r7
 80003c2:	ea4f 491c 	mov.w	r9, ip, lsr #16
 80003c6:	fa00 f306 	lsl.w	r3, r0, r6
 80003ca:	fbb1 f8f9 	udiv	r8, r1, r9
 80003ce:	0c20      	lsrs	r0, r4, #16
 80003d0:	fa1f fe8c 	uxth.w	lr, ip
 80003d4:	fb09 1118 	mls	r1, r9, r8, r1
 80003d8:	ea40 4101 	orr.w	r1, r0, r1, lsl #16
 80003dc:	fb08 f00e 	mul.w	r0, r8, lr
 80003e0:	4288      	cmp	r0, r1
 80003e2:	fa02 f206 	lsl.w	r2, r2, r6
 80003e6:	d90b      	bls.n	8000400 <__udivmoddi4+0x1b8>
 80003e8:	eb1c 0101 	adds.w	r1, ip, r1
 80003ec:	f108 3aff 	add.w	sl, r8, #4294967295
 80003f0:	f080 8088 	bcs.w	8000504 <__udivmoddi4+0x2bc>
 80003f4:	4288      	cmp	r0, r1
 80003f6:	f240 8085 	bls.w	8000504 <__udivmoddi4+0x2bc>
 80003fa:	f1a8 0802 	sub.w	r8, r8, #2
 80003fe:	4461      	add	r1, ip
 8000400:	1a09      	subs	r1, r1, r0
 8000402:	b2a4      	uxth	r4, r4
 8000404:	fbb1 f0f9 	udiv	r0, r1, r9
 8000408:	fb09 1110 	mls	r1, r9, r0, r1
 800040c:	ea44 4101 	orr.w	r1, r4, r1, lsl #16
 8000410:	fb00 fe0e 	mul.w	lr, r0, lr
 8000414:	458e      	cmp	lr, r1
 8000416:	d908      	bls.n	800042a <__udivmoddi4+0x1e2>
 8000418:	eb1c 0101 	adds.w	r1, ip, r1
 800041c:	f100 34ff 	add.w	r4, r0, #4294967295
 8000420:	d26c      	bcs.n	80004fc <__udivmoddi4+0x2b4>
 8000422:	458e      	cmp	lr, r1
 8000424:	d96a      	bls.n	80004fc <__udivmoddi4+0x2b4>
 8000426:	3802      	subs	r0, #2
 8000428:	4461      	add	r1, ip
 800042a:	ea40 4008 	orr.w	r0, r0, r8, lsl #16
 800042e:	fba0 9402 	umull	r9, r4, r0, r2
 8000432:	eba1 010e 	sub.w	r1, r1, lr
 8000436:	42a1      	cmp	r1, r4
 8000438:	46c8      	mov	r8, r9
 800043a:	46a6      	mov	lr, r4
 800043c:	d356      	bcc.n	80004ec <__udivmoddi4+0x2a4>
 800043e:	d053      	beq.n	80004e8 <__udivmoddi4+0x2a0>
 8000440:	b15d      	cbz	r5, 800045a <__udivmoddi4+0x212>
 8000442:	ebb3 0208 	subs.w	r2, r3, r8
 8000446:	eb61 010e 	sbc.w	r1, r1, lr
 800044a:	fa01 f707 	lsl.w	r7, r1, r7
 800044e:	fa22 f306 	lsr.w	r3, r2, r6
 8000452:	40f1      	lsrs	r1, r6
 8000454:	431f      	orrs	r7, r3
 8000456:	e9c5 7100 	strd	r7, r1, [r5]
 800045a:	2600      	movs	r6, #0
 800045c:	4631      	mov	r1, r6
 800045e:	e8bd 87f0 	ldmia.w	sp!, {r4, r5, r6, r7, r8, r9, sl, pc}
 8000462:	f1c2 0320 	rsb	r3, r2, #32
 8000466:	40d8      	lsrs	r0, r3
 8000468:	fa0c fc02 	lsl.w	ip, ip, r2
 800046c:	fa21 f303 	lsr.w	r3, r1, r3
 8000470:	4091      	lsls	r1, r2
 8000472:	4301      	orrs	r1, r0
 8000474:	ea4f 471c 	mov.w	r7, ip, lsr #16
 8000478:	fa1f fe8c 	uxth.w	lr, ip
 800047c:	fbb3 f0f7 	udiv	r0, r3, r7
 8000480:	fb07 3610 	mls	r6, r7, r0, r3
 8000484:	0c0b      	lsrs	r3, r1, #16
 8000486:	ea43 4306 	orr.w	r3, r3, r6, lsl #16
 800048a:	fb00 f60e 	mul.w	r6, r0, lr
 800048e:	429e      	cmp	r6, r3
 8000490:	fa04 f402 	lsl.w	r4, r4, r2
 8000494:	d908      	bls.n	80004a8 <__udivmoddi4+0x260>
 8000496:	eb1c 0303 	adds.w	r3, ip, r3
 800049a:	f100 38ff 	add.w	r8, r0, #4294967295
 800049e:	d22f      	bcs.n	8000500 <__udivmoddi4+0x2b8>
 80004a0:	429e      	cmp	r6, r3
 80004a2:	d92d      	bls.n	8000500 <__udivmoddi4+0x2b8>
 80004a4:	3802      	subs	r0, #2
 80004a6:	4463      	add	r3, ip
 80004a8:	1b9b      	subs	r3, r3, r6
 80004aa:	b289      	uxth	r1, r1
 80004ac:	fbb3 f6f7 	udiv	r6, r3, r7
 80004b0:	fb07 3316 	mls	r3, r7, r6, r3
 80004b4:	ea41 4103 	orr.w	r1, r1, r3, lsl #16
 80004b8:	fb06 f30e 	mul.w	r3, r6, lr
 80004bc:	428b      	cmp	r3, r1
 80004be:	d908      	bls.n	80004d2 <__udivmoddi4+0x28a>
 80004c0:	eb1c 0101 	adds.w	r1, ip, r1
 80004c4:	f106 38ff 	add.w	r8, r6, #4294967295
 80004c8:	d216      	bcs.n	80004f8 <__udivmoddi4+0x2b0>
 80004ca:	428b      	cmp	r3, r1
 80004cc:	d914      	bls.n	80004f8 <__udivmoddi4+0x2b0>
 80004ce:	3e02      	subs	r6, #2
 80004d0:	4461      	add	r1, ip
 80004d2:	1ac9      	subs	r1, r1, r3
 80004d4:	ea46 4600 	orr.w	r6, r6, r0, lsl #16
 80004d8:	e738      	b.n	800034c <__udivmoddi4+0x104>
 80004da:	462e      	mov	r6, r5
 80004dc:	4628      	mov	r0, r5
 80004de:	e705      	b.n	80002ec <__udivmoddi4+0xa4>
 80004e0:	4606      	mov	r6, r0
 80004e2:	e6e3      	b.n	80002ac <__udivmoddi4+0x64>
 80004e4:	4618      	mov	r0, r3
 80004e6:	e6f8      	b.n	80002da <__udivmoddi4+0x92>
 80004e8:	454b      	cmp	r3, r9
 80004ea:	d2a9      	bcs.n	8000440 <__udivmoddi4+0x1f8>
 80004ec:	ebb9 0802 	subs.w	r8, r9, r2
 80004f0:	eb64 0e0c 	sbc.w	lr, r4, ip
 80004f4:	3801      	subs	r0, #1
 80004f6:	e7a3      	b.n	8000440 <__udivmoddi4+0x1f8>
 80004f8:	4646      	mov	r6, r8
 80004fa:	e7ea      	b.n	80004d2 <__udivmoddi4+0x28a>
 80004fc:	4620      	mov	r0, r4
 80004fe:	e794      	b.n	800042a <__udivmoddi4+0x1e2>
 8000500:	4640      	mov	r0, r8
 8000502:	e7d1      	b.n	80004a8 <__udivmoddi4+0x260>
 8000504:	46d0      	mov	r8, sl
 8000506:	e77b      	b.n	8000400 <__udivmoddi4+0x1b8>
 8000508:	3b02      	subs	r3, #2
 800050a:	4461      	add	r1, ip
 800050c:	e732      	b.n	8000374 <__udivmoddi4+0x12c>
 800050e:	4630      	mov	r0, r6
 8000510:	e709      	b.n	8000326 <__udivmoddi4+0xde>
 8000512:	4464      	add	r4, ip
 8000514:	3802      	subs	r0, #2
 8000516:	e742      	b.n	800039e <__udivmoddi4+0x156>

08000518 <__aeabi_idiv0>:
 8000518:	4770      	bx	lr
 800051a:	bf00      	nop

0800051c <app_calibration_init>:
                          mpu6500_t *imu,
                          lis3mdl_t *mag,
                          dps310_t *prs,
                          dps310_calibration_t *prs_sensor_calibration,
                          lis3mdl_calibration_t *mag_runtime_calibration)
{
 800051c:	b580      	push	{r7, lr}
 800051e:	b084      	sub	sp, #16
 8000520:	af00      	add	r7, sp, #0
 8000522:	60f8      	str	r0, [r7, #12]
 8000524:	60b9      	str	r1, [r7, #8]
 8000526:	607a      	str	r2, [r7, #4]
 8000528:	603b      	str	r3, [r7, #0]
  if (app == NULL)
 800052a:	68fb      	ldr	r3, [r7, #12]
 800052c:	2b00      	cmp	r3, #0
 800052e:	d058      	beq.n	80005e2 <app_calibration_init+0xc6>
  {
    return;
  }

  memset(app, 0, sizeof(*app));
 8000530:	f44f 72a0 	mov.w	r2, #320	; 0x140
 8000534:	2100      	movs	r1, #0
 8000536:	68f8      	ldr	r0, [r7, #12]
 8000538:	f00c fe2e 	bl	800d198 <memset>
  app->imu = imu;
 800053c:	68fb      	ldr	r3, [r7, #12]
 800053e:	68ba      	ldr	r2, [r7, #8]
 8000540:	601a      	str	r2, [r3, #0]
  app->mag = mag;
 8000542:	68fb      	ldr	r3, [r7, #12]
 8000544:	687a      	ldr	r2, [r7, #4]
 8000546:	605a      	str	r2, [r3, #4]
  app->prs = prs;
 8000548:	68fb      	ldr	r3, [r7, #12]
 800054a:	683a      	ldr	r2, [r7, #0]
 800054c:	609a      	str	r2, [r3, #8]
  app->prs_sensor_calibration = prs_sensor_calibration;
 800054e:	68fb      	ldr	r3, [r7, #12]
 8000550:	69ba      	ldr	r2, [r7, #24]
 8000552:	60da      	str	r2, [r3, #12]
  app->mag_runtime_calibration = mag_runtime_calibration;
 8000554:	68fb      	ldr	r3, [r7, #12]
 8000556:	69fa      	ldr	r2, [r7, #28]
 8000558:	611a      	str	r2, [r3, #16]
  app->flash_status = cal_storage_load(&app->block);
 800055a:	68fb      	ldr	r3, [r7, #12]
 800055c:	3314      	adds	r3, #20
 800055e:	4618      	mov	r0, r3
 8000560:	f000 fa36 	bl	80009d0 <cal_storage_load>
 8000564:	4603      	mov	r3, r0
 8000566:	461a      	mov	r2, r3
 8000568:	68fb      	ldr	r3, [r7, #12]
 800056a:	f883 2130 	strb.w	r2, [r3, #304]	; 0x130
  if (app->flash_status != CAL_STORAGE_OK)
 800056e:	68fb      	ldr	r3, [r7, #12]
 8000570:	f893 3130 	ldrb.w	r3, [r3, #304]	; 0x130
 8000574:	2b00      	cmp	r3, #0
 8000576:	d01f      	beq.n	80005b8 <app_calibration_init+0x9c>
  {
    cal_storage_set_defaults(&app->block);
 8000578:	68fb      	ldr	r3, [r7, #12]
 800057a:	3314      	adds	r3, #20
 800057c:	4618      	mov	r0, r3
 800057e:	f000 fae7 	bl	8000b50 <cal_storage_set_defaults>
    app->flash_status = cal_storage_save(&app->block);
 8000582:	68fb      	ldr	r3, [r7, #12]
 8000584:	3314      	adds	r3, #20
 8000586:	4618      	mov	r0, r3
 8000588:	f000 fa44 	bl	8000a14 <cal_storage_save>
 800058c:	4603      	mov	r3, r0
 800058e:	461a      	mov	r2, r3
 8000590:	68fb      	ldr	r3, [r7, #12]
 8000592:	f883 2130 	strb.w	r2, [r3, #304]	; 0x130
    app->loaded_from_flash = 0U;
 8000596:	68fb      	ldr	r3, [r7, #12]
 8000598:	2200      	movs	r2, #0
 800059a:	f883 2134 	strb.w	r2, [r3, #308]	; 0x134
    app->using_defaults = (app->flash_status == CAL_STORAGE_OK) ? 0U : 1U;
 800059e:	68fb      	ldr	r3, [r7, #12]
 80005a0:	f893 3130 	ldrb.w	r3, [r3, #304]	; 0x130
 80005a4:	2b00      	cmp	r3, #0
 80005a6:	bf14      	ite	ne
 80005a8:	2301      	movne	r3, #1
 80005aa:	2300      	moveq	r3, #0
 80005ac:	b2db      	uxtb	r3, r3
 80005ae:	461a      	mov	r2, r3
 80005b0:	68fb      	ldr	r3, [r7, #12]
 80005b2:	f883 2135 	strb.w	r2, [r3, #309]	; 0x135
 80005b6:	e007      	b.n	80005c8 <app_calibration_init+0xac>
  }
  else
  {
    app->loaded_from_flash = 1U;
 80005b8:	68fb      	ldr	r3, [r7, #12]
 80005ba:	2201      	movs	r2, #1
 80005bc:	f883 2134 	strb.w	r2, [r3, #308]	; 0x134
    app->using_defaults = 0U;
 80005c0:	68fb      	ldr	r3, [r7, #12]
 80005c2:	2200      	movs	r2, #0
 80005c4:	f883 2135 	strb.w	r2, [r3, #309]	; 0x135
  }

  app_calibration_apply_stored(app);
 80005c8:	68f8      	ldr	r0, [r7, #12]
 80005ca:	f000 f987 	bl	80008dc <app_calibration_apply_stored>
  sensor_cal_accel_six_position_clear(&app->accel_data);
 80005ce:	68fb      	ldr	r3, [r7, #12]
 80005d0:	33c4      	adds	r3, #196	; 0xc4
 80005d2:	4618      	mov	r0, r3
 80005d4:	f002 f868 	bl	80026a8 <sensor_cal_accel_six_position_clear>
  app->command = APP_CAL_CMD_NONE;
 80005d8:	68fb      	ldr	r3, [r7, #12]
 80005da:	2200      	movs	r2, #0
 80005dc:	f883 2132 	strb.w	r2, [r3, #306]	; 0x132
 80005e0:	e000      	b.n	80005e4 <app_calibration_init+0xc8>
    return;
 80005e2:	bf00      	nop
}
 80005e4:	3710      	adds	r7, #16
 80005e6:	46bd      	mov	sp, r7
 80005e8:	bd80      	pop	{r7, pc}
	...

080005ec <app_calibration_process>:

void app_calibration_process(app_calibration_t *app)
{
 80005ec:	b580      	push	{r7, lr}
 80005ee:	b086      	sub	sp, #24
 80005f0:	af02      	add	r7, sp, #8
 80005f2:	6078      	str	r0, [r7, #4]
  app_cal_command_t command;

  if ((app == NULL) || (app->busy != 0U) || (app->command == APP_CAL_CMD_NONE))
 80005f4:	687b      	ldr	r3, [r7, #4]
 80005f6:	2b00      	cmp	r3, #0
 80005f8:	f000 8129 	beq.w	800084e <app_calibration_process+0x262>
 80005fc:	687b      	ldr	r3, [r7, #4]
 80005fe:	f893 3133 	ldrb.w	r3, [r3, #307]	; 0x133
 8000602:	2b00      	cmp	r3, #0
 8000604:	f040 8123 	bne.w	800084e <app_calibration_process+0x262>
 8000608:	687b      	ldr	r3, [r7, #4]
 800060a:	f893 3132 	ldrb.w	r3, [r3, #306]	; 0x132
 800060e:	2b00      	cmp	r3, #0
 8000610:	f000 811d 	beq.w	800084e <app_calibration_process+0x262>
  {
    return;
  }

  app->busy = 1U;
 8000614:	687b      	ldr	r3, [r7, #4]
 8000616:	2201      	movs	r2, #1
 8000618:	f883 2133 	strb.w	r2, [r3, #307]	; 0x133
  command = app->command;
 800061c:	687b      	ldr	r3, [r7, #4]
 800061e:	f893 3132 	ldrb.w	r3, [r3, #306]	; 0x132
 8000622:	73fb      	strb	r3, [r7, #15]
  app->command = APP_CAL_CMD_NONE;
 8000624:	687b      	ldr	r3, [r7, #4]
 8000626:	2200      	movs	r2, #0
 8000628:	f883 2132 	strb.w	r2, [r3, #306]	; 0x132

  switch (command)
 800062c:	7bfb      	ldrb	r3, [r7, #15]
 800062e:	3b01      	subs	r3, #1
 8000630:	2b0c      	cmp	r3, #12
 8000632:	f200 80fd 	bhi.w	8000830 <app_calibration_process+0x244>
 8000636:	a201      	add	r2, pc, #4	; (adr r2, 800063c <app_calibration_process+0x50>)
 8000638:	f852 f023 	ldr.w	pc, [r2, r3, lsl #2]
 800063c:	08000671 	.word	0x08000671
 8000640:	0800068f 	.word	0x0800068f
 8000644:	0800068f 	.word	0x0800068f
 8000648:	0800068f 	.word	0x0800068f
 800064c:	0800068f 	.word	0x0800068f
 8000650:	0800068f 	.word	0x0800068f
 8000654:	0800068f 	.word	0x0800068f
 8000658:	080006b5 	.word	0x080006b5
 800065c:	08000705 	.word	0x08000705
 8000660:	0800072b 	.word	0x0800072b
 8000664:	0800077b 	.word	0x0800077b
 8000668:	080007c5 	.word	0x080007c5
 800066c:	080007fd 	.word	0x080007fd
  {
    case APP_CAL_CMD_GYRO_ZERO:
      app->status = sensor_cal_mpu6500_gyro_zero(app->imu,
 8000670:	687b      	ldr	r3, [r7, #4]
 8000672:	6818      	ldr	r0, [r3, #0]
 8000674:	687b      	ldr	r3, [r7, #4]
 8000676:	3324      	adds	r3, #36	; 0x24
 8000678:	2202      	movs	r2, #2
 800067a:	f44f 71c8 	mov.w	r1, #400	; 0x190
 800067e:	f001 fee8 	bl	8002452 <sensor_cal_mpu6500_gyro_zero>
 8000682:	4603      	mov	r3, r0
 8000684:	461a      	mov	r2, r3
 8000686:	687b      	ldr	r3, [r7, #4]
 8000688:	f883 2131 	strb.w	r2, [r3, #305]	; 0x131
                                                 APP_CAL_SAMPLE_COUNT,
                                                 APP_CAL_SAMPLE_DELAY_MS,
                                                 &app->block.mpu6500);
      break;
 800068c:	e0da      	b.n	8000844 <app_calibration_process+0x258>
    case APP_CAL_CMD_ACCEL_NEG_X:
    case APP_CAL_CMD_ACCEL_POS_Y:
    case APP_CAL_CMD_ACCEL_NEG_Y:
    case APP_CAL_CMD_ACCEL_POS_Z:
    case APP_CAL_CMD_ACCEL_NEG_Z:
      app->status = sensor_cal_mpu6500_accel_collect_position(
 800068e:	687b      	ldr	r3, [r7, #4]
 8000690:	6818      	ldr	r0, [r3, #0]
          app->imu,
          (sensor_cal_accel_position_t)(command - APP_CAL_CMD_ACCEL_POS_X),
 8000692:	7bfb      	ldrb	r3, [r7, #15]
 8000694:	3b02      	subs	r3, #2
 8000696:	b2d9      	uxtb	r1, r3
      app->status = sensor_cal_mpu6500_accel_collect_position(
 8000698:	687b      	ldr	r3, [r7, #4]
 800069a:	33c4      	adds	r3, #196	; 0xc4
 800069c:	9300      	str	r3, [sp, #0]
 800069e:	2302      	movs	r3, #2
 80006a0:	f44f 72c8 	mov.w	r2, #400	; 0x190
 80006a4:	f001 ff02 	bl	80024ac <sensor_cal_mpu6500_accel_collect_position>
 80006a8:	4603      	mov	r3, r0
 80006aa:	461a      	mov	r2, r3
 80006ac:	687b      	ldr	r3, [r7, #4]
 80006ae:	f883 2131 	strb.w	r2, [r3, #305]	; 0x131
          APP_CAL_SAMPLE_COUNT,
          APP_CAL_SAMPLE_DELAY_MS,
          &app->accel_data);
      break;
 80006b2:	e0c7      	b.n	8000844 <app_calibration_process+0x258>

    case APP_CAL_CMD_ACCEL_COMPUTE_SAVE:
      app->status = sensor_cal_mpu6500_accel_compute_six_position(&app->accel_data,
 80006b4:	687b      	ldr	r3, [r7, #4]
 80006b6:	f103 02c4 	add.w	r2, r3, #196	; 0xc4
                                                                  app->imu->accel_lsb_per_g,
 80006ba:	687b      	ldr	r3, [r7, #4]
 80006bc:	681b      	ldr	r3, [r3, #0]
      app->status = sensor_cal_mpu6500_accel_compute_six_position(&app->accel_data,
 80006be:	edd3 7a05 	vldr	s15, [r3, #20]
 80006c2:	687b      	ldr	r3, [r7, #4]
 80006c4:	3324      	adds	r3, #36	; 0x24
 80006c6:	4619      	mov	r1, r3
 80006c8:	eeb0 0a67 	vmov.f32	s0, s15
 80006cc:	4610      	mov	r0, r2
 80006ce:	f001 ff29 	bl	8002524 <sensor_cal_mpu6500_accel_compute_six_position>
 80006d2:	4603      	mov	r3, r0
 80006d4:	461a      	mov	r2, r3
 80006d6:	687b      	ldr	r3, [r7, #4]
 80006d8:	f883 2131 	strb.w	r2, [r3, #305]	; 0x131
                                                                  &app->block.mpu6500);
      if (app->status == SENSOR_CAL_OK)
 80006dc:	687b      	ldr	r3, [r7, #4]
 80006de:	f893 3131 	ldrb.w	r3, [r3, #305]	; 0x131
 80006e2:	2b00      	cmp	r3, #0
 80006e4:	f040 80a9 	bne.w	800083a <app_calibration_process+0x24e>
      {
        app->flash_status = cal_storage_save(&app->block);
 80006e8:	687b      	ldr	r3, [r7, #4]
 80006ea:	3314      	adds	r3, #20
 80006ec:	4618      	mov	r0, r3
 80006ee:	f000 f991 	bl	8000a14 <cal_storage_save>
 80006f2:	4603      	mov	r3, r0
 80006f4:	461a      	mov	r2, r3
 80006f6:	687b      	ldr	r3, [r7, #4]
 80006f8:	f883 2130 	strb.w	r2, [r3, #304]	; 0x130
        app_calibration_save_ok(app);
 80006fc:	6878      	ldr	r0, [r7, #4]
 80006fe:	f000 f946 	bl	800098e <app_calibration_save_ok>
      }
      break;
 8000702:	e09a      	b.n	800083a <app_calibration_process+0x24e>

    case APP_CAL_CMD_MAG_START:
      sensor_cal_lis3mdl_mag_minmax_start(&app->mag_data);
 8000704:	687b      	ldr	r3, [r7, #4]
 8000706:	f503 738a 	add.w	r3, r3, #276	; 0x114
 800070a:	4618      	mov	r0, r3
 800070c:	f001 ffde 	bl	80026cc <sensor_cal_lis3mdl_mag_minmax_start>
      app->mag_sample_count = 0U;
 8000710:	687b      	ldr	r3, [r7, #4]
 8000712:	2200      	movs	r2, #0
 8000714:	f8c3 2138 	str.w	r2, [r3, #312]	; 0x138
      app->mag_active = 1U;
 8000718:	687b      	ldr	r3, [r7, #4]
 800071a:	2201      	movs	r2, #1
 800071c:	f883 2136 	strb.w	r2, [r3, #310]	; 0x136
      app->status = SENSOR_CAL_OK;
 8000720:	687b      	ldr	r3, [r7, #4]
 8000722:	2200      	movs	r2, #0
 8000724:	f883 2131 	strb.w	r2, [r3, #305]	; 0x131
      break;
 8000728:	e08c      	b.n	8000844 <app_calibration_process+0x258>

    case APP_CAL_CMD_MAG_FINISH_SAVE:
      app->mag_active = 0U;
 800072a:	687b      	ldr	r3, [r7, #4]
 800072c:	2200      	movs	r2, #0
 800072e:	f883 2136 	strb.w	r2, [r3, #310]	; 0x136
      app->status = sensor_cal_lis3mdl_mag_minmax_finish(&app->mag_data, &app->block.lis3mdl);
 8000732:	687b      	ldr	r3, [r7, #4]
 8000734:	f503 728a 	add.w	r2, r3, #276	; 0x114
 8000738:	687b      	ldr	r3, [r7, #4]
 800073a:	3348      	adds	r3, #72	; 0x48
 800073c:	4619      	mov	r1, r3
 800073e:	4610      	mov	r0, r2
 8000740:	f002 f85e 	bl	8002800 <sensor_cal_lis3mdl_mag_minmax_finish>
 8000744:	4603      	mov	r3, r0
 8000746:	461a      	mov	r2, r3
 8000748:	687b      	ldr	r3, [r7, #4]
 800074a:	f883 2131 	strb.w	r2, [r3, #305]	; 0x131
      if (app->status == SENSOR_CAL_OK)
 800074e:	687b      	ldr	r3, [r7, #4]
 8000750:	f893 3131 	ldrb.w	r3, [r3, #305]	; 0x131
 8000754:	2b00      	cmp	r3, #0
 8000756:	d172      	bne.n	800083e <app_calibration_process+0x252>
      {
        app_calibration_apply_stored(app);
 8000758:	6878      	ldr	r0, [r7, #4]
 800075a:	f000 f8bf 	bl	80008dc <app_calibration_apply_stored>
        app->flash_status = cal_storage_save(&app->block);
 800075e:	687b      	ldr	r3, [r7, #4]
 8000760:	3314      	adds	r3, #20
 8000762:	4618      	mov	r0, r3
 8000764:	f000 f956 	bl	8000a14 <cal_storage_save>
 8000768:	4603      	mov	r3, r0
 800076a:	461a      	mov	r2, r3
 800076c:	687b      	ldr	r3, [r7, #4]
 800076e:	f883 2130 	strb.w	r2, [r3, #304]	; 0x130
        app_calibration_save_ok(app);
 8000772:	6878      	ldr	r0, [r7, #4]
 8000774:	f000 f90b 	bl	800098e <app_calibration_save_ok>
      }
      break;
 8000778:	e061      	b.n	800083e <app_calibration_process+0x252>

    case APP_CAL_CMD_DPS310_REF_SAVE:
      app->status = sensor_cal_dps310_reference_current(app->prs,
 800077a:	687b      	ldr	r3, [r7, #4]
 800077c:	6898      	ldr	r0, [r3, #8]
                                                        app->prs_sensor_calibration,
 800077e:	687b      	ldr	r3, [r7, #4]
 8000780:	68d9      	ldr	r1, [r3, #12]
      app->status = sensor_cal_dps310_reference_current(app->prs,
 8000782:	687b      	ldr	r3, [r7, #4]
 8000784:	3378      	adds	r3, #120	; 0x78
 8000786:	9300      	str	r3, [sp, #0]
 8000788:	ed9f 0a33 	vldr	s0, [pc, #204]	; 8000858 <app_calibration_process+0x26c>
 800078c:	2300      	movs	r3, #0
 800078e:	2200      	movs	r2, #0
 8000790:	f002 f8ee 	bl	8002970 <sensor_cal_dps310_reference_current>
 8000794:	4603      	mov	r3, r0
 8000796:	461a      	mov	r2, r3
 8000798:	687b      	ldr	r3, [r7, #4]
 800079a:	f883 2131 	strb.w	r2, [r3, #305]	; 0x131
                                                        DPS310_OVERSAMPLING_1,
                                                        DPS310_OVERSAMPLING_1,
                                                        APP_DPS310_REFERENCE_ALTITUDE_M,
                                                        &app->block.dps310);
      if (app->status == SENSOR_CAL_OK)
 800079e:	687b      	ldr	r3, [r7, #4]
 80007a0:	f893 3131 	ldrb.w	r3, [r3, #305]	; 0x131
 80007a4:	2b00      	cmp	r3, #0
 80007a6:	d14c      	bne.n	8000842 <app_calibration_process+0x256>
      {
        app->flash_status = cal_storage_save(&app->block);
 80007a8:	687b      	ldr	r3, [r7, #4]
 80007aa:	3314      	adds	r3, #20
 80007ac:	4618      	mov	r0, r3
 80007ae:	f000 f931 	bl	8000a14 <cal_storage_save>
 80007b2:	4603      	mov	r3, r0
 80007b4:	461a      	mov	r2, r3
 80007b6:	687b      	ldr	r3, [r7, #4]
 80007b8:	f883 2130 	strb.w	r2, [r3, #304]	; 0x130
        app_calibration_save_ok(app);
 80007bc:	6878      	ldr	r0, [r7, #4]
 80007be:	f000 f8e6 	bl	800098e <app_calibration_save_ok>
      }
      break;
 80007c2:	e03e      	b.n	8000842 <app_calibration_process+0x256>

    case APP_CAL_CMD_SAVE:
      app->flash_status = cal_storage_save(&app->block);
 80007c4:	687b      	ldr	r3, [r7, #4]
 80007c6:	3314      	adds	r3, #20
 80007c8:	4618      	mov	r0, r3
 80007ca:	f000 f923 	bl	8000a14 <cal_storage_save>
 80007ce:	4603      	mov	r3, r0
 80007d0:	461a      	mov	r2, r3
 80007d2:	687b      	ldr	r3, [r7, #4]
 80007d4:	f883 2130 	strb.w	r2, [r3, #304]	; 0x130
      if (app->flash_status == CAL_STORAGE_OK)
 80007d8:	687b      	ldr	r3, [r7, #4]
 80007da:	f893 3130 	ldrb.w	r3, [r3, #304]	; 0x130
 80007de:	2b00      	cmp	r3, #0
 80007e0:	d107      	bne.n	80007f2 <app_calibration_process+0x206>
      {
        app_calibration_save_ok(app);
 80007e2:	6878      	ldr	r0, [r7, #4]
 80007e4:	f000 f8d3 	bl	800098e <app_calibration_save_ok>
        app->status = SENSOR_CAL_OK;
 80007e8:	687b      	ldr	r3, [r7, #4]
 80007ea:	2200      	movs	r2, #0
 80007ec:	f883 2131 	strb.w	r2, [r3, #305]	; 0x131
      }
      else
      {
        app->status = SENSOR_CAL_ERROR;
      }
      break;
 80007f0:	e028      	b.n	8000844 <app_calibration_process+0x258>
        app->status = SENSOR_CAL_ERROR;
 80007f2:	687b      	ldr	r3, [r7, #4]
 80007f4:	2201      	movs	r2, #1
 80007f6:	f883 2131 	strb.w	r2, [r3, #305]	; 0x131
      break;
 80007fa:	e023      	b.n	8000844 <app_calibration_process+0x258>

    case APP_CAL_CMD_LOAD_DEFAULTS:
      cal_storage_set_defaults(&app->block);
 80007fc:	687b      	ldr	r3, [r7, #4]
 80007fe:	3314      	adds	r3, #20
 8000800:	4618      	mov	r0, r3
 8000802:	f000 f9a5 	bl	8000b50 <cal_storage_set_defaults>
      app_calibration_apply_stored(app);
 8000806:	6878      	ldr	r0, [r7, #4]
 8000808:	f000 f868 	bl	80008dc <app_calibration_apply_stored>
      sensor_cal_accel_six_position_clear(&app->accel_data);
 800080c:	687b      	ldr	r3, [r7, #4]
 800080e:	33c4      	adds	r3, #196	; 0xc4
 8000810:	4618      	mov	r0, r3
 8000812:	f001 ff49 	bl	80026a8 <sensor_cal_accel_six_position_clear>
      app->loaded_from_flash = 0U;
 8000816:	687b      	ldr	r3, [r7, #4]
 8000818:	2200      	movs	r2, #0
 800081a:	f883 2134 	strb.w	r2, [r3, #308]	; 0x134
      app->using_defaults = 1U;
 800081e:	687b      	ldr	r3, [r7, #4]
 8000820:	2201      	movs	r2, #1
 8000822:	f883 2135 	strb.w	r2, [r3, #309]	; 0x135
      app->status = SENSOR_CAL_OK;
 8000826:	687b      	ldr	r3, [r7, #4]
 8000828:	2200      	movs	r2, #0
 800082a:	f883 2131 	strb.w	r2, [r3, #305]	; 0x131
      break;
 800082e:	e009      	b.n	8000844 <app_calibration_process+0x258>

    default:
      app->status = SENSOR_CAL_ERROR_INVALID_ARG;
 8000830:	687b      	ldr	r3, [r7, #4]
 8000832:	2202      	movs	r2, #2
 8000834:	f883 2131 	strb.w	r2, [r3, #305]	; 0x131
      break;
 8000838:	e004      	b.n	8000844 <app_calibration_process+0x258>
      break;
 800083a:	bf00      	nop
 800083c:	e002      	b.n	8000844 <app_calibration_process+0x258>
      break;
 800083e:	bf00      	nop
 8000840:	e000      	b.n	8000844 <app_calibration_process+0x258>
      break;
 8000842:	bf00      	nop
  }

  app->busy = 0U;
 8000844:	687b      	ldr	r3, [r7, #4]
 8000846:	2200      	movs	r2, #0
 8000848:	f883 2133 	strb.w	r2, [r3, #307]	; 0x133
 800084c:	e000      	b.n	8000850 <app_calibration_process+0x264>
    return;
 800084e:	bf00      	nop
}
 8000850:	3710      	adds	r7, #16
 8000852:	46bd      	mov	sp, r7
 8000854:	bd80      	pop	{r7, pc}
 8000856:	bf00      	nop
 8000858:	00000000 	.word	0x00000000

0800085c <app_calibration_update_mag>:

void app_calibration_update_mag(app_calibration_t *app)
{
 800085c:	b580      	push	{r7, lr}
 800085e:	b084      	sub	sp, #16
 8000860:	af00      	add	r7, sp, #0
 8000862:	6078      	str	r0, [r7, #4]
  static uint32_t last_update_ms = 0U;
  uint32_t now_ms;

  if ((app == NULL) || (app->mag_active == 0U) || (app->busy != 0U))
 8000864:	687b      	ldr	r3, [r7, #4]
 8000866:	2b00      	cmp	r3, #0
 8000868:	d02f      	beq.n	80008ca <app_calibration_update_mag+0x6e>
 800086a:	687b      	ldr	r3, [r7, #4]
 800086c:	f893 3136 	ldrb.w	r3, [r3, #310]	; 0x136
 8000870:	2b00      	cmp	r3, #0
 8000872:	d02a      	beq.n	80008ca <app_calibration_update_mag+0x6e>
 8000874:	687b      	ldr	r3, [r7, #4]
 8000876:	f893 3133 	ldrb.w	r3, [r3, #307]	; 0x133
 800087a:	2b00      	cmp	r3, #0
 800087c:	d125      	bne.n	80008ca <app_calibration_update_mag+0x6e>
  {
    return;
  }

  now_ms = HAL_GetTick();
 800087e:	f002 fbb3 	bl	8002fe8 <HAL_GetTick>
 8000882:	60f8      	str	r0, [r7, #12]
  if ((now_ms - last_update_ms) < APP_MAG_CAL_UPDATE_PERIOD_MS)
 8000884:	4b14      	ldr	r3, [pc, #80]	; (80008d8 <app_calibration_update_mag+0x7c>)
 8000886:	681b      	ldr	r3, [r3, #0]
 8000888:	68fa      	ldr	r2, [r7, #12]
 800088a:	1ad3      	subs	r3, r2, r3
 800088c:	2b13      	cmp	r3, #19
 800088e:	d91e      	bls.n	80008ce <app_calibration_update_mag+0x72>
  {
    return;
  }
  last_update_ms = now_ms;
 8000890:	4a11      	ldr	r2, [pc, #68]	; (80008d8 <app_calibration_update_mag+0x7c>)
 8000892:	68fb      	ldr	r3, [r7, #12]
 8000894:	6013      	str	r3, [r2, #0]

  app->status = sensor_cal_lis3mdl_mag_minmax_update(app->mag, &app->mag_data);
 8000896:	687b      	ldr	r3, [r7, #4]
 8000898:	685a      	ldr	r2, [r3, #4]
 800089a:	687b      	ldr	r3, [r7, #4]
 800089c:	f503 738a 	add.w	r3, r3, #276	; 0x114
 80008a0:	4619      	mov	r1, r3
 80008a2:	4610      	mov	r0, r2
 80008a4:	f001 ff3a 	bl	800271c <sensor_cal_lis3mdl_mag_minmax_update>
 80008a8:	4603      	mov	r3, r0
 80008aa:	461a      	mov	r2, r3
 80008ac:	687b      	ldr	r3, [r7, #4]
 80008ae:	f883 2131 	strb.w	r2, [r3, #305]	; 0x131
  if (app->status == SENSOR_CAL_OK)
 80008b2:	687b      	ldr	r3, [r7, #4]
 80008b4:	f893 3131 	ldrb.w	r3, [r3, #305]	; 0x131
 80008b8:	2b00      	cmp	r3, #0
 80008ba:	d109      	bne.n	80008d0 <app_calibration_update_mag+0x74>
  {
    app->mag_sample_count = app->mag_data.sample_count;
 80008bc:	687b      	ldr	r3, [r7, #4]
 80008be:	f8d3 212c 	ldr.w	r2, [r3, #300]	; 0x12c
 80008c2:	687b      	ldr	r3, [r7, #4]
 80008c4:	f8c3 2138 	str.w	r2, [r3, #312]	; 0x138
 80008c8:	e002      	b.n	80008d0 <app_calibration_update_mag+0x74>
    return;
 80008ca:	bf00      	nop
 80008cc:	e000      	b.n	80008d0 <app_calibration_update_mag+0x74>
    return;
 80008ce:	bf00      	nop
  }
}
 80008d0:	3710      	adds	r7, #16
 80008d2:	46bd      	mov	sp, r7
 80008d4:	bd80      	pop	{r7, pc}
 80008d6:	bf00      	nop
 80008d8:	200001c8 	.word	0x200001c8

080008dc <app_calibration_apply_stored>:

void app_calibration_apply_stored(app_calibration_t *app)
{
 80008dc:	b480      	push	{r7}
 80008de:	b085      	sub	sp, #20
 80008e0:	af00      	add	r7, sp, #0
 80008e2:	6078      	str	r0, [r7, #4]
  lis3mdl_calibration_t *mag_cal;

  if ((app == NULL) || (app->mag_runtime_calibration == NULL))
 80008e4:	687b      	ldr	r3, [r7, #4]
 80008e6:	2b00      	cmp	r3, #0
 80008e8:	d037      	beq.n	800095a <app_calibration_apply_stored+0x7e>
 80008ea:	687b      	ldr	r3, [r7, #4]
 80008ec:	691b      	ldr	r3, [r3, #16]
 80008ee:	2b00      	cmp	r3, #0
 80008f0:	d033      	beq.n	800095a <app_calibration_apply_stored+0x7e>
  {
    return;
  }

  mag_cal = app->mag_runtime_calibration;
 80008f2:	687b      	ldr	r3, [r7, #4]
 80008f4:	691b      	ldr	r3, [r3, #16]
 80008f6:	60fb      	str	r3, [r7, #12]
  mag_cal->hard_iron_gauss.x = app->block.lis3mdl.hard_iron_gauss[0];
 80008f8:	687b      	ldr	r3, [r7, #4]
 80008fa:	6c9a      	ldr	r2, [r3, #72]	; 0x48
 80008fc:	68fb      	ldr	r3, [r7, #12]
 80008fe:	601a      	str	r2, [r3, #0]
  mag_cal->hard_iron_gauss.y = app->block.lis3mdl.hard_iron_gauss[1];
 8000900:	687b      	ldr	r3, [r7, #4]
 8000902:	6cda      	ldr	r2, [r3, #76]	; 0x4c
 8000904:	68fb      	ldr	r3, [r7, #12]
 8000906:	605a      	str	r2, [r3, #4]
  mag_cal->hard_iron_gauss.z = app->block.lis3mdl.hard_iron_gauss[2];
 8000908:	687b      	ldr	r3, [r7, #4]
 800090a:	6d1a      	ldr	r2, [r3, #80]	; 0x50
 800090c:	68fb      	ldr	r3, [r7, #12]
 800090e:	609a      	str	r2, [r3, #8]

  mag_cal->soft_iron_matrix[0][0] = app->block.lis3mdl.soft_iron_matrix[0][0];
 8000910:	687b      	ldr	r3, [r7, #4]
 8000912:	6d5a      	ldr	r2, [r3, #84]	; 0x54
 8000914:	68fb      	ldr	r3, [r7, #12]
 8000916:	60da      	str	r2, [r3, #12]
  mag_cal->soft_iron_matrix[0][1] = app->block.lis3mdl.soft_iron_matrix[0][1];
 8000918:	687b      	ldr	r3, [r7, #4]
 800091a:	6d9a      	ldr	r2, [r3, #88]	; 0x58
 800091c:	68fb      	ldr	r3, [r7, #12]
 800091e:	611a      	str	r2, [r3, #16]
  mag_cal->soft_iron_matrix[0][2] = app->block.lis3mdl.soft_iron_matrix[0][2];
 8000920:	687b      	ldr	r3, [r7, #4]
 8000922:	6dda      	ldr	r2, [r3, #92]	; 0x5c
 8000924:	68fb      	ldr	r3, [r7, #12]
 8000926:	615a      	str	r2, [r3, #20]
  mag_cal->soft_iron_matrix[1][0] = app->block.lis3mdl.soft_iron_matrix[1][0];
 8000928:	687b      	ldr	r3, [r7, #4]
 800092a:	6e1a      	ldr	r2, [r3, #96]	; 0x60
 800092c:	68fb      	ldr	r3, [r7, #12]
 800092e:	619a      	str	r2, [r3, #24]
  mag_cal->soft_iron_matrix[1][1] = app->block.lis3mdl.soft_iron_matrix[1][1];
 8000930:	687b      	ldr	r3, [r7, #4]
 8000932:	6e5a      	ldr	r2, [r3, #100]	; 0x64
 8000934:	68fb      	ldr	r3, [r7, #12]
 8000936:	61da      	str	r2, [r3, #28]
  mag_cal->soft_iron_matrix[1][2] = app->block.lis3mdl.soft_iron_matrix[1][2];
 8000938:	687b      	ldr	r3, [r7, #4]
 800093a:	6e9a      	ldr	r2, [r3, #104]	; 0x68
 800093c:	68fb      	ldr	r3, [r7, #12]
 800093e:	621a      	str	r2, [r3, #32]
  mag_cal->soft_iron_matrix[2][0] = app->block.lis3mdl.soft_iron_matrix[2][0];
 8000940:	687b      	ldr	r3, [r7, #4]
 8000942:	6eda      	ldr	r2, [r3, #108]	; 0x6c
 8000944:	68fb      	ldr	r3, [r7, #12]
 8000946:	625a      	str	r2, [r3, #36]	; 0x24
  mag_cal->soft_iron_matrix[2][1] = app->block.lis3mdl.soft_iron_matrix[2][1];
 8000948:	687b      	ldr	r3, [r7, #4]
 800094a:	6f1a      	ldr	r2, [r3, #112]	; 0x70
 800094c:	68fb      	ldr	r3, [r7, #12]
 800094e:	629a      	str	r2, [r3, #40]	; 0x28
  mag_cal->soft_iron_matrix[2][2] = app->block.lis3mdl.soft_iron_matrix[2][2];
 8000950:	687b      	ldr	r3, [r7, #4]
 8000952:	6f5a      	ldr	r2, [r3, #116]	; 0x74
 8000954:	68fb      	ldr	r3, [r7, #12]
 8000956:	62da      	str	r2, [r3, #44]	; 0x2c
 8000958:	e000      	b.n	800095c <app_calibration_apply_stored+0x80>
    return;
 800095a:	bf00      	nop
}
 800095c:	3714      	adds	r7, #20
 800095e:	46bd      	mov	sp, r7
 8000960:	f85d 7b04 	ldr.w	r7, [sp], #4
 8000964:	4770      	bx	lr

08000966 <app_calibration_request>:

void app_calibration_request(app_calibration_t *app, app_cal_command_t command)
{
 8000966:	b480      	push	{r7}
 8000968:	b083      	sub	sp, #12
 800096a:	af00      	add	r7, sp, #0
 800096c:	6078      	str	r0, [r7, #4]
 800096e:	460b      	mov	r3, r1
 8000970:	70fb      	strb	r3, [r7, #3]
  if (app == NULL)
 8000972:	687b      	ldr	r3, [r7, #4]
 8000974:	2b00      	cmp	r3, #0
 8000976:	d004      	beq.n	8000982 <app_calibration_request+0x1c>
  {
    return;
  }

  app->command = command;
 8000978:	687b      	ldr	r3, [r7, #4]
 800097a:	78fa      	ldrb	r2, [r7, #3]
 800097c:	f883 2132 	strb.w	r2, [r3, #306]	; 0x132
 8000980:	e000      	b.n	8000984 <app_calibration_request+0x1e>
    return;
 8000982:	bf00      	nop
}
 8000984:	370c      	adds	r7, #12
 8000986:	46bd      	mov	sp, r7
 8000988:	f85d 7b04 	ldr.w	r7, [sp], #4
 800098c:	4770      	bx	lr

0800098e <app_calibration_save_ok>:

static void app_calibration_save_ok(app_calibration_t *app)
{
 800098e:	b480      	push	{r7}
 8000990:	b083      	sub	sp, #12
 8000992:	af00      	add	r7, sp, #0
 8000994:	6078      	str	r0, [r7, #4]
  if ((app != NULL) && (app->flash_status == CAL_STORAGE_OK))
 8000996:	687b      	ldr	r3, [r7, #4]
 8000998:	2b00      	cmp	r3, #0
 800099a:	d013      	beq.n	80009c4 <app_calibration_save_ok+0x36>
 800099c:	687b      	ldr	r3, [r7, #4]
 800099e:	f893 3130 	ldrb.w	r3, [r3, #304]	; 0x130
 80009a2:	2b00      	cmp	r3, #0
 80009a4:	d10e      	bne.n	80009c4 <app_calibration_save_ok+0x36>
  {
    app->loaded_from_flash = 1U;
 80009a6:	687b      	ldr	r3, [r7, #4]
 80009a8:	2201      	movs	r2, #1
 80009aa:	f883 2134 	strb.w	r2, [r3, #308]	; 0x134
    app->using_defaults = 0U;
 80009ae:	687b      	ldr	r3, [r7, #4]
 80009b0:	2200      	movs	r2, #0
 80009b2:	f883 2135 	strb.w	r2, [r3, #309]	; 0x135
    app->save_count++;
 80009b6:	687b      	ldr	r3, [r7, #4]
 80009b8:	f8d3 313c 	ldr.w	r3, [r3, #316]	; 0x13c
 80009bc:	1c5a      	adds	r2, r3, #1
 80009be:	687b      	ldr	r3, [r7, #4]
 80009c0:	f8c3 213c 	str.w	r2, [r3, #316]	; 0x13c
  }
}
 80009c4:	bf00      	nop
 80009c6:	370c      	adds	r7, #12
 80009c8:	46bd      	mov	sp, r7
 80009ca:	f85d 7b04 	ldr.w	r7, [sp], #4
 80009ce:	4770      	bx	lr

080009d0 <cal_storage_load>:
static const cal_storage_block_t *cal_storage_flash_block(void);
static uint32_t cal_storage_crc_length(void);
static cal_storage_status_t cal_storage_program_block(const cal_storage_block_t *block);

cal_storage_status_t cal_storage_load(cal_storage_block_t *block)
{
 80009d0:	b580      	push	{r7, lr}
 80009d2:	b084      	sub	sp, #16
 80009d4:	af00      	add	r7, sp, #0
 80009d6:	6078      	str	r0, [r7, #4]
  const cal_storage_block_t *stored;

  if (block == NULL)
 80009d8:	687b      	ldr	r3, [r7, #4]
 80009da:	2b00      	cmp	r3, #0
 80009dc:	d101      	bne.n	80009e2 <cal_storage_load+0x12>
  {
    return CAL_STORAGE_ERROR_INVALID_ARG;
 80009de:	2302      	movs	r3, #2
 80009e0:	e013      	b.n	8000a0a <cal_storage_load+0x3a>
  }

  stored = cal_storage_flash_block();
 80009e2:	f000 f97d 	bl	8000ce0 <cal_storage_flash_block>
 80009e6:	60f8      	str	r0, [r7, #12]
  memcpy(block, stored, sizeof(*block));
 80009e8:	22b0      	movs	r2, #176	; 0xb0
 80009ea:	68f9      	ldr	r1, [r7, #12]
 80009ec:	6878      	ldr	r0, [r7, #4]
 80009ee:	f00c fbc5 	bl	800d17c <memcpy>

  if (cal_storage_is_valid(block) == 0U)
 80009f2:	6878      	ldr	r0, [r7, #4]
 80009f4:	f000 f8fc 	bl	8000bf0 <cal_storage_is_valid>
 80009f8:	4603      	mov	r3, r0
 80009fa:	2b00      	cmp	r3, #0
 80009fc:	d104      	bne.n	8000a08 <cal_storage_load+0x38>
  {
    cal_storage_set_defaults(block);
 80009fe:	6878      	ldr	r0, [r7, #4]
 8000a00:	f000 f8a6 	bl	8000b50 <cal_storage_set_defaults>
    return CAL_STORAGE_ERROR_INVALID_DATA;
 8000a04:	2303      	movs	r3, #3
 8000a06:	e000      	b.n	8000a0a <cal_storage_load+0x3a>
  }

  return CAL_STORAGE_OK;
 8000a08:	2300      	movs	r3, #0
}
 8000a0a:	4618      	mov	r0, r3
 8000a0c:	3710      	adds	r7, #16
 8000a0e:	46bd      	mov	sp, r7
 8000a10:	bd80      	pop	{r7, pc}
	...

08000a14 <cal_storage_save>:

cal_storage_status_t cal_storage_save(const cal_storage_block_t *block)
{
 8000a14:	b580      	push	{r7, lr}
 8000a16:	b0e0      	sub	sp, #384	; 0x180
 8000a18:	af00      	add	r7, sp, #0
 8000a1a:	f507 73c0 	add.w	r3, r7, #384	; 0x180
 8000a1e:	f5a3 73be 	sub.w	r3, r3, #380	; 0x17c
 8000a22:	6018      	str	r0, [r3, #0]
  cal_storage_block_t prepared;
  cal_storage_status_t status;
  cal_storage_block_t verify;

  if (block == NULL)
 8000a24:	f507 73c0 	add.w	r3, r7, #384	; 0x180
 8000a28:	f5a3 73be 	sub.w	r3, r3, #380	; 0x17c
 8000a2c:	681b      	ldr	r3, [r3, #0]
 8000a2e:	2b00      	cmp	r3, #0
 8000a30:	d101      	bne.n	8000a36 <cal_storage_save+0x22>
  {
    return CAL_STORAGE_ERROR_INVALID_ARG;
 8000a32:	2302      	movs	r3, #2
 8000a34:	e084      	b.n	8000b40 <cal_storage_save+0x12c>
  }

  prepared = *block;
 8000a36:	f507 73c0 	add.w	r3, r7, #384	; 0x180
 8000a3a:	f5a3 73be 	sub.w	r3, r3, #380	; 0x17c
 8000a3e:	681a      	ldr	r2, [r3, #0]
 8000a40:	f107 03cc 	add.w	r3, r7, #204	; 0xcc
 8000a44:	4611      	mov	r1, r2
 8000a46:	22b0      	movs	r2, #176	; 0xb0
 8000a48:	4618      	mov	r0, r3
 8000a4a:	f00c fb97 	bl	800d17c <memcpy>
  prepared.magic = CAL_STORAGE_MAGIC;
 8000a4e:	4b3f      	ldr	r3, [pc, #252]	; (8000b4c <cal_storage_save+0x138>)
 8000a50:	f8c7 30cc 	str.w	r3, [r7, #204]	; 0xcc
  prepared.version = CAL_STORAGE_VERSION;
 8000a54:	2301      	movs	r3, #1
 8000a56:	f8a7 30d0 	strh.w	r3, [r7, #208]	; 0xd0
  prepared.length = (uint16_t)sizeof(prepared);
 8000a5a:	23b0      	movs	r3, #176	; 0xb0
 8000a5c:	f8a7 30d2 	strh.w	r3, [r7, #210]	; 0xd2
  prepared.flags |= CAL_STORAGE_VALID_FLAG;
 8000a60:	f8d7 30d8 	ldr.w	r3, [r7, #216]	; 0xd8
 8000a64:	f043 0301 	orr.w	r3, r3, #1
 8000a68:	f8c7 30d8 	str.w	r3, [r7, #216]	; 0xd8
  prepared.crc32 = cal_storage_crc32(&prepared, cal_storage_crc_length());
 8000a6c:	f000 f942 	bl	8000cf4 <cal_storage_crc_length>
 8000a70:	4602      	mov	r2, r0
 8000a72:	f107 03cc 	add.w	r3, r7, #204	; 0xcc
 8000a76:	4611      	mov	r1, r2
 8000a78:	4618      	mov	r0, r3
 8000a7a:	f000 f8ef 	bl	8000c5c <cal_storage_crc32>
 8000a7e:	4603      	mov	r3, r0
 8000a80:	f8c7 3178 	str.w	r3, [r7, #376]	; 0x178

  HAL_FLASH_Unlock();
 8000a84:	f002 fd1a 	bl	80034bc <HAL_FLASH_Unlock>

  FLASH_EraseInitTypeDef erase = {0};
 8000a88:	f507 73c0 	add.w	r3, r7, #384	; 0x180
 8000a8c:	f5a3 73ba 	sub.w	r3, r3, #372	; 0x174
 8000a90:	461a      	mov	r2, r3
 8000a92:	2300      	movs	r3, #0
 8000a94:	6013      	str	r3, [r2, #0]
 8000a96:	6053      	str	r3, [r2, #4]
 8000a98:	6093      	str	r3, [r2, #8]
 8000a9a:	60d3      	str	r3, [r2, #12]
  uint32_t page_error = 0U;
 8000a9c:	f507 73c0 	add.w	r3, r7, #384	; 0x180
 8000aa0:	f5a3 73bc 	sub.w	r3, r3, #376	; 0x178
 8000aa4:	2200      	movs	r2, #0
 8000aa6:	601a      	str	r2, [r3, #0]
  erase.TypeErase = FLASH_TYPEERASE_PAGES;
 8000aa8:	f507 73c0 	add.w	r3, r7, #384	; 0x180
 8000aac:	f5a3 73ba 	sub.w	r3, r3, #372	; 0x174
 8000ab0:	2200      	movs	r2, #0
 8000ab2:	601a      	str	r2, [r3, #0]
  erase.Banks = FLASH_BANK_1;
 8000ab4:	f507 73c0 	add.w	r3, r7, #384	; 0x180
 8000ab8:	f5a3 73ba 	sub.w	r3, r3, #372	; 0x174
 8000abc:	2201      	movs	r2, #1
 8000abe:	605a      	str	r2, [r3, #4]
  erase.Page = CAL_STORAGE_FLASH_PAGE;
 8000ac0:	f507 73c0 	add.w	r3, r7, #384	; 0x180
 8000ac4:	f5a3 73ba 	sub.w	r3, r3, #372	; 0x174
 8000ac8:	223f      	movs	r2, #63	; 0x3f
 8000aca:	609a      	str	r2, [r3, #8]
  erase.NbPages = 1U;
 8000acc:	f507 73c0 	add.w	r3, r7, #384	; 0x180
 8000ad0:	f5a3 73ba 	sub.w	r3, r3, #372	; 0x174
 8000ad4:	2201      	movs	r2, #1
 8000ad6:	60da      	str	r2, [r3, #12]

  if (HAL_FLASHEx_Erase(&erase, &page_error) != HAL_OK)
 8000ad8:	f107 0208 	add.w	r2, r7, #8
 8000adc:	f107 030c 	add.w	r3, r7, #12
 8000ae0:	4611      	mov	r1, r2
 8000ae2:	4618      	mov	r0, r3
 8000ae4:	f002 fdd6 	bl	8003694 <HAL_FLASHEx_Erase>
 8000ae8:	4603      	mov	r3, r0
 8000aea:	2b00      	cmp	r3, #0
 8000aec:	d003      	beq.n	8000af6 <cal_storage_save+0xe2>
  {
    HAL_FLASH_Lock();
 8000aee:	f002 fd07 	bl	8003500 <HAL_FLASH_Lock>
    return CAL_STORAGE_ERROR_FLASH;
 8000af2:	2304      	movs	r3, #4
 8000af4:	e024      	b.n	8000b40 <cal_storage_save+0x12c>
  }

  status = cal_storage_program_block(&prepared);
 8000af6:	f107 03cc 	add.w	r3, r7, #204	; 0xcc
 8000afa:	4618      	mov	r0, r3
 8000afc:	f000 f902 	bl	8000d04 <cal_storage_program_block>
 8000b00:	4603      	mov	r3, r0
 8000b02:	f887 317f 	strb.w	r3, [r7, #383]	; 0x17f
  HAL_FLASH_Lock();
 8000b06:	f002 fcfb 	bl	8003500 <HAL_FLASH_Lock>

  if (status != CAL_STORAGE_OK)
 8000b0a:	f897 317f 	ldrb.w	r3, [r7, #383]	; 0x17f
 8000b0e:	2b00      	cmp	r3, #0
 8000b10:	d002      	beq.n	8000b18 <cal_storage_save+0x104>
  {
    return status;
 8000b12:	f897 317f 	ldrb.w	r3, [r7, #383]	; 0x17f
 8000b16:	e013      	b.n	8000b40 <cal_storage_save+0x12c>
  }

  memcpy(&verify, cal_storage_flash_block(), sizeof(verify));
 8000b18:	f000 f8e2 	bl	8000ce0 <cal_storage_flash_block>
 8000b1c:	4601      	mov	r1, r0
 8000b1e:	f107 031c 	add.w	r3, r7, #28
 8000b22:	22b0      	movs	r2, #176	; 0xb0
 8000b24:	4618      	mov	r0, r3
 8000b26:	f00c fb29 	bl	800d17c <memcpy>
  if (cal_storage_is_valid(&verify) == 0U)
 8000b2a:	f107 031c 	add.w	r3, r7, #28
 8000b2e:	4618      	mov	r0, r3
 8000b30:	f000 f85e 	bl	8000bf0 <cal_storage_is_valid>
 8000b34:	4603      	mov	r3, r0
 8000b36:	2b00      	cmp	r3, #0
 8000b38:	d101      	bne.n	8000b3e <cal_storage_save+0x12a>
  {
    return CAL_STORAGE_ERROR_VERIFY;
 8000b3a:	2305      	movs	r3, #5
 8000b3c:	e000      	b.n	8000b40 <cal_storage_save+0x12c>
  }

  return CAL_STORAGE_OK;
 8000b3e:	2300      	movs	r3, #0
}
 8000b40:	4618      	mov	r0, r3
 8000b42:	f507 77c0 	add.w	r7, r7, #384	; 0x180
 8000b46:	46bd      	mov	sp, r7
 8000b48:	bd80      	pop	{r7, pc}
 8000b4a:	bf00      	nop
 8000b4c:	4d4f5543 	.word	0x4d4f5543

08000b50 <cal_storage_set_defaults>:

void cal_storage_set_defaults(cal_storage_block_t *block)
{
 8000b50:	b580      	push	{r7, lr}
 8000b52:	b084      	sub	sp, #16
 8000b54:	af00      	add	r7, sp, #0
 8000b56:	6078      	str	r0, [r7, #4]
  uint32_t i;

  if (block == NULL)
 8000b58:	687b      	ldr	r3, [r7, #4]
 8000b5a:	2b00      	cmp	r3, #0
 8000b5c:	d040      	beq.n	8000be0 <cal_storage_set_defaults+0x90>
  {
    return;
  }

  memset(block, 0, sizeof(*block));
 8000b5e:	22b0      	movs	r2, #176	; 0xb0
 8000b60:	2100      	movs	r1, #0
 8000b62:	6878      	ldr	r0, [r7, #4]
 8000b64:	f00c fb18 	bl	800d198 <memset>

  block->magic = CAL_STORAGE_MAGIC;
 8000b68:	687b      	ldr	r3, [r7, #4]
 8000b6a:	4a1f      	ldr	r2, [pc, #124]	; (8000be8 <cal_storage_set_defaults+0x98>)
 8000b6c:	601a      	str	r2, [r3, #0]
  block->version = CAL_STORAGE_VERSION;
 8000b6e:	687b      	ldr	r3, [r7, #4]
 8000b70:	2201      	movs	r2, #1
 8000b72:	809a      	strh	r2, [r3, #4]
  block->length = (uint16_t)sizeof(*block);
 8000b74:	687b      	ldr	r3, [r7, #4]
 8000b76:	22b0      	movs	r2, #176	; 0xb0
 8000b78:	80da      	strh	r2, [r3, #6]
  block->flags = 0U;
 8000b7a:	687b      	ldr	r3, [r7, #4]
 8000b7c:	2200      	movs	r2, #0
 8000b7e:	60da      	str	r2, [r3, #12]

  block->mpu6500.accel_scale[0] = 1.0f;
 8000b80:	687b      	ldr	r3, [r7, #4]
 8000b82:	f04f 527e 	mov.w	r2, #1065353216	; 0x3f800000
 8000b86:	61da      	str	r2, [r3, #28]
  block->mpu6500.accel_scale[1] = 1.0f;
 8000b88:	687b      	ldr	r3, [r7, #4]
 8000b8a:	f04f 527e 	mov.w	r2, #1065353216	; 0x3f800000
 8000b8e:	621a      	str	r2, [r3, #32]
  block->mpu6500.accel_scale[2] = 1.0f;
 8000b90:	687b      	ldr	r3, [r7, #4]
 8000b92:	f04f 527e 	mov.w	r2, #1065353216	; 0x3f800000
 8000b96:	625a      	str	r2, [r3, #36]	; 0x24

  for (i = 0U; i < 3U; i++)
 8000b98:	2300      	movs	r3, #0
 8000b9a:	60fb      	str	r3, [r7, #12]
 8000b9c:	e00a      	b.n	8000bb4 <cal_storage_set_defaults+0x64>
  {
    block->lis3mdl.soft_iron_matrix[i][i] = 1.0f;
 8000b9e:	687a      	ldr	r2, [r7, #4]
 8000ba0:	68fb      	ldr	r3, [r7, #12]
 8000ba2:	011b      	lsls	r3, r3, #4
 8000ba4:	4413      	add	r3, r2
 8000ba6:	3340      	adds	r3, #64	; 0x40
 8000ba8:	f04f 527e 	mov.w	r2, #1065353216	; 0x3f800000
 8000bac:	601a      	str	r2, [r3, #0]
  for (i = 0U; i < 3U; i++)
 8000bae:	68fb      	ldr	r3, [r7, #12]
 8000bb0:	3301      	adds	r3, #1
 8000bb2:	60fb      	str	r3, [r7, #12]
 8000bb4:	68fb      	ldr	r3, [r7, #12]
 8000bb6:	2b02      	cmp	r3, #2
 8000bb8:	d9f1      	bls.n	8000b9e <cal_storage_set_defaults+0x4e>
  }

  block->dps310.reference_pressure_pa = 101325.0f;
 8000bba:	687b      	ldr	r3, [r7, #4]
 8000bbc:	4a0b      	ldr	r2, [pc, #44]	; (8000bec <cal_storage_set_defaults+0x9c>)
 8000bbe:	665a      	str	r2, [r3, #100]	; 0x64
  block->dps310.reference_altitude_m = 0.0f;
 8000bc0:	687b      	ldr	r3, [r7, #4]
 8000bc2:	f04f 0200 	mov.w	r2, #0
 8000bc6:	669a      	str	r2, [r3, #104]	; 0x68
  block->crc32 = cal_storage_crc32(block, cal_storage_crc_length());
 8000bc8:	f000 f894 	bl	8000cf4 <cal_storage_crc_length>
 8000bcc:	4603      	mov	r3, r0
 8000bce:	4619      	mov	r1, r3
 8000bd0:	6878      	ldr	r0, [r7, #4]
 8000bd2:	f000 f843 	bl	8000c5c <cal_storage_crc32>
 8000bd6:	4602      	mov	r2, r0
 8000bd8:	687b      	ldr	r3, [r7, #4]
 8000bda:	f8c3 20ac 	str.w	r2, [r3, #172]	; 0xac
 8000bde:	e000      	b.n	8000be2 <cal_storage_set_defaults+0x92>
    return;
 8000be0:	bf00      	nop
}
 8000be2:	3710      	adds	r7, #16
 8000be4:	46bd      	mov	sp, r7
 8000be6:	bd80      	pop	{r7, pc}
 8000be8:	4d4f5543 	.word	0x4d4f5543
 8000bec:	47c5e680 	.word	0x47c5e680

08000bf0 <cal_storage_is_valid>:

uint8_t cal_storage_is_valid(const cal_storage_block_t *block)
{
 8000bf0:	b580      	push	{r7, lr}
 8000bf2:	b084      	sub	sp, #16
 8000bf4:	af00      	add	r7, sp, #0
 8000bf6:	6078      	str	r0, [r7, #4]
  uint32_t expected_crc;

  if (block == NULL)
 8000bf8:	687b      	ldr	r3, [r7, #4]
 8000bfa:	2b00      	cmp	r3, #0
 8000bfc:	d101      	bne.n	8000c02 <cal_storage_is_valid+0x12>
  {
    return 0U;
 8000bfe:	2300      	movs	r3, #0
 8000c00:	e025      	b.n	8000c4e <cal_storage_is_valid+0x5e>
  }

  if ((block->magic != CAL_STORAGE_MAGIC) ||
 8000c02:	687b      	ldr	r3, [r7, #4]
 8000c04:	681b      	ldr	r3, [r3, #0]
 8000c06:	4a14      	ldr	r2, [pc, #80]	; (8000c58 <cal_storage_is_valid+0x68>)
 8000c08:	4293      	cmp	r3, r2
 8000c0a:	d10d      	bne.n	8000c28 <cal_storage_is_valid+0x38>
      (block->version != CAL_STORAGE_VERSION) ||
 8000c0c:	687b      	ldr	r3, [r7, #4]
 8000c0e:	889b      	ldrh	r3, [r3, #4]
  if ((block->magic != CAL_STORAGE_MAGIC) ||
 8000c10:	2b01      	cmp	r3, #1
 8000c12:	d109      	bne.n	8000c28 <cal_storage_is_valid+0x38>
      (block->length != sizeof(*block)) ||
 8000c14:	687b      	ldr	r3, [r7, #4]
 8000c16:	88db      	ldrh	r3, [r3, #6]
      (block->version != CAL_STORAGE_VERSION) ||
 8000c18:	2bb0      	cmp	r3, #176	; 0xb0
 8000c1a:	d105      	bne.n	8000c28 <cal_storage_is_valid+0x38>
      ((block->flags & CAL_STORAGE_VALID_FLAG) == 0U))
 8000c1c:	687b      	ldr	r3, [r7, #4]
 8000c1e:	68db      	ldr	r3, [r3, #12]
 8000c20:	f003 0301 	and.w	r3, r3, #1
      (block->length != sizeof(*block)) ||
 8000c24:	2b00      	cmp	r3, #0
 8000c26:	d101      	bne.n	8000c2c <cal_storage_is_valid+0x3c>
  {
    return 0U;
 8000c28:	2300      	movs	r3, #0
 8000c2a:	e010      	b.n	8000c4e <cal_storage_is_valid+0x5e>
  }

  expected_crc = cal_storage_crc32(block, cal_storage_crc_length());
 8000c2c:	f000 f862 	bl	8000cf4 <cal_storage_crc_length>
 8000c30:	4603      	mov	r3, r0
 8000c32:	4619      	mov	r1, r3
 8000c34:	6878      	ldr	r0, [r7, #4]
 8000c36:	f000 f811 	bl	8000c5c <cal_storage_crc32>
 8000c3a:	60f8      	str	r0, [r7, #12]
  return (expected_crc == block->crc32) ? 1U : 0U;
 8000c3c:	687b      	ldr	r3, [r7, #4]
 8000c3e:	f8d3 30ac 	ldr.w	r3, [r3, #172]	; 0xac
 8000c42:	68fa      	ldr	r2, [r7, #12]
 8000c44:	429a      	cmp	r2, r3
 8000c46:	d101      	bne.n	8000c4c <cal_storage_is_valid+0x5c>
 8000c48:	2301      	movs	r3, #1
 8000c4a:	e000      	b.n	8000c4e <cal_storage_is_valid+0x5e>
 8000c4c:	2300      	movs	r3, #0
}
 8000c4e:	4618      	mov	r0, r3
 8000c50:	3710      	adds	r7, #16
 8000c52:	46bd      	mov	sp, r7
 8000c54:	bd80      	pop	{r7, pc}
 8000c56:	bf00      	nop
 8000c58:	4d4f5543 	.word	0x4d4f5543

08000c5c <cal_storage_crc32>:

uint32_t cal_storage_crc32(const void *data, uint32_t length)
{
 8000c5c:	b480      	push	{r7}
 8000c5e:	b087      	sub	sp, #28
 8000c60:	af00      	add	r7, sp, #0
 8000c62:	6078      	str	r0, [r7, #4]
 8000c64:	6039      	str	r1, [r7, #0]
  const uint8_t *bytes = (const uint8_t *)data;
 8000c66:	687b      	ldr	r3, [r7, #4]
 8000c68:	60bb      	str	r3, [r7, #8]
  uint32_t crc = CAL_STORAGE_CRC_INIT;
 8000c6a:	f04f 33ff 	mov.w	r3, #4294967295
 8000c6e:	617b      	str	r3, [r7, #20]
  uint32_t i;
  uint8_t bit;

  if (data == NULL)
 8000c70:	687b      	ldr	r3, [r7, #4]
 8000c72:	2b00      	cmp	r3, #0
 8000c74:	d101      	bne.n	8000c7a <cal_storage_crc32+0x1e>
  {
    return 0U;
 8000c76:	2300      	movs	r3, #0
 8000c78:	e02a      	b.n	8000cd0 <cal_storage_crc32+0x74>
  }

  for (i = 0U; i < length; i++)
 8000c7a:	2300      	movs	r3, #0
 8000c7c:	613b      	str	r3, [r7, #16]
 8000c7e:	e021      	b.n	8000cc4 <cal_storage_crc32+0x68>
  {
    crc ^= bytes[i];
 8000c80:	68ba      	ldr	r2, [r7, #8]
 8000c82:	693b      	ldr	r3, [r7, #16]
 8000c84:	4413      	add	r3, r2
 8000c86:	781b      	ldrb	r3, [r3, #0]
 8000c88:	461a      	mov	r2, r3
 8000c8a:	697b      	ldr	r3, [r7, #20]
 8000c8c:	4053      	eors	r3, r2
 8000c8e:	617b      	str	r3, [r7, #20]
    for (bit = 0U; bit < 8U; bit++)
 8000c90:	2300      	movs	r3, #0
 8000c92:	73fb      	strb	r3, [r7, #15]
 8000c94:	e010      	b.n	8000cb8 <cal_storage_crc32+0x5c>
    {
      if ((crc & 1U) != 0U)
 8000c96:	697b      	ldr	r3, [r7, #20]
 8000c98:	f003 0301 	and.w	r3, r3, #1
 8000c9c:	2b00      	cmp	r3, #0
 8000c9e:	d005      	beq.n	8000cac <cal_storage_crc32+0x50>
      {
        crc = (crc >> 1) ^ CAL_STORAGE_CRC_POLY;
 8000ca0:	697b      	ldr	r3, [r7, #20]
 8000ca2:	085a      	lsrs	r2, r3, #1
 8000ca4:	4b0d      	ldr	r3, [pc, #52]	; (8000cdc <cal_storage_crc32+0x80>)
 8000ca6:	4053      	eors	r3, r2
 8000ca8:	617b      	str	r3, [r7, #20]
 8000caa:	e002      	b.n	8000cb2 <cal_storage_crc32+0x56>
      }
      else
      {
        crc >>= 1;
 8000cac:	697b      	ldr	r3, [r7, #20]
 8000cae:	085b      	lsrs	r3, r3, #1
 8000cb0:	617b      	str	r3, [r7, #20]
    for (bit = 0U; bit < 8U; bit++)
 8000cb2:	7bfb      	ldrb	r3, [r7, #15]
 8000cb4:	3301      	adds	r3, #1
 8000cb6:	73fb      	strb	r3, [r7, #15]
 8000cb8:	7bfb      	ldrb	r3, [r7, #15]
 8000cba:	2b07      	cmp	r3, #7
 8000cbc:	d9eb      	bls.n	8000c96 <cal_storage_crc32+0x3a>
  for (i = 0U; i < length; i++)
 8000cbe:	693b      	ldr	r3, [r7, #16]
 8000cc0:	3301      	adds	r3, #1
 8000cc2:	613b      	str	r3, [r7, #16]
 8000cc4:	693a      	ldr	r2, [r7, #16]
 8000cc6:	683b      	ldr	r3, [r7, #0]
 8000cc8:	429a      	cmp	r2, r3
 8000cca:	d3d9      	bcc.n	8000c80 <cal_storage_crc32+0x24>
      }
    }
  }

  return ~crc;
 8000ccc:	697b      	ldr	r3, [r7, #20]
 8000cce:	43db      	mvns	r3, r3
}
 8000cd0:	4618      	mov	r0, r3
 8000cd2:	371c      	adds	r7, #28
 8000cd4:	46bd      	mov	sp, r7
 8000cd6:	f85d 7b04 	ldr.w	r7, [sp], #4
 8000cda:	4770      	bx	lr
 8000cdc:	edb88320 	.word	0xedb88320

08000ce0 <cal_storage_flash_block>:

static const cal_storage_block_t *cal_storage_flash_block(void)
{
 8000ce0:	b480      	push	{r7}
 8000ce2:	af00      	add	r7, sp, #0
  return (const cal_storage_block_t *)CAL_STORAGE_FLASH_ADDR;
 8000ce4:	4b02      	ldr	r3, [pc, #8]	; (8000cf0 <cal_storage_flash_block+0x10>)
}
 8000ce6:	4618      	mov	r0, r3
 8000ce8:	46bd      	mov	sp, r7
 8000cea:	f85d 7b04 	ldr.w	r7, [sp], #4
 8000cee:	4770      	bx	lr
 8000cf0:	0801f800 	.word	0x0801f800

08000cf4 <cal_storage_crc_length>:

static uint32_t cal_storage_crc_length(void)
{
 8000cf4:	b480      	push	{r7}
 8000cf6:	af00      	add	r7, sp, #0
  return (uint32_t)offsetof(cal_storage_block_t, crc32);
 8000cf8:	23ac      	movs	r3, #172	; 0xac
}
 8000cfa:	4618      	mov	r0, r3
 8000cfc:	46bd      	mov	sp, r7
 8000cfe:	f85d 7b04 	ldr.w	r7, [sp], #4
 8000d02:	4770      	bx	lr

08000d04 <cal_storage_program_block>:

static cal_storage_status_t cal_storage_program_block(const cal_storage_block_t *block)
{
 8000d04:	b580      	push	{r7, lr}
 8000d06:	b08a      	sub	sp, #40	; 0x28
 8000d08:	af00      	add	r7, sp, #0
 8000d0a:	6078      	str	r0, [r7, #4]
  const uint8_t *src = (const uint8_t *)block;
 8000d0c:	687b      	ldr	r3, [r7, #4]
 8000d0e:	61fb      	str	r3, [r7, #28]
  uint32_t address = CAL_STORAGE_FLASH_ADDR;
 8000d10:	4b1d      	ldr	r3, [pc, #116]	; (8000d88 <cal_storage_program_block+0x84>)
 8000d12:	627b      	str	r3, [r7, #36]	; 0x24
  uint32_t words = (uint32_t)((sizeof(*block) + sizeof(uint64_t) - 1U) / sizeof(uint64_t));
 8000d14:	2316      	movs	r3, #22
 8000d16:	61bb      	str	r3, [r7, #24]
  uint32_t i;

  for (i = 0U; i < words; i++)
 8000d18:	2300      	movs	r3, #0
 8000d1a:	623b      	str	r3, [r7, #32]
 8000d1c:	e02a      	b.n	8000d74 <cal_storage_program_block+0x70>
  {
    uint64_t data = 0xFFFFFFFFFFFFFFFFULL;
 8000d1e:	f04f 32ff 	mov.w	r2, #4294967295
 8000d22:	f04f 33ff 	mov.w	r3, #4294967295
 8000d26:	e9c7 2302 	strd	r2, r3, [r7, #8]
    uint32_t remaining = (uint32_t)sizeof(*block) - (i * (uint32_t)sizeof(uint64_t));
 8000d2a:	6a3b      	ldr	r3, [r7, #32]
 8000d2c:	f1c3 0316 	rsb	r3, r3, #22
 8000d30:	00db      	lsls	r3, r3, #3
 8000d32:	617b      	str	r3, [r7, #20]
    uint32_t chunk = (remaining >= sizeof(uint64_t)) ? (uint32_t)sizeof(uint64_t) : remaining;
 8000d34:	697b      	ldr	r3, [r7, #20]
 8000d36:	2b08      	cmp	r3, #8
 8000d38:	bf28      	it	cs
 8000d3a:	2308      	movcs	r3, #8
 8000d3c:	613b      	str	r3, [r7, #16]

    memcpy(&data, &src[i * sizeof(uint64_t)], chunk);
 8000d3e:	6a3b      	ldr	r3, [r7, #32]
 8000d40:	00db      	lsls	r3, r3, #3
 8000d42:	69fa      	ldr	r2, [r7, #28]
 8000d44:	18d1      	adds	r1, r2, r3
 8000d46:	f107 0308 	add.w	r3, r7, #8
 8000d4a:	693a      	ldr	r2, [r7, #16]
 8000d4c:	4618      	mov	r0, r3
 8000d4e:	f00c fa15 	bl	800d17c <memcpy>

    if (HAL_FLASH_Program(FLASH_TYPEPROGRAM_DOUBLEWORD, address, data) != HAL_OK)
 8000d52:	e9d7 2302 	ldrd	r2, r3, [r7, #8]
 8000d56:	6a79      	ldr	r1, [r7, #36]	; 0x24
 8000d58:	2000      	movs	r0, #0
 8000d5a:	f002 fb43 	bl	80033e4 <HAL_FLASH_Program>
 8000d5e:	4603      	mov	r3, r0
 8000d60:	2b00      	cmp	r3, #0
 8000d62:	d001      	beq.n	8000d68 <cal_storage_program_block+0x64>
    {
      return CAL_STORAGE_ERROR_FLASH;
 8000d64:	2304      	movs	r3, #4
 8000d66:	e00a      	b.n	8000d7e <cal_storage_program_block+0x7a>
    }
    address += sizeof(uint64_t);
 8000d68:	6a7b      	ldr	r3, [r7, #36]	; 0x24
 8000d6a:	3308      	adds	r3, #8
 8000d6c:	627b      	str	r3, [r7, #36]	; 0x24
  for (i = 0U; i < words; i++)
 8000d6e:	6a3b      	ldr	r3, [r7, #32]
 8000d70:	3301      	adds	r3, #1
 8000d72:	623b      	str	r3, [r7, #32]
 8000d74:	6a3a      	ldr	r2, [r7, #32]
 8000d76:	69bb      	ldr	r3, [r7, #24]
 8000d78:	429a      	cmp	r2, r3
 8000d7a:	d3d0      	bcc.n	8000d1e <cal_storage_program_block+0x1a>
  }

  return CAL_STORAGE_OK;
 8000d7c:	2300      	movs	r3, #0
}
 8000d7e:	4618      	mov	r0, r3
 8000d80:	3728      	adds	r7, #40	; 0x28
 8000d82:	46bd      	mov	sp, r7
 8000d84:	bd80      	pop	{r7, pc}
 8000d86:	bf00      	nop
 8000d88:	0801f800 	.word	0x0801f800

08000d8c <dps310_init>:

dps310_status_t dps310_init(dps310_t *dev,
                            SPI_HandleTypeDef *hspi,
                            GPIO_TypeDef *cs_port,
                            uint16_t cs_pin)
{
 8000d8c:	b580      	push	{r7, lr}
 8000d8e:	b084      	sub	sp, #16
 8000d90:	af00      	add	r7, sp, #0
 8000d92:	60f8      	str	r0, [r7, #12]
 8000d94:	60b9      	str	r1, [r7, #8]
 8000d96:	607a      	str	r2, [r7, #4]
 8000d98:	807b      	strh	r3, [r7, #2]
  if ((dev == NULL) || (hspi == NULL) || (cs_port == NULL))
 8000d9a:	68fb      	ldr	r3, [r7, #12]
 8000d9c:	2b00      	cmp	r3, #0
 8000d9e:	d005      	beq.n	8000dac <dps310_init+0x20>
 8000da0:	68bb      	ldr	r3, [r7, #8]
 8000da2:	2b00      	cmp	r3, #0
 8000da4:	d002      	beq.n	8000dac <dps310_init+0x20>
 8000da6:	687b      	ldr	r3, [r7, #4]
 8000da8:	2b00      	cmp	r3, #0
 8000daa:	d101      	bne.n	8000db0 <dps310_init+0x24>
  {
    return DPS310_ERROR_INVALID_ARG;
 8000dac:	2302      	movs	r3, #2
 8000dae:	e017      	b.n	8000de0 <dps310_init+0x54>
  }

  dev->hspi = hspi;
 8000db0:	68fb      	ldr	r3, [r7, #12]
 8000db2:	68ba      	ldr	r2, [r7, #8]
 8000db4:	601a      	str	r2, [r3, #0]
  dev->cs_port = cs_port;
 8000db6:	68fb      	ldr	r3, [r7, #12]
 8000db8:	687a      	ldr	r2, [r7, #4]
 8000dba:	605a      	str	r2, [r3, #4]
  dev->cs_pin = cs_pin;
 8000dbc:	68fb      	ldr	r3, [r7, #12]
 8000dbe:	887a      	ldrh	r2, [r7, #2]
 8000dc0:	811a      	strh	r2, [r3, #8]
  dev->timeout_ms = DPS310_DEFAULT_TIMEOUT_MS;
 8000dc2:	68fb      	ldr	r3, [r7, #12]
 8000dc4:	2264      	movs	r2, #100	; 0x64
 8000dc6:	60da      	str	r2, [r3, #12]

  HAL_GPIO_WritePin(dev->cs_port, dev->cs_pin, GPIO_PIN_SET);
 8000dc8:	68fb      	ldr	r3, [r7, #12]
 8000dca:	6858      	ldr	r0, [r3, #4]
 8000dcc:	68fb      	ldr	r3, [r7, #12]
 8000dce:	891b      	ldrh	r3, [r3, #8]
 8000dd0:	2201      	movs	r2, #1
 8000dd2:	4619      	mov	r1, r3
 8000dd4:	f002 ff04 	bl	8003be0 <HAL_GPIO_WritePin>

  return dps310_check_product_id(dev);
 8000dd8:	68f8      	ldr	r0, [r7, #12]
 8000dda:	f000 f814 	bl	8000e06 <dps310_check_product_id>
 8000dde:	4603      	mov	r3, r0
}
 8000de0:	4618      	mov	r0, r3
 8000de2:	3710      	adds	r7, #16
 8000de4:	46bd      	mov	sp, r7
 8000de6:	bd80      	pop	{r7, pc}

08000de8 <dps310_read_product_id>:

dps310_status_t dps310_read_product_id(dps310_t *dev, uint8_t *product_id)
{
 8000de8:	b580      	push	{r7, lr}
 8000dea:	b082      	sub	sp, #8
 8000dec:	af00      	add	r7, sp, #0
 8000dee:	6078      	str	r0, [r7, #4]
 8000df0:	6039      	str	r1, [r7, #0]
  return dps310_read_register(dev, DPS310_REG_PRODUCT_ID, product_id);
 8000df2:	683a      	ldr	r2, [r7, #0]
 8000df4:	210d      	movs	r1, #13
 8000df6:	6878      	ldr	r0, [r7, #4]
 8000df8:	f000 fa50 	bl	800129c <dps310_read_register>
 8000dfc:	4603      	mov	r3, r0
}
 8000dfe:	4618      	mov	r0, r3
 8000e00:	3708      	adds	r7, #8
 8000e02:	46bd      	mov	sp, r7
 8000e04:	bd80      	pop	{r7, pc}

08000e06 <dps310_check_product_id>:

dps310_status_t dps310_check_product_id(dps310_t *dev)
{
 8000e06:	b580      	push	{r7, lr}
 8000e08:	b084      	sub	sp, #16
 8000e0a:	af00      	add	r7, sp, #0
 8000e0c:	6078      	str	r0, [r7, #4]
  uint8_t product_id;
  dps310_status_t status;

  status = dps310_read_product_id(dev, &product_id);
 8000e0e:	f107 030e 	add.w	r3, r7, #14
 8000e12:	4619      	mov	r1, r3
 8000e14:	6878      	ldr	r0, [r7, #4]
 8000e16:	f7ff ffe7 	bl	8000de8 <dps310_read_product_id>
 8000e1a:	4603      	mov	r3, r0
 8000e1c:	73fb      	strb	r3, [r7, #15]
  if (status != DPS310_OK)
 8000e1e:	7bfb      	ldrb	r3, [r7, #15]
 8000e20:	2b00      	cmp	r3, #0
 8000e22:	d001      	beq.n	8000e28 <dps310_check_product_id+0x22>
  {
    return status;
 8000e24:	7bfb      	ldrb	r3, [r7, #15]
 8000e26:	e007      	b.n	8000e38 <dps310_check_product_id+0x32>
  }

  if ((product_id & DPS310_PRODUCT_ID_MASK) != DPS310_PRODUCT_ID_REG_EXPECTED)
 8000e28:	7bbb      	ldrb	r3, [r7, #14]
 8000e2a:	f003 03f0 	and.w	r3, r3, #240	; 0xf0
 8000e2e:	2b10      	cmp	r3, #16
 8000e30:	d001      	beq.n	8000e36 <dps310_check_product_id+0x30>
  {
    return DPS310_ERROR_PRODUCT_ID;
 8000e32:	2304      	movs	r3, #4
 8000e34:	e000      	b.n	8000e38 <dps310_check_product_id+0x32>
  }

  return DPS310_OK;
 8000e36:	2300      	movs	r3, #0
}
 8000e38:	4618      	mov	r0, r3
 8000e3a:	3710      	adds	r7, #16
 8000e3c:	46bd      	mov	sp, r7
 8000e3e:	bd80      	pop	{r7, pc}

08000e40 <dps310_read_coefficients_raw>:

dps310_status_t dps310_read_coefficients_raw(dps310_t *dev, dps310_coefficients_raw_t *coefficients)
{
 8000e40:	b580      	push	{r7, lr}
 8000e42:	b082      	sub	sp, #8
 8000e44:	af00      	add	r7, sp, #0
 8000e46:	6078      	str	r0, [r7, #4]
 8000e48:	6039      	str	r1, [r7, #0]
  if (coefficients == NULL)
 8000e4a:	683b      	ldr	r3, [r7, #0]
 8000e4c:	2b00      	cmp	r3, #0
 8000e4e:	d101      	bne.n	8000e54 <dps310_read_coefficients_raw+0x14>
  {
    return DPS310_ERROR_INVALID_ARG;
 8000e50:	2302      	movs	r3, #2
 8000e52:	e006      	b.n	8000e62 <dps310_read_coefficients_raw+0x22>
  }

  return dps310_read_registers(dev, DPS310_REG_COEF_BASE, coefficients->data, DPS310_COEFFICIENT_LENGTH);
 8000e54:	683a      	ldr	r2, [r7, #0]
 8000e56:	2312      	movs	r3, #18
 8000e58:	2110      	movs	r1, #16
 8000e5a:	6878      	ldr	r0, [r7, #4]
 8000e5c:	f000 fa35 	bl	80012ca <dps310_read_registers>
 8000e60:	4603      	mov	r3, r0
}
 8000e62:	4618      	mov	r0, r3
 8000e64:	3708      	adds	r7, #8
 8000e66:	46bd      	mov	sp, r7
 8000e68:	bd80      	pop	{r7, pc}

08000e6a <dps310_read_calibration>:

dps310_status_t dps310_read_calibration(dps310_t *dev, dps310_calibration_t *calibration)
{
 8000e6a:	b580      	push	{r7, lr}
 8000e6c:	b088      	sub	sp, #32
 8000e6e:	af00      	add	r7, sp, #0
 8000e70:	6078      	str	r0, [r7, #4]
 8000e72:	6039      	str	r1, [r7, #0]
  dps310_coefficients_raw_t raw;
  dps310_status_t status;

  if (calibration == NULL)
 8000e74:	683b      	ldr	r3, [r7, #0]
 8000e76:	2b00      	cmp	r3, #0
 8000e78:	d101      	bne.n	8000e7e <dps310_read_calibration+0x14>
  {
    return DPS310_ERROR_INVALID_ARG;
 8000e7a:	2302      	movs	r3, #2
 8000e7c:	e07b      	b.n	8000f76 <dps310_read_calibration+0x10c>
  }

  status = dps310_read_coefficients_raw(dev, &raw);
 8000e7e:	f107 030c 	add.w	r3, r7, #12
 8000e82:	4619      	mov	r1, r3
 8000e84:	6878      	ldr	r0, [r7, #4]
 8000e86:	f7ff ffdb 	bl	8000e40 <dps310_read_coefficients_raw>
 8000e8a:	4603      	mov	r3, r0
 8000e8c:	77fb      	strb	r3, [r7, #31]
  if (status != DPS310_OK)
 8000e8e:	7ffb      	ldrb	r3, [r7, #31]
 8000e90:	2b00      	cmp	r3, #0
 8000e92:	d001      	beq.n	8000e98 <dps310_read_calibration+0x2e>
  {
    return status;
 8000e94:	7ffb      	ldrb	r3, [r7, #31]
 8000e96:	e06e      	b.n	8000f76 <dps310_read_calibration+0x10c>
  }

  calibration->c0 = dps310_sign_extend_12(((uint16_t)raw.data[0] << 4) |
 8000e98:	7b3b      	ldrb	r3, [r7, #12]
 8000e9a:	011b      	lsls	r3, r3, #4
 8000e9c:	b21a      	sxth	r2, r3
                                          ((uint16_t)raw.data[1] >> 4));
 8000e9e:	7b7b      	ldrb	r3, [r7, #13]
  calibration->c0 = dps310_sign_extend_12(((uint16_t)raw.data[0] << 4) |
 8000ea0:	091b      	lsrs	r3, r3, #4
 8000ea2:	b2db      	uxtb	r3, r3
 8000ea4:	b21b      	sxth	r3, r3
 8000ea6:	4313      	orrs	r3, r2
 8000ea8:	b21b      	sxth	r3, r3
 8000eaa:	b29b      	uxth	r3, r3
 8000eac:	4618      	mov	r0, r3
 8000eae:	f000 fa65 	bl	800137c <dps310_sign_extend_12>
 8000eb2:	4603      	mov	r3, r0
 8000eb4:	461a      	mov	r2, r3
 8000eb6:	683b      	ldr	r3, [r7, #0]
 8000eb8:	801a      	strh	r2, [r3, #0]
  calibration->c1 = dps310_sign_extend_12((((uint16_t)raw.data[1] & 0x0FU) << 8) |
 8000eba:	7b7b      	ldrb	r3, [r7, #13]
 8000ebc:	b29b      	uxth	r3, r3
 8000ebe:	021b      	lsls	r3, r3, #8
 8000ec0:	b29b      	uxth	r3, r3
 8000ec2:	f403 6370 	and.w	r3, r3, #3840	; 0xf00
 8000ec6:	b29a      	uxth	r2, r3
                                          raw.data[2]);
 8000ec8:	7bbb      	ldrb	r3, [r7, #14]
 8000eca:	b29b      	uxth	r3, r3
  calibration->c1 = dps310_sign_extend_12((((uint16_t)raw.data[1] & 0x0FU) << 8) |
 8000ecc:	4313      	orrs	r3, r2
 8000ece:	b29b      	uxth	r3, r3
 8000ed0:	4618      	mov	r0, r3
 8000ed2:	f000 fa53 	bl	800137c <dps310_sign_extend_12>
 8000ed6:	4603      	mov	r3, r0
 8000ed8:	461a      	mov	r2, r3
 8000eda:	683b      	ldr	r3, [r7, #0]
 8000edc:	805a      	strh	r2, [r3, #2]
  calibration->c00 = dps310_sign_extend_20(((uint32_t)raw.data[3] << 12) |
 8000ede:	7bfb      	ldrb	r3, [r7, #15]
 8000ee0:	031a      	lsls	r2, r3, #12
                                           ((uint32_t)raw.data[4] << 4) |
 8000ee2:	7c3b      	ldrb	r3, [r7, #16]
 8000ee4:	011b      	lsls	r3, r3, #4
  calibration->c00 = dps310_sign_extend_20(((uint32_t)raw.data[3] << 12) |
 8000ee6:	4313      	orrs	r3, r2
                                           ((uint32_t)raw.data[5] >> 4));
 8000ee8:	7c7a      	ldrb	r2, [r7, #17]
 8000eea:	0912      	lsrs	r2, r2, #4
 8000eec:	b2d2      	uxtb	r2, r2
  calibration->c00 = dps310_sign_extend_20(((uint32_t)raw.data[3] << 12) |
 8000eee:	4313      	orrs	r3, r2
 8000ef0:	4618      	mov	r0, r3
 8000ef2:	f000 fa5b 	bl	80013ac <dps310_sign_extend_20>
 8000ef6:	4602      	mov	r2, r0
 8000ef8:	683b      	ldr	r3, [r7, #0]
 8000efa:	605a      	str	r2, [r3, #4]
  calibration->c10 = dps310_sign_extend_20((((uint32_t)raw.data[5] & 0x0FU) << 16) |
 8000efc:	7c7b      	ldrb	r3, [r7, #17]
 8000efe:	041b      	lsls	r3, r3, #16
 8000f00:	f403 2270 	and.w	r2, r3, #983040	; 0xf0000
                                           ((uint32_t)raw.data[6] << 8) |
 8000f04:	7cbb      	ldrb	r3, [r7, #18]
 8000f06:	021b      	lsls	r3, r3, #8
  calibration->c10 = dps310_sign_extend_20((((uint32_t)raw.data[5] & 0x0FU) << 16) |
 8000f08:	4313      	orrs	r3, r2
                                           raw.data[7]);
 8000f0a:	7cfa      	ldrb	r2, [r7, #19]
  calibration->c10 = dps310_sign_extend_20((((uint32_t)raw.data[5] & 0x0FU) << 16) |
 8000f0c:	4313      	orrs	r3, r2
 8000f0e:	4618      	mov	r0, r3
 8000f10:	f000 fa4c 	bl	80013ac <dps310_sign_extend_20>
 8000f14:	4602      	mov	r2, r0
 8000f16:	683b      	ldr	r3, [r7, #0]
 8000f18:	609a      	str	r2, [r3, #8]
  calibration->c01 = (int16_t)(((uint16_t)raw.data[8] << 8) | raw.data[9]);
 8000f1a:	7d3b      	ldrb	r3, [r7, #20]
 8000f1c:	021b      	lsls	r3, r3, #8
 8000f1e:	b21a      	sxth	r2, r3
 8000f20:	7d7b      	ldrb	r3, [r7, #21]
 8000f22:	b21b      	sxth	r3, r3
 8000f24:	4313      	orrs	r3, r2
 8000f26:	b21a      	sxth	r2, r3
 8000f28:	683b      	ldr	r3, [r7, #0]
 8000f2a:	819a      	strh	r2, [r3, #12]
  calibration->c11 = (int16_t)(((uint16_t)raw.data[10] << 8) | raw.data[11]);
 8000f2c:	7dbb      	ldrb	r3, [r7, #22]
 8000f2e:	021b      	lsls	r3, r3, #8
 8000f30:	b21a      	sxth	r2, r3
 8000f32:	7dfb      	ldrb	r3, [r7, #23]
 8000f34:	b21b      	sxth	r3, r3
 8000f36:	4313      	orrs	r3, r2
 8000f38:	b21a      	sxth	r2, r3
 8000f3a:	683b      	ldr	r3, [r7, #0]
 8000f3c:	81da      	strh	r2, [r3, #14]
  calibration->c20 = (int16_t)(((uint16_t)raw.data[12] << 8) | raw.data[13]);
 8000f3e:	7e3b      	ldrb	r3, [r7, #24]
 8000f40:	021b      	lsls	r3, r3, #8
 8000f42:	b21a      	sxth	r2, r3
 8000f44:	7e7b      	ldrb	r3, [r7, #25]
 8000f46:	b21b      	sxth	r3, r3
 8000f48:	4313      	orrs	r3, r2
 8000f4a:	b21a      	sxth	r2, r3
 8000f4c:	683b      	ldr	r3, [r7, #0]
 8000f4e:	821a      	strh	r2, [r3, #16]
  calibration->c21 = (int16_t)(((uint16_t)raw.data[14] << 8) | raw.data[15]);
 8000f50:	7ebb      	ldrb	r3, [r7, #26]
 8000f52:	021b      	lsls	r3, r3, #8
 8000f54:	b21a      	sxth	r2, r3
 8000f56:	7efb      	ldrb	r3, [r7, #27]
 8000f58:	b21b      	sxth	r3, r3
 8000f5a:	4313      	orrs	r3, r2
 8000f5c:	b21a      	sxth	r2, r3
 8000f5e:	683b      	ldr	r3, [r7, #0]
 8000f60:	825a      	strh	r2, [r3, #18]
  calibration->c30 = (int16_t)(((uint16_t)raw.data[16] << 8) | raw.data[17]);
 8000f62:	7f3b      	ldrb	r3, [r7, #28]
 8000f64:	021b      	lsls	r3, r3, #8
 8000f66:	b21a      	sxth	r2, r3
 8000f68:	7f7b      	ldrb	r3, [r7, #29]
 8000f6a:	b21b      	sxth	r3, r3
 8000f6c:	4313      	orrs	r3, r2
 8000f6e:	b21a      	sxth	r2, r3
 8000f70:	683b      	ldr	r3, [r7, #0]
 8000f72:	829a      	strh	r2, [r3, #20]

  return DPS310_OK;
 8000f74:	2300      	movs	r3, #0
}
 8000f76:	4618      	mov	r0, r3
 8000f78:	3720      	adds	r7, #32
 8000f7a:	46bd      	mov	sp, r7
 8000f7c:	bd80      	pop	{r7, pc}

08000f7e <dps310_configure_continuous>:

dps310_status_t dps310_configure_continuous(dps310_t *dev,
                                            dps310_oversampling_t pressure_oversampling,
                                            dps310_oversampling_t temperature_oversampling)
{
 8000f7e:	b580      	push	{r7, lr}
 8000f80:	b084      	sub	sp, #16
 8000f82:	af00      	add	r7, sp, #0
 8000f84:	6078      	str	r0, [r7, #4]
 8000f86:	460b      	mov	r3, r1
 8000f88:	70fb      	strb	r3, [r7, #3]
 8000f8a:	4613      	mov	r3, r2
 8000f8c:	70bb      	strb	r3, [r7, #2]
  dps310_status_t status;
  uint8_t coefficient_source;
  uint8_t pressure_cfg;
  uint8_t temperature_cfg;

  if ((pressure_oversampling > DPS310_OVERSAMPLING_128) ||
 8000f8e:	78fb      	ldrb	r3, [r7, #3]
 8000f90:	2b07      	cmp	r3, #7
 8000f92:	d802      	bhi.n	8000f9a <dps310_configure_continuous+0x1c>
 8000f94:	78bb      	ldrb	r3, [r7, #2]
 8000f96:	2b07      	cmp	r3, #7
 8000f98:	d901      	bls.n	8000f9e <dps310_configure_continuous+0x20>
      (temperature_oversampling > DPS310_OVERSAMPLING_128))
  {
    return DPS310_ERROR_INVALID_ARG;
 8000f9a:	2302      	movs	r3, #2
 8000f9c:	e036      	b.n	800100c <dps310_configure_continuous+0x8e>
  }

  pressure_cfg = (uint8_t)pressure_oversampling;
 8000f9e:	78fb      	ldrb	r3, [r7, #3]
 8000fa0:	73fb      	strb	r3, [r7, #15]

  status = dps310_read_register(dev, DPS310_REG_COEF_SRCE, &coefficient_source);
 8000fa2:	f107 030c 	add.w	r3, r7, #12
 8000fa6:	461a      	mov	r2, r3
 8000fa8:	2128      	movs	r1, #40	; 0x28
 8000faa:	6878      	ldr	r0, [r7, #4]
 8000fac:	f000 f976 	bl	800129c <dps310_read_register>
 8000fb0:	4603      	mov	r3, r0
 8000fb2:	73bb      	strb	r3, [r7, #14]
  if (status != DPS310_OK)
 8000fb4:	7bbb      	ldrb	r3, [r7, #14]
 8000fb6:	2b00      	cmp	r3, #0
 8000fb8:	d001      	beq.n	8000fbe <dps310_configure_continuous+0x40>
  {
    return status;
 8000fba:	7bbb      	ldrb	r3, [r7, #14]
 8000fbc:	e026      	b.n	800100c <dps310_configure_continuous+0x8e>
  }

  temperature_cfg = (uint8_t)((coefficient_source & DPS310_TMP_COEF_SRCE_MASK) |
 8000fbe:	7b3b      	ldrb	r3, [r7, #12]
 8000fc0:	f023 037f 	bic.w	r3, r3, #127	; 0x7f
 8000fc4:	b2da      	uxtb	r2, r3
 8000fc6:	78bb      	ldrb	r3, [r7, #2]
 8000fc8:	4313      	orrs	r3, r2
 8000fca:	737b      	strb	r3, [r7, #13]
                              (uint8_t)temperature_oversampling);

  status = dps310_write_register(dev, DPS310_REG_PRS_CFG, pressure_cfg);
 8000fcc:	7bfb      	ldrb	r3, [r7, #15]
 8000fce:	461a      	mov	r2, r3
 8000fd0:	2106      	movs	r1, #6
 8000fd2:	6878      	ldr	r0, [r7, #4]
 8000fd4:	f000 f942 	bl	800125c <dps310_write_register>
 8000fd8:	4603      	mov	r3, r0
 8000fda:	73bb      	strb	r3, [r7, #14]
  if (status != DPS310_OK)
 8000fdc:	7bbb      	ldrb	r3, [r7, #14]
 8000fde:	2b00      	cmp	r3, #0
 8000fe0:	d001      	beq.n	8000fe6 <dps310_configure_continuous+0x68>
  {
    return status;
 8000fe2:	7bbb      	ldrb	r3, [r7, #14]
 8000fe4:	e012      	b.n	800100c <dps310_configure_continuous+0x8e>
  }

  status = dps310_write_register(dev, DPS310_REG_TMP_CFG, temperature_cfg);
 8000fe6:	7b7b      	ldrb	r3, [r7, #13]
 8000fe8:	461a      	mov	r2, r3
 8000fea:	2107      	movs	r1, #7
 8000fec:	6878      	ldr	r0, [r7, #4]
 8000fee:	f000 f935 	bl	800125c <dps310_write_register>
 8000ff2:	4603      	mov	r3, r0
 8000ff4:	73bb      	strb	r3, [r7, #14]
  if (status != DPS310_OK)
 8000ff6:	7bbb      	ldrb	r3, [r7, #14]
 8000ff8:	2b00      	cmp	r3, #0
 8000ffa:	d001      	beq.n	8001000 <dps310_configure_continuous+0x82>
  {
    return status;
 8000ffc:	7bbb      	ldrb	r3, [r7, #14]
 8000ffe:	e005      	b.n	800100c <dps310_configure_continuous+0x8e>
  }

  return dps310_write_register(dev, DPS310_REG_MEAS_CFG, DPS310_MEAS_CFG_CONT_PRS_TMP);
 8001000:	2207      	movs	r2, #7
 8001002:	2108      	movs	r1, #8
 8001004:	6878      	ldr	r0, [r7, #4]
 8001006:	f000 f929 	bl	800125c <dps310_write_register>
 800100a:	4603      	mov	r3, r0
}
 800100c:	4618      	mov	r0, r3
 800100e:	3710      	adds	r7, #16
 8001010:	46bd      	mov	sp, r7
 8001012:	bd80      	pop	{r7, pc}

08001014 <dps310_read_pressure_raw>:

dps310_status_t dps310_read_pressure_raw(dps310_t *dev, int32_t *pressure_raw)
{
 8001014:	b580      	push	{r7, lr}
 8001016:	b084      	sub	sp, #16
 8001018:	af00      	add	r7, sp, #0
 800101a:	6078      	str	r0, [r7, #4]
 800101c:	6039      	str	r1, [r7, #0]
  uint8_t data[3];
  dps310_status_t status;

  if (pressure_raw == NULL)
 800101e:	683b      	ldr	r3, [r7, #0]
 8001020:	2b00      	cmp	r3, #0
 8001022:	d101      	bne.n	8001028 <dps310_read_pressure_raw+0x14>
  {
    return DPS310_ERROR_INVALID_ARG;
 8001024:	2302      	movs	r3, #2
 8001026:	e01b      	b.n	8001060 <dps310_read_pressure_raw+0x4c>
  }

  status = dps310_read_registers(dev, DPS310_REG_PRS_B2, data, sizeof(data));
 8001028:	f107 020c 	add.w	r2, r7, #12
 800102c:	2303      	movs	r3, #3
 800102e:	2100      	movs	r1, #0
 8001030:	6878      	ldr	r0, [r7, #4]
 8001032:	f000 f94a 	bl	80012ca <dps310_read_registers>
 8001036:	4603      	mov	r3, r0
 8001038:	73fb      	strb	r3, [r7, #15]
  if (status != DPS310_OK)
 800103a:	7bfb      	ldrb	r3, [r7, #15]
 800103c:	2b00      	cmp	r3, #0
 800103e:	d001      	beq.n	8001044 <dps310_read_pressure_raw+0x30>
  {
    return status;
 8001040:	7bfb      	ldrb	r3, [r7, #15]
 8001042:	e00d      	b.n	8001060 <dps310_read_pressure_raw+0x4c>
  }

  *pressure_raw = dps310_sign_extend_24(((uint32_t)data[0] << 16) |
 8001044:	7b3b      	ldrb	r3, [r7, #12]
 8001046:	041a      	lsls	r2, r3, #16
                                        ((uint32_t)data[1] << 8) |
 8001048:	7b7b      	ldrb	r3, [r7, #13]
 800104a:	021b      	lsls	r3, r3, #8
  *pressure_raw = dps310_sign_extend_24(((uint32_t)data[0] << 16) |
 800104c:	4313      	orrs	r3, r2
                                        data[2]);
 800104e:	7bba      	ldrb	r2, [r7, #14]
  *pressure_raw = dps310_sign_extend_24(((uint32_t)data[0] << 16) |
 8001050:	4313      	orrs	r3, r2
 8001052:	4618      	mov	r0, r3
 8001054:	f000 f9c0 	bl	80013d8 <dps310_sign_extend_24>
 8001058:	4602      	mov	r2, r0
 800105a:	683b      	ldr	r3, [r7, #0]
 800105c:	601a      	str	r2, [r3, #0]

  return DPS310_OK;
 800105e:	2300      	movs	r3, #0
}
 8001060:	4618      	mov	r0, r3
 8001062:	3710      	adds	r7, #16
 8001064:	46bd      	mov	sp, r7
 8001066:	bd80      	pop	{r7, pc}

08001068 <dps310_read_temperature_raw>:

dps310_status_t dps310_read_temperature_raw(dps310_t *dev, int32_t *temperature_raw)
{
 8001068:	b580      	push	{r7, lr}
 800106a:	b084      	sub	sp, #16
 800106c:	af00      	add	r7, sp, #0
 800106e:	6078      	str	r0, [r7, #4]
 8001070:	6039      	str	r1, [r7, #0]
  uint8_t data[3];
  dps310_status_t status;

  if (temperature_raw == NULL)
 8001072:	683b      	ldr	r3, [r7, #0]
 8001074:	2b00      	cmp	r3, #0
 8001076:	d101      	bne.n	800107c <dps310_read_temperature_raw+0x14>
  {
    return DPS310_ERROR_INVALID_ARG;
 8001078:	2302      	movs	r3, #2
 800107a:	e01b      	b.n	80010b4 <dps310_read_temperature_raw+0x4c>
  }

  status = dps310_read_registers(dev, DPS310_REG_TMP_B2, data, sizeof(data));
 800107c:	f107 020c 	add.w	r2, r7, #12
 8001080:	2303      	movs	r3, #3
 8001082:	2103      	movs	r1, #3
 8001084:	6878      	ldr	r0, [r7, #4]
 8001086:	f000 f920 	bl	80012ca <dps310_read_registers>
 800108a:	4603      	mov	r3, r0
 800108c:	73fb      	strb	r3, [r7, #15]
  if (status != DPS310_OK)
 800108e:	7bfb      	ldrb	r3, [r7, #15]
 8001090:	2b00      	cmp	r3, #0
 8001092:	d001      	beq.n	8001098 <dps310_read_temperature_raw+0x30>
  {
    return status;
 8001094:	7bfb      	ldrb	r3, [r7, #15]
 8001096:	e00d      	b.n	80010b4 <dps310_read_temperature_raw+0x4c>
  }

  *temperature_raw = dps310_sign_extend_24(((uint32_t)data[0] << 16) |
 8001098:	7b3b      	ldrb	r3, [r7, #12]
 800109a:	041a      	lsls	r2, r3, #16
                                           ((uint32_t)data[1] << 8) |
 800109c:	7b7b      	ldrb	r3, [r7, #13]
 800109e:	021b      	lsls	r3, r3, #8
  *temperature_raw = dps310_sign_extend_24(((uint32_t)data[0] << 16) |
 80010a0:	4313      	orrs	r3, r2
                                           data[2]);
 80010a2:	7bba      	ldrb	r2, [r7, #14]
  *temperature_raw = dps310_sign_extend_24(((uint32_t)data[0] << 16) |
 80010a4:	4313      	orrs	r3, r2
 80010a6:	4618      	mov	r0, r3
 80010a8:	f000 f996 	bl	80013d8 <dps310_sign_extend_24>
 80010ac:	4602      	mov	r2, r0
 80010ae:	683b      	ldr	r3, [r7, #0]
 80010b0:	601a      	str	r2, [r3, #0]

  return DPS310_OK;
 80010b2:	2300      	movs	r3, #0
}
 80010b4:	4618      	mov	r0, r3
 80010b6:	3710      	adds	r7, #16
 80010b8:	46bd      	mov	sp, r7
 80010ba:	bd80      	pop	{r7, pc}

080010bc <dps310_read_compensated>:
dps310_status_t dps310_read_compensated(dps310_t *dev,
                                        const dps310_calibration_t *calibration,
                                        dps310_oversampling_t pressure_oversampling,
                                        dps310_oversampling_t temperature_oversampling,
                                        dps310_sample_t *sample)
{
 80010bc:	b580      	push	{r7, lr}
 80010be:	ed2d 8b02 	vpush	{d8}
 80010c2:	b088      	sub	sp, #32
 80010c4:	af00      	add	r7, sp, #0
 80010c6:	60f8      	str	r0, [r7, #12]
 80010c8:	60b9      	str	r1, [r7, #8]
 80010ca:	4611      	mov	r1, r2
 80010cc:	461a      	mov	r2, r3
 80010ce:	460b      	mov	r3, r1
 80010d0:	71fb      	strb	r3, [r7, #7]
 80010d2:	4613      	mov	r3, r2
 80010d4:	71bb      	strb	r3, [r7, #6]
  dps310_status_t status;
  float pressure_scaled;
  float temperature_scaled;

  if ((calibration == NULL) || (sample == NULL) ||
 80010d6:	68bb      	ldr	r3, [r7, #8]
 80010d8:	2b00      	cmp	r3, #0
 80010da:	d008      	beq.n	80010ee <dps310_read_compensated+0x32>
 80010dc:	6b3b      	ldr	r3, [r7, #48]	; 0x30
 80010de:	2b00      	cmp	r3, #0
 80010e0:	d005      	beq.n	80010ee <dps310_read_compensated+0x32>
 80010e2:	79fb      	ldrb	r3, [r7, #7]
 80010e4:	2b07      	cmp	r3, #7
 80010e6:	d802      	bhi.n	80010ee <dps310_read_compensated+0x32>
      (pressure_oversampling > DPS310_OVERSAMPLING_128) ||
 80010e8:	79bb      	ldrb	r3, [r7, #6]
 80010ea:	2b07      	cmp	r3, #7
 80010ec:	d901      	bls.n	80010f2 <dps310_read_compensated+0x36>
      (temperature_oversampling > DPS310_OVERSAMPLING_128))
  {
    return DPS310_ERROR_INVALID_ARG;
 80010ee:	2302      	movs	r3, #2
 80010f0:	e0ae      	b.n	8001250 <dps310_read_compensated+0x194>
  }

  status = dps310_read_pressure_raw(dev, &sample->pressure_raw);
 80010f2:	6b3b      	ldr	r3, [r7, #48]	; 0x30
 80010f4:	4619      	mov	r1, r3
 80010f6:	68f8      	ldr	r0, [r7, #12]
 80010f8:	f7ff ff8c 	bl	8001014 <dps310_read_pressure_raw>
 80010fc:	4603      	mov	r3, r0
 80010fe:	77fb      	strb	r3, [r7, #31]
  if (status != DPS310_OK)
 8001100:	7ffb      	ldrb	r3, [r7, #31]
 8001102:	2b00      	cmp	r3, #0
 8001104:	d001      	beq.n	800110a <dps310_read_compensated+0x4e>
  {
    return status;
 8001106:	7ffb      	ldrb	r3, [r7, #31]
 8001108:	e0a2      	b.n	8001250 <dps310_read_compensated+0x194>
  }

  status = dps310_read_temperature_raw(dev, &sample->temperature_raw);
 800110a:	6b3b      	ldr	r3, [r7, #48]	; 0x30
 800110c:	3304      	adds	r3, #4
 800110e:	4619      	mov	r1, r3
 8001110:	68f8      	ldr	r0, [r7, #12]
 8001112:	f7ff ffa9 	bl	8001068 <dps310_read_temperature_raw>
 8001116:	4603      	mov	r3, r0
 8001118:	77fb      	strb	r3, [r7, #31]
  if (status != DPS310_OK)
 800111a:	7ffb      	ldrb	r3, [r7, #31]
 800111c:	2b00      	cmp	r3, #0
 800111e:	d001      	beq.n	8001124 <dps310_read_compensated+0x68>
  {
    return status;
 8001120:	7ffb      	ldrb	r3, [r7, #31]
 8001122:	e095      	b.n	8001250 <dps310_read_compensated+0x194>
  }

  pressure_scaled = (float)sample->pressure_raw / dps310_scaling_factor(pressure_oversampling);
 8001124:	6b3b      	ldr	r3, [r7, #48]	; 0x30
 8001126:	681b      	ldr	r3, [r3, #0]
 8001128:	ee07 3a90 	vmov	s15, r3
 800112c:	eeb8 8ae7 	vcvt.f32.s32	s16, s15
 8001130:	79fb      	ldrb	r3, [r7, #7]
 8001132:	4618      	mov	r0, r3
 8001134:	f000 f964 	bl	8001400 <dps310_scaling_factor>
 8001138:	eeb0 7a40 	vmov.f32	s14, s0
 800113c:	eec8 7a07 	vdiv.f32	s15, s16, s14
 8001140:	edc7 7a06 	vstr	s15, [r7, #24]
  temperature_scaled = (float)sample->temperature_raw / dps310_scaling_factor(temperature_oversampling);
 8001144:	6b3b      	ldr	r3, [r7, #48]	; 0x30
 8001146:	685b      	ldr	r3, [r3, #4]
 8001148:	ee07 3a90 	vmov	s15, r3
 800114c:	eeb8 8ae7 	vcvt.f32.s32	s16, s15
 8001150:	79bb      	ldrb	r3, [r7, #6]
 8001152:	4618      	mov	r0, r3
 8001154:	f000 f954 	bl	8001400 <dps310_scaling_factor>
 8001158:	eeb0 7a40 	vmov.f32	s14, s0
 800115c:	eec8 7a07 	vdiv.f32	s15, s16, s14
 8001160:	edc7 7a05 	vstr	s15, [r7, #20]

  sample->temperature_c = ((float)calibration->c0 * 0.5f) +
 8001164:	68bb      	ldr	r3, [r7, #8]
 8001166:	f9b3 3000 	ldrsh.w	r3, [r3]
 800116a:	ee07 3a90 	vmov	s15, r3
 800116e:	eef8 7ae7 	vcvt.f32.s32	s15, s15
 8001172:	eeb6 7a00 	vmov.f32	s14, #96	; 0x3f000000  0.5
 8001176:	ee27 7a87 	vmul.f32	s14, s15, s14
                          ((float)calibration->c1 * temperature_scaled);
 800117a:	68bb      	ldr	r3, [r7, #8]
 800117c:	f9b3 3002 	ldrsh.w	r3, [r3, #2]
 8001180:	ee07 3a90 	vmov	s15, r3
 8001184:	eef8 6ae7 	vcvt.f32.s32	s13, s15
 8001188:	edd7 7a05 	vldr	s15, [r7, #20]
 800118c:	ee66 7aa7 	vmul.f32	s15, s13, s15
  sample->temperature_c = ((float)calibration->c0 * 0.5f) +
 8001190:	ee77 7a27 	vadd.f32	s15, s14, s15
 8001194:	6b3b      	ldr	r3, [r7, #48]	; 0x30
 8001196:	edc3 7a03 	vstr	s15, [r3, #12]
  sample->pressure_pa = (float)calibration->c00 +
 800119a:	68bb      	ldr	r3, [r7, #8]
 800119c:	685b      	ldr	r3, [r3, #4]
 800119e:	ee07 3a90 	vmov	s15, r3
 80011a2:	eeb8 7ae7 	vcvt.f32.s32	s14, s15
                        (pressure_scaled * ((float)calibration->c10 +
 80011a6:	68bb      	ldr	r3, [r7, #8]
 80011a8:	689b      	ldr	r3, [r3, #8]
 80011aa:	ee07 3a90 	vmov	s15, r3
 80011ae:	eef8 6ae7 	vcvt.f32.s32	s13, s15
                        (pressure_scaled * ((float)calibration->c20 +
 80011b2:	68bb      	ldr	r3, [r7, #8]
 80011b4:	f9b3 3010 	ldrsh.w	r3, [r3, #16]
 80011b8:	ee07 3a90 	vmov	s15, r3
 80011bc:	eeb8 6ae7 	vcvt.f32.s32	s12, s15
                        (pressure_scaled * (float)calibration->c30))))) +
 80011c0:	68bb      	ldr	r3, [r7, #8]
 80011c2:	f9b3 3014 	ldrsh.w	r3, [r3, #20]
 80011c6:	ee07 3a90 	vmov	s15, r3
 80011ca:	eef8 5ae7 	vcvt.f32.s32	s11, s15
 80011ce:	edd7 7a06 	vldr	s15, [r7, #24]
 80011d2:	ee65 7aa7 	vmul.f32	s15, s11, s15
                        (pressure_scaled * ((float)calibration->c20 +
 80011d6:	ee36 6a27 	vadd.f32	s12, s12, s15
 80011da:	edd7 7a06 	vldr	s15, [r7, #24]
 80011de:	ee66 7a27 	vmul.f32	s15, s12, s15
                        (pressure_scaled * ((float)calibration->c10 +
 80011e2:	ee76 6aa7 	vadd.f32	s13, s13, s15
 80011e6:	edd7 7a06 	vldr	s15, [r7, #24]
 80011ea:	ee66 7aa7 	vmul.f32	s15, s13, s15
  sample->pressure_pa = (float)calibration->c00 +
 80011ee:	ee37 7a27 	vadd.f32	s14, s14, s15
                        (temperature_scaled * (float)calibration->c01) +
 80011f2:	68bb      	ldr	r3, [r7, #8]
 80011f4:	f9b3 300c 	ldrsh.w	r3, [r3, #12]
 80011f8:	ee07 3a90 	vmov	s15, r3
 80011fc:	eef8 6ae7 	vcvt.f32.s32	s13, s15
 8001200:	edd7 7a05 	vldr	s15, [r7, #20]
 8001204:	ee66 7aa7 	vmul.f32	s15, s13, s15
                        (pressure_scaled * (float)calibration->c30))))) +
 8001208:	ee37 7a27 	vadd.f32	s14, s14, s15
                        (temperature_scaled * pressure_scaled *
 800120c:	edd7 6a05 	vldr	s13, [r7, #20]
 8001210:	edd7 7a06 	vldr	s15, [r7, #24]
 8001214:	ee66 6aa7 	vmul.f32	s13, s13, s15
                        ((float)calibration->c11 + (pressure_scaled * (float)calibration->c21)));
 8001218:	68bb      	ldr	r3, [r7, #8]
 800121a:	f9b3 300e 	ldrsh.w	r3, [r3, #14]
 800121e:	ee07 3a90 	vmov	s15, r3
 8001222:	eeb8 6ae7 	vcvt.f32.s32	s12, s15
 8001226:	68bb      	ldr	r3, [r7, #8]
 8001228:	f9b3 3012 	ldrsh.w	r3, [r3, #18]
 800122c:	ee07 3a90 	vmov	s15, r3
 8001230:	eef8 5ae7 	vcvt.f32.s32	s11, s15
 8001234:	edd7 7a06 	vldr	s15, [r7, #24]
 8001238:	ee65 7aa7 	vmul.f32	s15, s11, s15
 800123c:	ee76 7a27 	vadd.f32	s15, s12, s15
                        (temperature_scaled * pressure_scaled *
 8001240:	ee66 7aa7 	vmul.f32	s15, s13, s15
                        (temperature_scaled * (float)calibration->c01) +
 8001244:	ee77 7a27 	vadd.f32	s15, s14, s15
  sample->pressure_pa = (float)calibration->c00 +
 8001248:	6b3b      	ldr	r3, [r7, #48]	; 0x30
 800124a:	edc3 7a02 	vstr	s15, [r3, #8]

  return DPS310_OK;
 800124e:	2300      	movs	r3, #0
}
 8001250:	4618      	mov	r0, r3
 8001252:	3720      	adds	r7, #32
 8001254:	46bd      	mov	sp, r7
 8001256:	ecbd 8b02 	vpop	{d8}
 800125a:	bd80      	pop	{r7, pc}

0800125c <dps310_write_register>:

dps310_status_t dps310_write_register(dps310_t *dev, uint8_t reg, uint8_t value)
{
 800125c:	b580      	push	{r7, lr}
 800125e:	b084      	sub	sp, #16
 8001260:	af00      	add	r7, sp, #0
 8001262:	6078      	str	r0, [r7, #4]
 8001264:	460b      	mov	r3, r1
 8001266:	70fb      	strb	r3, [r7, #3]
 8001268:	4613      	mov	r3, r2
 800126a:	70bb      	strb	r3, [r7, #2]
  uint8_t tx[2];

  if (dev == NULL)
 800126c:	687b      	ldr	r3, [r7, #4]
 800126e:	2b00      	cmp	r3, #0
 8001270:	d101      	bne.n	8001276 <dps310_write_register+0x1a>
  {
    return DPS310_ERROR_INVALID_ARG;
 8001272:	2302      	movs	r3, #2
 8001274:	e00e      	b.n	8001294 <dps310_write_register+0x38>
  }

  tx[0] = reg & DPS310_SPI_WRITE_MASK;
 8001276:	78fb      	ldrb	r3, [r7, #3]
 8001278:	f003 037f 	and.w	r3, r3, #127	; 0x7f
 800127c:	b2db      	uxtb	r3, r3
 800127e:	733b      	strb	r3, [r7, #12]
  tx[1] = value;
 8001280:	78bb      	ldrb	r3, [r7, #2]
 8001282:	737b      	strb	r3, [r7, #13]

  return dps310_spi_write(dev, tx, sizeof(tx));
 8001284:	f107 030c 	add.w	r3, r7, #12
 8001288:	2202      	movs	r2, #2
 800128a:	4619      	mov	r1, r3
 800128c:	6878      	ldr	r0, [r7, #4]
 800128e:	f000 f8fd 	bl	800148c <dps310_spi_write>
 8001292:	4603      	mov	r3, r0
}
 8001294:	4618      	mov	r0, r3
 8001296:	3710      	adds	r7, #16
 8001298:	46bd      	mov	sp, r7
 800129a:	bd80      	pop	{r7, pc}

0800129c <dps310_read_register>:

dps310_status_t dps310_read_register(dps310_t *dev, uint8_t reg, uint8_t *value)
{
 800129c:	b580      	push	{r7, lr}
 800129e:	b084      	sub	sp, #16
 80012a0:	af00      	add	r7, sp, #0
 80012a2:	60f8      	str	r0, [r7, #12]
 80012a4:	460b      	mov	r3, r1
 80012a6:	607a      	str	r2, [r7, #4]
 80012a8:	72fb      	strb	r3, [r7, #11]
  if (value == NULL)
 80012aa:	687b      	ldr	r3, [r7, #4]
 80012ac:	2b00      	cmp	r3, #0
 80012ae:	d101      	bne.n	80012b4 <dps310_read_register+0x18>
  {
    return DPS310_ERROR_INVALID_ARG;
 80012b0:	2302      	movs	r3, #2
 80012b2:	e006      	b.n	80012c2 <dps310_read_register+0x26>
  }

  return dps310_read_registers(dev, reg, value, 1U);
 80012b4:	7af9      	ldrb	r1, [r7, #11]
 80012b6:	2301      	movs	r3, #1
 80012b8:	687a      	ldr	r2, [r7, #4]
 80012ba:	68f8      	ldr	r0, [r7, #12]
 80012bc:	f000 f805 	bl	80012ca <dps310_read_registers>
 80012c0:	4603      	mov	r3, r0
}
 80012c2:	4618      	mov	r0, r3
 80012c4:	3710      	adds	r7, #16
 80012c6:	46bd      	mov	sp, r7
 80012c8:	bd80      	pop	{r7, pc}

080012ca <dps310_read_registers>:

dps310_status_t dps310_read_registers(dps310_t *dev, uint8_t reg, uint8_t *data, uint16_t length)
{
 80012ca:	b580      	push	{r7, lr}
 80012cc:	b086      	sub	sp, #24
 80012ce:	af00      	add	r7, sp, #0
 80012d0:	60f8      	str	r0, [r7, #12]
 80012d2:	607a      	str	r2, [r7, #4]
 80012d4:	461a      	mov	r2, r3
 80012d6:	460b      	mov	r3, r1
 80012d8:	72fb      	strb	r3, [r7, #11]
 80012da:	4613      	mov	r3, r2
 80012dc:	813b      	strh	r3, [r7, #8]
  uint8_t tx_header;
  HAL_StatusTypeDef hal_status;

  if ((dev == NULL) || (dev->hspi == NULL) || (dev->cs_port == NULL) || (data == NULL) || (length == 0U))
 80012de:	68fb      	ldr	r3, [r7, #12]
 80012e0:	2b00      	cmp	r3, #0
 80012e2:	d00d      	beq.n	8001300 <dps310_read_registers+0x36>
 80012e4:	68fb      	ldr	r3, [r7, #12]
 80012e6:	681b      	ldr	r3, [r3, #0]
 80012e8:	2b00      	cmp	r3, #0
 80012ea:	d009      	beq.n	8001300 <dps310_read_registers+0x36>
 80012ec:	68fb      	ldr	r3, [r7, #12]
 80012ee:	685b      	ldr	r3, [r3, #4]
 80012f0:	2b00      	cmp	r3, #0
 80012f2:	d005      	beq.n	8001300 <dps310_read_registers+0x36>
 80012f4:	687b      	ldr	r3, [r7, #4]
 80012f6:	2b00      	cmp	r3, #0
 80012f8:	d002      	beq.n	8001300 <dps310_read_registers+0x36>
 80012fa:	893b      	ldrh	r3, [r7, #8]
 80012fc:	2b00      	cmp	r3, #0
 80012fe:	d101      	bne.n	8001304 <dps310_read_registers+0x3a>
  {
    return DPS310_ERROR_INVALID_ARG;
 8001300:	2302      	movs	r3, #2
 8001302:	e037      	b.n	8001374 <dps310_read_registers+0xaa>
  }

  tx_header = reg | DPS310_SPI_READ_BIT;
 8001304:	7afb      	ldrb	r3, [r7, #11]
 8001306:	f063 037f 	orn	r3, r3, #127	; 0x7f
 800130a:	b2db      	uxtb	r3, r3
 800130c:	75bb      	strb	r3, [r7, #22]

  HAL_GPIO_WritePin(dev->cs_port, dev->cs_pin, GPIO_PIN_RESET);
 800130e:	68fb      	ldr	r3, [r7, #12]
 8001310:	6858      	ldr	r0, [r3, #4]
 8001312:	68fb      	ldr	r3, [r7, #12]
 8001314:	891b      	ldrh	r3, [r3, #8]
 8001316:	2200      	movs	r2, #0
 8001318:	4619      	mov	r1, r3
 800131a:	f002 fc61 	bl	8003be0 <HAL_GPIO_WritePin>
  hal_status = HAL_SPI_Transmit(dev->hspi, &tx_header, 1U, dev->timeout_ms);
 800131e:	68fb      	ldr	r3, [r7, #12]
 8001320:	6818      	ldr	r0, [r3, #0]
 8001322:	68fb      	ldr	r3, [r7, #12]
 8001324:	68db      	ldr	r3, [r3, #12]
 8001326:	f107 0116 	add.w	r1, r7, #22
 800132a:	2201      	movs	r2, #1
 800132c:	f005 fa21 	bl	8006772 <HAL_SPI_Transmit>
 8001330:	4603      	mov	r3, r0
 8001332:	75fb      	strb	r3, [r7, #23]
  if (hal_status == HAL_OK)
 8001334:	7dfb      	ldrb	r3, [r7, #23]
 8001336:	2b00      	cmp	r3, #0
 8001338:	d109      	bne.n	800134e <dps310_read_registers+0x84>
  {
    hal_status = HAL_SPI_Receive(dev->hspi, data, length, dev->timeout_ms);
 800133a:	68fb      	ldr	r3, [r7, #12]
 800133c:	6818      	ldr	r0, [r3, #0]
 800133e:	68fb      	ldr	r3, [r7, #12]
 8001340:	68db      	ldr	r3, [r3, #12]
 8001342:	893a      	ldrh	r2, [r7, #8]
 8001344:	6879      	ldr	r1, [r7, #4]
 8001346:	f005 fb89 	bl	8006a5c <HAL_SPI_Receive>
 800134a:	4603      	mov	r3, r0
 800134c:	75fb      	strb	r3, [r7, #23]
  }
  HAL_GPIO_WritePin(dev->cs_port, dev->cs_pin, GPIO_PIN_SET);
 800134e:	68fb      	ldr	r3, [r7, #12]
 8001350:	6858      	ldr	r0, [r3, #4]
 8001352:	68fb      	ldr	r3, [r7, #12]
 8001354:	891b      	ldrh	r3, [r3, #8]
 8001356:	2201      	movs	r2, #1
 8001358:	4619      	mov	r1, r3
 800135a:	f002 fc41 	bl	8003be0 <HAL_GPIO_WritePin>

  if (hal_status == HAL_TIMEOUT)
 800135e:	7dfb      	ldrb	r3, [r7, #23]
 8001360:	2b03      	cmp	r3, #3
 8001362:	d101      	bne.n	8001368 <dps310_read_registers+0x9e>
  {
    return DPS310_ERROR_TIMEOUT;
 8001364:	2305      	movs	r3, #5
 8001366:	e005      	b.n	8001374 <dps310_read_registers+0xaa>
  }

  if (hal_status != HAL_OK)
 8001368:	7dfb      	ldrb	r3, [r7, #23]
 800136a:	2b00      	cmp	r3, #0
 800136c:	d001      	beq.n	8001372 <dps310_read_registers+0xa8>
  {
    return DPS310_ERROR_HAL;
 800136e:	2303      	movs	r3, #3
 8001370:	e000      	b.n	8001374 <dps310_read_registers+0xaa>
  }

  return DPS310_OK;
 8001372:	2300      	movs	r3, #0
}
 8001374:	4618      	mov	r0, r3
 8001376:	3718      	adds	r7, #24
 8001378:	46bd      	mov	sp, r7
 800137a:	bd80      	pop	{r7, pc}

0800137c <dps310_sign_extend_12>:

static int16_t dps310_sign_extend_12(uint16_t value)
{
 800137c:	b480      	push	{r7}
 800137e:	b083      	sub	sp, #12
 8001380:	af00      	add	r7, sp, #0
 8001382:	4603      	mov	r3, r0
 8001384:	80fb      	strh	r3, [r7, #6]
  if ((value & 0x0800U) != 0U)
 8001386:	88fb      	ldrh	r3, [r7, #6]
 8001388:	f403 6300 	and.w	r3, r3, #2048	; 0x800
 800138c:	2b00      	cmp	r3, #0
 800138e:	d005      	beq.n	800139c <dps310_sign_extend_12+0x20>
  {
    value |= 0xF000U;
 8001390:	88fb      	ldrh	r3, [r7, #6]
 8001392:	ea6f 5303 	mvn.w	r3, r3, lsl #20
 8001396:	ea6f 5313 	mvn.w	r3, r3, lsr #20
 800139a:	80fb      	strh	r3, [r7, #6]
  }

  return (int16_t)value;
 800139c:	f9b7 3006 	ldrsh.w	r3, [r7, #6]
}
 80013a0:	4618      	mov	r0, r3
 80013a2:	370c      	adds	r7, #12
 80013a4:	46bd      	mov	sp, r7
 80013a6:	f85d 7b04 	ldr.w	r7, [sp], #4
 80013aa:	4770      	bx	lr

080013ac <dps310_sign_extend_20>:

static int32_t dps310_sign_extend_20(uint32_t value)
{
 80013ac:	b480      	push	{r7}
 80013ae:	b083      	sub	sp, #12
 80013b0:	af00      	add	r7, sp, #0
 80013b2:	6078      	str	r0, [r7, #4]
  if ((value & 0x00080000UL) != 0UL)
 80013b4:	687b      	ldr	r3, [r7, #4]
 80013b6:	f403 2300 	and.w	r3, r3, #524288	; 0x80000
 80013ba:	2b00      	cmp	r3, #0
 80013bc:	d005      	beq.n	80013ca <dps310_sign_extend_20+0x1e>
  {
    value |= 0xFFF00000UL;
 80013be:	687b      	ldr	r3, [r7, #4]
 80013c0:	ea6f 3303 	mvn.w	r3, r3, lsl #12
 80013c4:	ea6f 3313 	mvn.w	r3, r3, lsr #12
 80013c8:	607b      	str	r3, [r7, #4]
  }

  return (int32_t)value;
 80013ca:	687b      	ldr	r3, [r7, #4]
}
 80013cc:	4618      	mov	r0, r3
 80013ce:	370c      	adds	r7, #12
 80013d0:	46bd      	mov	sp, r7
 80013d2:	f85d 7b04 	ldr.w	r7, [sp], #4
 80013d6:	4770      	bx	lr

080013d8 <dps310_sign_extend_24>:

static int32_t dps310_sign_extend_24(uint32_t value)
{
 80013d8:	b480      	push	{r7}
 80013da:	b083      	sub	sp, #12
 80013dc:	af00      	add	r7, sp, #0
 80013de:	6078      	str	r0, [r7, #4]
  if ((value & 0x00800000UL) != 0UL)
 80013e0:	687b      	ldr	r3, [r7, #4]
 80013e2:	f403 0300 	and.w	r3, r3, #8388608	; 0x800000
 80013e6:	2b00      	cmp	r3, #0
 80013e8:	d003      	beq.n	80013f2 <dps310_sign_extend_24+0x1a>
  {
    value |= 0xFF000000UL;
 80013ea:	687b      	ldr	r3, [r7, #4]
 80013ec:	f043 437f 	orr.w	r3, r3, #4278190080	; 0xff000000
 80013f0:	607b      	str	r3, [r7, #4]
  }

  return (int32_t)value;
 80013f2:	687b      	ldr	r3, [r7, #4]
}
 80013f4:	4618      	mov	r0, r3
 80013f6:	370c      	adds	r7, #12
 80013f8:	46bd      	mov	sp, r7
 80013fa:	f85d 7b04 	ldr.w	r7, [sp], #4
 80013fe:	4770      	bx	lr

08001400 <dps310_scaling_factor>:

static float dps310_scaling_factor(dps310_oversampling_t oversampling)
{
 8001400:	b480      	push	{r7}
 8001402:	b083      	sub	sp, #12
 8001404:	af00      	add	r7, sp, #0
 8001406:	4603      	mov	r3, r0
 8001408:	71fb      	strb	r3, [r7, #7]
  switch (oversampling)
 800140a:	79fb      	ldrb	r3, [r7, #7]
 800140c:	2b07      	cmp	r3, #7
 800140e:	d824      	bhi.n	800145a <dps310_scaling_factor+0x5a>
 8001410:	a201      	add	r2, pc, #4	; (adr r2, 8001418 <dps310_scaling_factor+0x18>)
 8001412:	f852 f023 	ldr.w	pc, [r2, r3, lsl #2]
 8001416:	bf00      	nop
 8001418:	08001439 	.word	0x08001439
 800141c:	0800143f 	.word	0x0800143f
 8001420:	08001443 	.word	0x08001443
 8001424:	08001447 	.word	0x08001447
 8001428:	0800144b 	.word	0x0800144b
 800142c:	0800144f 	.word	0x0800144f
 8001430:	08001453 	.word	0x08001453
 8001434:	08001457 	.word	0x08001457
  {
    case DPS310_OVERSAMPLING_1:
      return 524288.0f;
 8001438:	f04f 4392 	mov.w	r3, #1224736768	; 0x49000000
 800143c:	e00f      	b.n	800145e <dps310_scaling_factor+0x5e>
    case DPS310_OVERSAMPLING_2:
      return 1572864.0f;
 800143e:	4b0c      	ldr	r3, [pc, #48]	; (8001470 <dps310_scaling_factor+0x70>)
 8001440:	e00d      	b.n	800145e <dps310_scaling_factor+0x5e>
    case DPS310_OVERSAMPLING_4:
      return 3670016.0f;
 8001442:	4b0c      	ldr	r3, [pc, #48]	; (8001474 <dps310_scaling_factor+0x74>)
 8001444:	e00b      	b.n	800145e <dps310_scaling_factor+0x5e>
    case DPS310_OVERSAMPLING_8:
      return 7864320.0f;
 8001446:	4b0c      	ldr	r3, [pc, #48]	; (8001478 <dps310_scaling_factor+0x78>)
 8001448:	e009      	b.n	800145e <dps310_scaling_factor+0x5e>
    case DPS310_OVERSAMPLING_16:
      return 253952.0f;
 800144a:	4b0c      	ldr	r3, [pc, #48]	; (800147c <dps310_scaling_factor+0x7c>)
 800144c:	e007      	b.n	800145e <dps310_scaling_factor+0x5e>
    case DPS310_OVERSAMPLING_32:
      return 516096.0f;
 800144e:	4b0c      	ldr	r3, [pc, #48]	; (8001480 <dps310_scaling_factor+0x80>)
 8001450:	e005      	b.n	800145e <dps310_scaling_factor+0x5e>
    case DPS310_OVERSAMPLING_64:
      return 1040384.0f;
 8001452:	4b0c      	ldr	r3, [pc, #48]	; (8001484 <dps310_scaling_factor+0x84>)
 8001454:	e003      	b.n	800145e <dps310_scaling_factor+0x5e>
    case DPS310_OVERSAMPLING_128:
      return 2088960.0f;
 8001456:	4b0c      	ldr	r3, [pc, #48]	; (8001488 <dps310_scaling_factor+0x88>)
 8001458:	e001      	b.n	800145e <dps310_scaling_factor+0x5e>
    default:
      return 524288.0f;
 800145a:	f04f 4392 	mov.w	r3, #1224736768	; 0x49000000
  }
}
 800145e:	ee07 3a90 	vmov	s15, r3
 8001462:	eeb0 0a67 	vmov.f32	s0, s15
 8001466:	370c      	adds	r7, #12
 8001468:	46bd      	mov	sp, r7
 800146a:	f85d 7b04 	ldr.w	r7, [sp], #4
 800146e:	4770      	bx	lr
 8001470:	49c00000 	.word	0x49c00000
 8001474:	4a600000 	.word	0x4a600000
 8001478:	4af00000 	.word	0x4af00000
 800147c:	48780000 	.word	0x48780000
 8001480:	48fc0000 	.word	0x48fc0000
 8001484:	497e0000 	.word	0x497e0000
 8001488:	49ff0000 	.word	0x49ff0000

0800148c <dps310_spi_write>:

static dps310_status_t dps310_spi_write(dps310_t *dev, const uint8_t *data, uint16_t length)
{
 800148c:	b580      	push	{r7, lr}
 800148e:	b086      	sub	sp, #24
 8001490:	af00      	add	r7, sp, #0
 8001492:	60f8      	str	r0, [r7, #12]
 8001494:	60b9      	str	r1, [r7, #8]
 8001496:	4613      	mov	r3, r2
 8001498:	80fb      	strh	r3, [r7, #6]
  HAL_StatusTypeDef hal_status;

  if ((dev == NULL) || (dev->hspi == NULL) || (dev->cs_port == NULL) || (data == NULL) || (length == 0U))
 800149a:	68fb      	ldr	r3, [r7, #12]
 800149c:	2b00      	cmp	r3, #0
 800149e:	d00d      	beq.n	80014bc <dps310_spi_write+0x30>
 80014a0:	68fb      	ldr	r3, [r7, #12]
 80014a2:	681b      	ldr	r3, [r3, #0]
 80014a4:	2b00      	cmp	r3, #0
 80014a6:	d009      	beq.n	80014bc <dps310_spi_write+0x30>
 80014a8:	68fb      	ldr	r3, [r7, #12]
 80014aa:	685b      	ldr	r3, [r3, #4]
 80014ac:	2b00      	cmp	r3, #0
 80014ae:	d005      	beq.n	80014bc <dps310_spi_write+0x30>
 80014b0:	68bb      	ldr	r3, [r7, #8]
 80014b2:	2b00      	cmp	r3, #0
 80014b4:	d002      	beq.n	80014bc <dps310_spi_write+0x30>
 80014b6:	88fb      	ldrh	r3, [r7, #6]
 80014b8:	2b00      	cmp	r3, #0
 80014ba:	d101      	bne.n	80014c0 <dps310_spi_write+0x34>
  {
    return DPS310_ERROR_INVALID_ARG;
 80014bc:	2302      	movs	r3, #2
 80014be:	e024      	b.n	800150a <dps310_spi_write+0x7e>
  }

  HAL_GPIO_WritePin(dev->cs_port, dev->cs_pin, GPIO_PIN_RESET);
 80014c0:	68fb      	ldr	r3, [r7, #12]
 80014c2:	6858      	ldr	r0, [r3, #4]
 80014c4:	68fb      	ldr	r3, [r7, #12]
 80014c6:	891b      	ldrh	r3, [r3, #8]
 80014c8:	2200      	movs	r2, #0
 80014ca:	4619      	mov	r1, r3
 80014cc:	f002 fb88 	bl	8003be0 <HAL_GPIO_WritePin>
  hal_status = HAL_SPI_Transmit(dev->hspi, (uint8_t *)data, length, dev->timeout_ms);
 80014d0:	68fb      	ldr	r3, [r7, #12]
 80014d2:	6818      	ldr	r0, [r3, #0]
 80014d4:	68fb      	ldr	r3, [r7, #12]
 80014d6:	68db      	ldr	r3, [r3, #12]
 80014d8:	88fa      	ldrh	r2, [r7, #6]
 80014da:	68b9      	ldr	r1, [r7, #8]
 80014dc:	f005 f949 	bl	8006772 <HAL_SPI_Transmit>
 80014e0:	4603      	mov	r3, r0
 80014e2:	75fb      	strb	r3, [r7, #23]
  HAL_GPIO_WritePin(dev->cs_port, dev->cs_pin, GPIO_PIN_SET);
 80014e4:	68fb      	ldr	r3, [r7, #12]
 80014e6:	6858      	ldr	r0, [r3, #4]
 80014e8:	68fb      	ldr	r3, [r7, #12]
 80014ea:	891b      	ldrh	r3, [r3, #8]
 80014ec:	2201      	movs	r2, #1
 80014ee:	4619      	mov	r1, r3
 80014f0:	f002 fb76 	bl	8003be0 <HAL_GPIO_WritePin>

  if (hal_status == HAL_TIMEOUT)
 80014f4:	7dfb      	ldrb	r3, [r7, #23]
 80014f6:	2b03      	cmp	r3, #3
 80014f8:	d101      	bne.n	80014fe <dps310_spi_write+0x72>
  {
    return DPS310_ERROR_TIMEOUT;
 80014fa:	2305      	movs	r3, #5
 80014fc:	e005      	b.n	800150a <dps310_spi_write+0x7e>
  }

  if (hal_status != HAL_OK)
 80014fe:	7dfb      	ldrb	r3, [r7, #23]
 8001500:	2b00      	cmp	r3, #0
 8001502:	d001      	beq.n	8001508 <dps310_spi_write+0x7c>
  {
    return DPS310_ERROR_HAL;
 8001504:	2303      	movs	r3, #3
 8001506:	e000      	b.n	800150a <dps310_spi_write+0x7e>
  }

  return DPS310_OK;
 8001508:	2300      	movs	r3, #0
}
 800150a:	4618      	mov	r0, r3
 800150c:	3718      	adds	r7, #24
 800150e:	46bd      	mov	sp, r7
 8001510:	bd80      	pop	{r7, pc}

08001512 <lis3mdl_init>:

lis3mdl_status_t lis3mdl_init(lis3mdl_t *dev,
                              SPI_HandleTypeDef *hspi,
                              GPIO_TypeDef *cs_port,
                              uint16_t cs_pin)
{
 8001512:	b580      	push	{r7, lr}
 8001514:	b084      	sub	sp, #16
 8001516:	af00      	add	r7, sp, #0
 8001518:	60f8      	str	r0, [r7, #12]
 800151a:	60b9      	str	r1, [r7, #8]
 800151c:	607a      	str	r2, [r7, #4]
 800151e:	807b      	strh	r3, [r7, #2]
  if ((dev == NULL) || (hspi == NULL) || (cs_port == NULL))
 8001520:	68fb      	ldr	r3, [r7, #12]
 8001522:	2b00      	cmp	r3, #0
 8001524:	d005      	beq.n	8001532 <lis3mdl_init+0x20>
 8001526:	68bb      	ldr	r3, [r7, #8]
 8001528:	2b00      	cmp	r3, #0
 800152a:	d002      	beq.n	8001532 <lis3mdl_init+0x20>
 800152c:	687b      	ldr	r3, [r7, #4]
 800152e:	2b00      	cmp	r3, #0
 8001530:	d101      	bne.n	8001536 <lis3mdl_init+0x24>
  {
    return LIS3MDL_ERROR_INVALID_ARG;
 8001532:	2302      	movs	r3, #2
 8001534:	e024      	b.n	8001580 <lis3mdl_init+0x6e>
  }

  dev->hspi = hspi;
 8001536:	68fb      	ldr	r3, [r7, #12]
 8001538:	68ba      	ldr	r2, [r7, #8]
 800153a:	601a      	str	r2, [r3, #0]
  dev->cs_port = cs_port;
 800153c:	68fb      	ldr	r3, [r7, #12]
 800153e:	687a      	ldr	r2, [r7, #4]
 8001540:	605a      	str	r2, [r3, #4]
  dev->cs_pin = cs_pin;
 8001542:	68fb      	ldr	r3, [r7, #12]
 8001544:	887a      	ldrh	r2, [r7, #2]
 8001546:	811a      	strh	r2, [r3, #8]
  dev->timeout_ms = LIS3MDL_DEFAULT_TIMEOUT_MS;
 8001548:	68fb      	ldr	r3, [r7, #12]
 800154a:	2264      	movs	r2, #100	; 0x64
 800154c:	60da      	str	r2, [r3, #12]
  dev->full_scale = LIS3MDL_FS_4_GAUSS;
 800154e:	68fb      	ldr	r3, [r7, #12]
 8001550:	2200      	movs	r2, #0
 8001552:	741a      	strb	r2, [r3, #16]
  dev->lsb_per_gauss = lis3mdl_lsb_per_gauss(dev->full_scale);
 8001554:	68fb      	ldr	r3, [r7, #12]
 8001556:	7c1b      	ldrb	r3, [r3, #16]
 8001558:	4618      	mov	r0, r3
 800155a:	f000 f923 	bl	80017a4 <lis3mdl_lsb_per_gauss>
 800155e:	eef0 7a40 	vmov.f32	s15, s0
 8001562:	68fb      	ldr	r3, [r7, #12]
 8001564:	edc3 7a05 	vstr	s15, [r3, #20]

  HAL_GPIO_WritePin(dev->cs_port, dev->cs_pin, GPIO_PIN_SET);
 8001568:	68fb      	ldr	r3, [r7, #12]
 800156a:	6858      	ldr	r0, [r3, #4]
 800156c:	68fb      	ldr	r3, [r7, #12]
 800156e:	891b      	ldrh	r3, [r3, #8]
 8001570:	2201      	movs	r2, #1
 8001572:	4619      	mov	r1, r3
 8001574:	f002 fb34 	bl	8003be0 <HAL_GPIO_WritePin>

  return lis3mdl_check_who_am_i(dev);
 8001578:	68f8      	ldr	r0, [r7, #12]
 800157a:	f000 f814 	bl	80015a6 <lis3mdl_check_who_am_i>
 800157e:	4603      	mov	r3, r0
}
 8001580:	4618      	mov	r0, r3
 8001582:	3710      	adds	r7, #16
 8001584:	46bd      	mov	sp, r7
 8001586:	bd80      	pop	{r7, pc}

08001588 <lis3mdl_read_who_am_i>:

lis3mdl_status_t lis3mdl_read_who_am_i(lis3mdl_t *dev, uint8_t *who_am_i)
{
 8001588:	b580      	push	{r7, lr}
 800158a:	b082      	sub	sp, #8
 800158c:	af00      	add	r7, sp, #0
 800158e:	6078      	str	r0, [r7, #4]
 8001590:	6039      	str	r1, [r7, #0]
  return lis3mdl_read_register(dev, LIS3MDL_REG_WHO_AM_I, who_am_i);
 8001592:	683a      	ldr	r2, [r7, #0]
 8001594:	210f      	movs	r1, #15
 8001596:	6878      	ldr	r0, [r7, #4]
 8001598:	f000 f952 	bl	8001840 <lis3mdl_read_register>
 800159c:	4603      	mov	r3, r0
}
 800159e:	4618      	mov	r0, r3
 80015a0:	3708      	adds	r7, #8
 80015a2:	46bd      	mov	sp, r7
 80015a4:	bd80      	pop	{r7, pc}

080015a6 <lis3mdl_check_who_am_i>:

lis3mdl_status_t lis3mdl_check_who_am_i(lis3mdl_t *dev)
{
 80015a6:	b580      	push	{r7, lr}
 80015a8:	b084      	sub	sp, #16
 80015aa:	af00      	add	r7, sp, #0
 80015ac:	6078      	str	r0, [r7, #4]
  uint8_t who_am_i;
  lis3mdl_status_t status;

  status = lis3mdl_read_who_am_i(dev, &who_am_i);
 80015ae:	f107 030e 	add.w	r3, r7, #14
 80015b2:	4619      	mov	r1, r3
 80015b4:	6878      	ldr	r0, [r7, #4]
 80015b6:	f7ff ffe7 	bl	8001588 <lis3mdl_read_who_am_i>
 80015ba:	4603      	mov	r3, r0
 80015bc:	73fb      	strb	r3, [r7, #15]
  if (status != LIS3MDL_OK)
 80015be:	7bfb      	ldrb	r3, [r7, #15]
 80015c0:	2b00      	cmp	r3, #0
 80015c2:	d001      	beq.n	80015c8 <lis3mdl_check_who_am_i+0x22>
  {
    return status;
 80015c4:	7bfb      	ldrb	r3, [r7, #15]
 80015c6:	e005      	b.n	80015d4 <lis3mdl_check_who_am_i+0x2e>
  }

  if (who_am_i != LIS3MDL_WHO_AM_I_EXPECTED)
 80015c8:	7bbb      	ldrb	r3, [r7, #14]
 80015ca:	2b3d      	cmp	r3, #61	; 0x3d
 80015cc:	d001      	beq.n	80015d2 <lis3mdl_check_who_am_i+0x2c>
  {
    return LIS3MDL_ERROR_WHO_AM_I;
 80015ce:	2304      	movs	r3, #4
 80015d0:	e000      	b.n	80015d4 <lis3mdl_check_who_am_i+0x2e>
  }

  return LIS3MDL_OK;
 80015d2:	2300      	movs	r3, #0
}
 80015d4:	4618      	mov	r0, r3
 80015d6:	3710      	adds	r7, #16
 80015d8:	46bd      	mov	sp, r7
 80015da:	bd80      	pop	{r7, pc}

080015dc <lis3mdl_configure_continuous>:

lis3mdl_status_t lis3mdl_configure_continuous(lis3mdl_t *dev, lis3mdl_full_scale_t full_scale)
{
 80015dc:	b580      	push	{r7, lr}
 80015de:	b084      	sub	sp, #16
 80015e0:	af00      	add	r7, sp, #0
 80015e2:	6078      	str	r0, [r7, #4]
 80015e4:	460b      	mov	r3, r1
 80015e6:	70fb      	strb	r3, [r7, #3]
  lis3mdl_status_t status;

  if ((dev == NULL) || (full_scale > LIS3MDL_FS_16_GAUSS))
 80015e8:	687b      	ldr	r3, [r7, #4]
 80015ea:	2b00      	cmp	r3, #0
 80015ec:	d002      	beq.n	80015f4 <lis3mdl_configure_continuous+0x18>
 80015ee:	78fb      	ldrb	r3, [r7, #3]
 80015f0:	2b03      	cmp	r3, #3
 80015f2:	d901      	bls.n	80015f8 <lis3mdl_configure_continuous+0x1c>
  {
    return LIS3MDL_ERROR_INVALID_ARG;
 80015f4:	2302      	movs	r3, #2
 80015f6:	e04d      	b.n	8001694 <lis3mdl_configure_continuous+0xb8>
  }

  status = lis3mdl_write_register(dev, LIS3MDL_REG_CTRL_REG1, LIS3MDL_CTRL_REG1_10HZ_UHP);
 80015f8:	2270      	movs	r2, #112	; 0x70
 80015fa:	2120      	movs	r1, #32
 80015fc:	6878      	ldr	r0, [r7, #4]
 80015fe:	f000 f8ff 	bl	8001800 <lis3mdl_write_register>
 8001602:	4603      	mov	r3, r0
 8001604:	73fb      	strb	r3, [r7, #15]
  if (status != LIS3MDL_OK)
 8001606:	7bfb      	ldrb	r3, [r7, #15]
 8001608:	2b00      	cmp	r3, #0
 800160a:	d001      	beq.n	8001610 <lis3mdl_configure_continuous+0x34>
  {
    return status;
 800160c:	7bfb      	ldrb	r3, [r7, #15]
 800160e:	e041      	b.n	8001694 <lis3mdl_configure_continuous+0xb8>
  }

  status = lis3mdl_write_register(dev, LIS3MDL_REG_CTRL_REG2, lis3mdl_full_scale_bits(full_scale));
 8001610:	78fb      	ldrb	r3, [r7, #3]
 8001612:	4618      	mov	r0, r3
 8001614:	f000 f9a0 	bl	8001958 <lis3mdl_full_scale_bits>
 8001618:	4603      	mov	r3, r0
 800161a:	461a      	mov	r2, r3
 800161c:	2121      	movs	r1, #33	; 0x21
 800161e:	6878      	ldr	r0, [r7, #4]
 8001620:	f000 f8ee 	bl	8001800 <lis3mdl_write_register>
 8001624:	4603      	mov	r3, r0
 8001626:	73fb      	strb	r3, [r7, #15]
  if (status != LIS3MDL_OK)
 8001628:	7bfb      	ldrb	r3, [r7, #15]
 800162a:	2b00      	cmp	r3, #0
 800162c:	d001      	beq.n	8001632 <lis3mdl_configure_continuous+0x56>
  {
    return status;
 800162e:	7bfb      	ldrb	r3, [r7, #15]
 8001630:	e030      	b.n	8001694 <lis3mdl_configure_continuous+0xb8>
  }

  status = lis3mdl_write_register(dev, LIS3MDL_REG_CTRL_REG3, LIS3MDL_CTRL_REG3_CONTINUOUS);
 8001632:	2200      	movs	r2, #0
 8001634:	2122      	movs	r1, #34	; 0x22
 8001636:	6878      	ldr	r0, [r7, #4]
 8001638:	f000 f8e2 	bl	8001800 <lis3mdl_write_register>
 800163c:	4603      	mov	r3, r0
 800163e:	73fb      	strb	r3, [r7, #15]
  if (status != LIS3MDL_OK)
 8001640:	7bfb      	ldrb	r3, [r7, #15]
 8001642:	2b00      	cmp	r3, #0
 8001644:	d001      	beq.n	800164a <lis3mdl_configure_continuous+0x6e>
  {
    return status;
 8001646:	7bfb      	ldrb	r3, [r7, #15]
 8001648:	e024      	b.n	8001694 <lis3mdl_configure_continuous+0xb8>
  }

  status = lis3mdl_write_register(dev, LIS3MDL_REG_CTRL_REG4, LIS3MDL_CTRL_REG4_Z_UHP);
 800164a:	220c      	movs	r2, #12
 800164c:	2123      	movs	r1, #35	; 0x23
 800164e:	6878      	ldr	r0, [r7, #4]
 8001650:	f000 f8d6 	bl	8001800 <lis3mdl_write_register>
 8001654:	4603      	mov	r3, r0
 8001656:	73fb      	strb	r3, [r7, #15]
  if (status != LIS3MDL_OK)
 8001658:	7bfb      	ldrb	r3, [r7, #15]
 800165a:	2b00      	cmp	r3, #0
 800165c:	d001      	beq.n	8001662 <lis3mdl_configure_continuous+0x86>
  {
    return status;
 800165e:	7bfb      	ldrb	r3, [r7, #15]
 8001660:	e018      	b.n	8001694 <lis3mdl_configure_continuous+0xb8>
  }

  status = lis3mdl_write_register(dev, LIS3MDL_REG_CTRL_REG5, LIS3MDL_CTRL_REG5_BDU);
 8001662:	2240      	movs	r2, #64	; 0x40
 8001664:	2124      	movs	r1, #36	; 0x24
 8001666:	6878      	ldr	r0, [r7, #4]
 8001668:	f000 f8ca 	bl	8001800 <lis3mdl_write_register>
 800166c:	4603      	mov	r3, r0
 800166e:	73fb      	strb	r3, [r7, #15]
  if (status != LIS3MDL_OK)
 8001670:	7bfb      	ldrb	r3, [r7, #15]
 8001672:	2b00      	cmp	r3, #0
 8001674:	d001      	beq.n	800167a <lis3mdl_configure_continuous+0x9e>
  {
    return status;
 8001676:	7bfb      	ldrb	r3, [r7, #15]
 8001678:	e00c      	b.n	8001694 <lis3mdl_configure_continuous+0xb8>
  }

  dev->full_scale = full_scale;
 800167a:	687b      	ldr	r3, [r7, #4]
 800167c:	78fa      	ldrb	r2, [r7, #3]
 800167e:	741a      	strb	r2, [r3, #16]
  dev->lsb_per_gauss = lis3mdl_lsb_per_gauss(full_scale);
 8001680:	78fb      	ldrb	r3, [r7, #3]
 8001682:	4618      	mov	r0, r3
 8001684:	f000 f88e 	bl	80017a4 <lis3mdl_lsb_per_gauss>
 8001688:	eef0 7a40 	vmov.f32	s15, s0
 800168c:	687b      	ldr	r3, [r7, #4]
 800168e:	edc3 7a05 	vstr	s15, [r3, #20]

  return LIS3MDL_OK;
 8001692:	2300      	movs	r3, #0
}
 8001694:	4618      	mov	r0, r3
 8001696:	3710      	adds	r7, #16
 8001698:	46bd      	mov	sp, r7
 800169a:	bd80      	pop	{r7, pc}

0800169c <lis3mdl_read_raw>:

lis3mdl_status_t lis3mdl_read_raw(lis3mdl_t *dev, lis3mdl_vector_raw_t *raw)
{
 800169c:	b580      	push	{r7, lr}
 800169e:	b084      	sub	sp, #16
 80016a0:	af00      	add	r7, sp, #0
 80016a2:	6078      	str	r0, [r7, #4]
 80016a4:	6039      	str	r1, [r7, #0]
  uint8_t data[6];
  lis3mdl_status_t status;

  if (raw == NULL)
 80016a6:	683b      	ldr	r3, [r7, #0]
 80016a8:	2b00      	cmp	r3, #0
 80016aa:	d101      	bne.n	80016b0 <lis3mdl_read_raw+0x14>
  {
    return LIS3MDL_ERROR_INVALID_ARG;
 80016ac:	2302      	movs	r3, #2
 80016ae:	e02b      	b.n	8001708 <lis3mdl_read_raw+0x6c>
  }

  status = lis3mdl_read_registers(dev, LIS3MDL_REG_OUT_X_L, data, sizeof(data));
 80016b0:	f107 0208 	add.w	r2, r7, #8
 80016b4:	2306      	movs	r3, #6
 80016b6:	2128      	movs	r1, #40	; 0x28
 80016b8:	6878      	ldr	r0, [r7, #4]
 80016ba:	f000 f8d8 	bl	800186e <lis3mdl_read_registers>
 80016be:	4603      	mov	r3, r0
 80016c0:	73fb      	strb	r3, [r7, #15]
  if (status != LIS3MDL_OK)
 80016c2:	7bfb      	ldrb	r3, [r7, #15]
 80016c4:	2b00      	cmp	r3, #0
 80016c6:	d001      	beq.n	80016cc <lis3mdl_read_raw+0x30>
  {
    return status;
 80016c8:	7bfb      	ldrb	r3, [r7, #15]
 80016ca:	e01d      	b.n	8001708 <lis3mdl_read_raw+0x6c>
  }

  raw->x = lis3mdl_le16_to_i16(&data[0]);
 80016cc:	f107 0308 	add.w	r3, r7, #8
 80016d0:	4618      	mov	r0, r3
 80016d2:	f000 f92d 	bl	8001930 <lis3mdl_le16_to_i16>
 80016d6:	4603      	mov	r3, r0
 80016d8:	461a      	mov	r2, r3
 80016da:	683b      	ldr	r3, [r7, #0]
 80016dc:	801a      	strh	r2, [r3, #0]
  raw->y = lis3mdl_le16_to_i16(&data[2]);
 80016de:	f107 0308 	add.w	r3, r7, #8
 80016e2:	3302      	adds	r3, #2
 80016e4:	4618      	mov	r0, r3
 80016e6:	f000 f923 	bl	8001930 <lis3mdl_le16_to_i16>
 80016ea:	4603      	mov	r3, r0
 80016ec:	461a      	mov	r2, r3
 80016ee:	683b      	ldr	r3, [r7, #0]
 80016f0:	805a      	strh	r2, [r3, #2]
  raw->z = lis3mdl_le16_to_i16(&data[4]);
 80016f2:	f107 0308 	add.w	r3, r7, #8
 80016f6:	3304      	adds	r3, #4
 80016f8:	4618      	mov	r0, r3
 80016fa:	f000 f919 	bl	8001930 <lis3mdl_le16_to_i16>
 80016fe:	4603      	mov	r3, r0
 8001700:	461a      	mov	r2, r3
 8001702:	683b      	ldr	r3, [r7, #0]
 8001704:	809a      	strh	r2, [r3, #4]

  return LIS3MDL_OK;
 8001706:	2300      	movs	r3, #0
}
 8001708:	4618      	mov	r0, r3
 800170a:	3710      	adds	r7, #16
 800170c:	46bd      	mov	sp, r7
 800170e:	bd80      	pop	{r7, pc}

08001710 <lis3mdl_read_gauss>:

lis3mdl_status_t lis3mdl_read_gauss(lis3mdl_t *dev, lis3mdl_vector_t *mag_gauss)
{
 8001710:	b580      	push	{r7, lr}
 8001712:	b084      	sub	sp, #16
 8001714:	af00      	add	r7, sp, #0
 8001716:	6078      	str	r0, [r7, #4]
 8001718:	6039      	str	r1, [r7, #0]
  lis3mdl_vector_raw_t raw;
  lis3mdl_status_t status;

  if ((dev == NULL) || (mag_gauss == NULL))
 800171a:	687b      	ldr	r3, [r7, #4]
 800171c:	2b00      	cmp	r3, #0
 800171e:	d002      	beq.n	8001726 <lis3mdl_read_gauss+0x16>
 8001720:	683b      	ldr	r3, [r7, #0]
 8001722:	2b00      	cmp	r3, #0
 8001724:	d101      	bne.n	800172a <lis3mdl_read_gauss+0x1a>
  {
    return LIS3MDL_ERROR_INVALID_ARG;
 8001726:	2302      	movs	r3, #2
 8001728:	e037      	b.n	800179a <lis3mdl_read_gauss+0x8a>
  }

  status = lis3mdl_read_raw(dev, &raw);
 800172a:	f107 0308 	add.w	r3, r7, #8
 800172e:	4619      	mov	r1, r3
 8001730:	6878      	ldr	r0, [r7, #4]
 8001732:	f7ff ffb3 	bl	800169c <lis3mdl_read_raw>
 8001736:	4603      	mov	r3, r0
 8001738:	73fb      	strb	r3, [r7, #15]
  if (status != LIS3MDL_OK)
 800173a:	7bfb      	ldrb	r3, [r7, #15]
 800173c:	2b00      	cmp	r3, #0
 800173e:	d001      	beq.n	8001744 <lis3mdl_read_gauss+0x34>
  {
    return status;
 8001740:	7bfb      	ldrb	r3, [r7, #15]
 8001742:	e02a      	b.n	800179a <lis3mdl_read_gauss+0x8a>
  }

  mag_gauss->x = (float)raw.x / dev->lsb_per_gauss;
 8001744:	f9b7 3008 	ldrsh.w	r3, [r7, #8]
 8001748:	ee07 3a90 	vmov	s15, r3
 800174c:	eef8 6ae7 	vcvt.f32.s32	s13, s15
 8001750:	687b      	ldr	r3, [r7, #4]
 8001752:	ed93 7a05 	vldr	s14, [r3, #20]
 8001756:	eec6 7a87 	vdiv.f32	s15, s13, s14
 800175a:	683b      	ldr	r3, [r7, #0]
 800175c:	edc3 7a00 	vstr	s15, [r3]
  mag_gauss->y = (float)raw.y / dev->lsb_per_gauss;
 8001760:	f9b7 300a 	ldrsh.w	r3, [r7, #10]
 8001764:	ee07 3a90 	vmov	s15, r3
 8001768:	eef8 6ae7 	vcvt.f32.s32	s13, s15
 800176c:	687b      	ldr	r3, [r7, #4]
 800176e:	ed93 7a05 	vldr	s14, [r3, #20]
 8001772:	eec6 7a87 	vdiv.f32	s15, s13, s14
 8001776:	683b      	ldr	r3, [r7, #0]
 8001778:	edc3 7a01 	vstr	s15, [r3, #4]
  mag_gauss->z = (float)raw.z / dev->lsb_per_gauss;
 800177c:	f9b7 300c 	ldrsh.w	r3, [r7, #12]
 8001780:	ee07 3a90 	vmov	s15, r3
 8001784:	eef8 6ae7 	vcvt.f32.s32	s13, s15
 8001788:	687b      	ldr	r3, [r7, #4]
 800178a:	ed93 7a05 	vldr	s14, [r3, #20]
 800178e:	eec6 7a87 	vdiv.f32	s15, s13, s14
 8001792:	683b      	ldr	r3, [r7, #0]
 8001794:	edc3 7a02 	vstr	s15, [r3, #8]

  return LIS3MDL_OK;
 8001798:	2300      	movs	r3, #0
}
 800179a:	4618      	mov	r0, r3
 800179c:	3710      	adds	r7, #16
 800179e:	46bd      	mov	sp, r7
 80017a0:	bd80      	pop	{r7, pc}
	...

080017a4 <lis3mdl_lsb_per_gauss>:
  calibration->soft_iron_matrix[2][1] = 0.0f;
  calibration->soft_iron_matrix[2][2] = 1.0f;
}

float lis3mdl_lsb_per_gauss(lis3mdl_full_scale_t full_scale)
{
 80017a4:	b480      	push	{r7}
 80017a6:	b083      	sub	sp, #12
 80017a8:	af00      	add	r7, sp, #0
 80017aa:	4603      	mov	r3, r0
 80017ac:	71fb      	strb	r3, [r7, #7]
  switch (full_scale)
 80017ae:	79fb      	ldrb	r3, [r7, #7]
 80017b0:	2b03      	cmp	r3, #3
 80017b2:	d813      	bhi.n	80017dc <lis3mdl_lsb_per_gauss+0x38>
 80017b4:	a201      	add	r2, pc, #4	; (adr r2, 80017bc <lis3mdl_lsb_per_gauss+0x18>)
 80017b6:	f852 f023 	ldr.w	pc, [r2, r3, lsl #2]
 80017ba:	bf00      	nop
 80017bc:	080017cd 	.word	0x080017cd
 80017c0:	080017d1 	.word	0x080017d1
 80017c4:	080017d5 	.word	0x080017d5
 80017c8:	080017d9 	.word	0x080017d9
  {
    case LIS3MDL_FS_4_GAUSS:
      return 6842.0f;
 80017cc:	4b08      	ldr	r3, [pc, #32]	; (80017f0 <lis3mdl_lsb_per_gauss+0x4c>)
 80017ce:	e006      	b.n	80017de <lis3mdl_lsb_per_gauss+0x3a>
    case LIS3MDL_FS_8_GAUSS:
      return 3421.0f;
 80017d0:	4b08      	ldr	r3, [pc, #32]	; (80017f4 <lis3mdl_lsb_per_gauss+0x50>)
 80017d2:	e004      	b.n	80017de <lis3mdl_lsb_per_gauss+0x3a>
    case LIS3MDL_FS_12_GAUSS:
      return 2281.0f;
 80017d4:	4b08      	ldr	r3, [pc, #32]	; (80017f8 <lis3mdl_lsb_per_gauss+0x54>)
 80017d6:	e002      	b.n	80017de <lis3mdl_lsb_per_gauss+0x3a>
    case LIS3MDL_FS_16_GAUSS:
      return 1711.0f;
 80017d8:	4b08      	ldr	r3, [pc, #32]	; (80017fc <lis3mdl_lsb_per_gauss+0x58>)
 80017da:	e000      	b.n	80017de <lis3mdl_lsb_per_gauss+0x3a>
    default:
      return 6842.0f;
 80017dc:	4b04      	ldr	r3, [pc, #16]	; (80017f0 <lis3mdl_lsb_per_gauss+0x4c>)
  }
}
 80017de:	ee07 3a90 	vmov	s15, r3
 80017e2:	eeb0 0a67 	vmov.f32	s0, s15
 80017e6:	370c      	adds	r7, #12
 80017e8:	46bd      	mov	sp, r7
 80017ea:	f85d 7b04 	ldr.w	r7, [sp], #4
 80017ee:	4770      	bx	lr
 80017f0:	45d5d000 	.word	0x45d5d000
 80017f4:	4555d000 	.word	0x4555d000
 80017f8:	450e9000 	.word	0x450e9000
 80017fc:	44d5e000 	.word	0x44d5e000

08001800 <lis3mdl_write_register>:

lis3mdl_status_t lis3mdl_write_register(lis3mdl_t *dev, uint8_t reg, uint8_t value)
{
 8001800:	b580      	push	{r7, lr}
 8001802:	b084      	sub	sp, #16
 8001804:	af00      	add	r7, sp, #0
 8001806:	6078      	str	r0, [r7, #4]
 8001808:	460b      	mov	r3, r1
 800180a:	70fb      	strb	r3, [r7, #3]
 800180c:	4613      	mov	r3, r2
 800180e:	70bb      	strb	r3, [r7, #2]
  uint8_t tx[2];

  if (dev == NULL)
 8001810:	687b      	ldr	r3, [r7, #4]
 8001812:	2b00      	cmp	r3, #0
 8001814:	d101      	bne.n	800181a <lis3mdl_write_register+0x1a>
  {
    return LIS3MDL_ERROR_INVALID_ARG;
 8001816:	2302      	movs	r3, #2
 8001818:	e00e      	b.n	8001838 <lis3mdl_write_register+0x38>
  }

  tx[0] = reg & LIS3MDL_SPI_WRITE_MASK;
 800181a:	78fb      	ldrb	r3, [r7, #3]
 800181c:	f003 033f 	and.w	r3, r3, #63	; 0x3f
 8001820:	b2db      	uxtb	r3, r3
 8001822:	733b      	strb	r3, [r7, #12]
  tx[1] = value;
 8001824:	78bb      	ldrb	r3, [r7, #2]
 8001826:	737b      	strb	r3, [r7, #13]

  return lis3mdl_spi_write(dev, tx, sizeof(tx));
 8001828:	f107 030c 	add.w	r3, r7, #12
 800182c:	2202      	movs	r2, #2
 800182e:	4619      	mov	r1, r3
 8001830:	6878      	ldr	r0, [r7, #4]
 8001832:	f000 f8a2 	bl	800197a <lis3mdl_spi_write>
 8001836:	4603      	mov	r3, r0
}
 8001838:	4618      	mov	r0, r3
 800183a:	3710      	adds	r7, #16
 800183c:	46bd      	mov	sp, r7
 800183e:	bd80      	pop	{r7, pc}

08001840 <lis3mdl_read_register>:

lis3mdl_status_t lis3mdl_read_register(lis3mdl_t *dev, uint8_t reg, uint8_t *value)
{
 8001840:	b580      	push	{r7, lr}
 8001842:	b084      	sub	sp, #16
 8001844:	af00      	add	r7, sp, #0
 8001846:	60f8      	str	r0, [r7, #12]
 8001848:	460b      	mov	r3, r1
 800184a:	607a      	str	r2, [r7, #4]
 800184c:	72fb      	strb	r3, [r7, #11]
  if (value == NULL)
 800184e:	687b      	ldr	r3, [r7, #4]
 8001850:	2b00      	cmp	r3, #0
 8001852:	d101      	bne.n	8001858 <lis3mdl_read_register+0x18>
  {
    return LIS3MDL_ERROR_INVALID_ARG;
 8001854:	2302      	movs	r3, #2
 8001856:	e006      	b.n	8001866 <lis3mdl_read_register+0x26>
  }

  return lis3mdl_read_registers(dev, reg, value, 1U);
 8001858:	7af9      	ldrb	r1, [r7, #11]
 800185a:	2301      	movs	r3, #1
 800185c:	687a      	ldr	r2, [r7, #4]
 800185e:	68f8      	ldr	r0, [r7, #12]
 8001860:	f000 f805 	bl	800186e <lis3mdl_read_registers>
 8001864:	4603      	mov	r3, r0
}
 8001866:	4618      	mov	r0, r3
 8001868:	3710      	adds	r7, #16
 800186a:	46bd      	mov	sp, r7
 800186c:	bd80      	pop	{r7, pc}

0800186e <lis3mdl_read_registers>:

lis3mdl_status_t lis3mdl_read_registers(lis3mdl_t *dev, uint8_t reg, uint8_t *data, uint16_t length)
{
 800186e:	b580      	push	{r7, lr}
 8001870:	b086      	sub	sp, #24
 8001872:	af00      	add	r7, sp, #0
 8001874:	60f8      	str	r0, [r7, #12]
 8001876:	607a      	str	r2, [r7, #4]
 8001878:	461a      	mov	r2, r3
 800187a:	460b      	mov	r3, r1
 800187c:	72fb      	strb	r3, [r7, #11]
 800187e:	4613      	mov	r3, r2
 8001880:	813b      	strh	r3, [r7, #8]
  uint8_t tx_header;
  HAL_StatusTypeDef hal_status;

  if ((dev == NULL) || (dev->hspi == NULL) || (dev->cs_port == NULL) || (data == NULL) || (length == 0U))
 8001882:	68fb      	ldr	r3, [r7, #12]
 8001884:	2b00      	cmp	r3, #0
 8001886:	d00d      	beq.n	80018a4 <lis3mdl_read_registers+0x36>
 8001888:	68fb      	ldr	r3, [r7, #12]
 800188a:	681b      	ldr	r3, [r3, #0]
 800188c:	2b00      	cmp	r3, #0
 800188e:	d009      	beq.n	80018a4 <lis3mdl_read_registers+0x36>
 8001890:	68fb      	ldr	r3, [r7, #12]
 8001892:	685b      	ldr	r3, [r3, #4]
 8001894:	2b00      	cmp	r3, #0
 8001896:	d005      	beq.n	80018a4 <lis3mdl_read_registers+0x36>
 8001898:	687b      	ldr	r3, [r7, #4]
 800189a:	2b00      	cmp	r3, #0
 800189c:	d002      	beq.n	80018a4 <lis3mdl_read_registers+0x36>
 800189e:	893b      	ldrh	r3, [r7, #8]
 80018a0:	2b00      	cmp	r3, #0
 80018a2:	d101      	bne.n	80018a8 <lis3mdl_read_registers+0x3a>
  {
    return LIS3MDL_ERROR_INVALID_ARG;
 80018a4:	2302      	movs	r3, #2
 80018a6:	e03f      	b.n	8001928 <lis3mdl_read_registers+0xba>
  }

  tx_header = reg | LIS3MDL_SPI_READ_BIT;
 80018a8:	7afb      	ldrb	r3, [r7, #11]
 80018aa:	f063 037f 	orn	r3, r3, #127	; 0x7f
 80018ae:	b2db      	uxtb	r3, r3
 80018b0:	75bb      	strb	r3, [r7, #22]
  if (length > 1U)
 80018b2:	893b      	ldrh	r3, [r7, #8]
 80018b4:	2b01      	cmp	r3, #1
 80018b6:	d904      	bls.n	80018c2 <lis3mdl_read_registers+0x54>
  {
    tx_header |= LIS3MDL_SPI_AUTO_INCREMENT_BIT;
 80018b8:	7dbb      	ldrb	r3, [r7, #22]
 80018ba:	f043 0340 	orr.w	r3, r3, #64	; 0x40
 80018be:	b2db      	uxtb	r3, r3
 80018c0:	75bb      	strb	r3, [r7, #22]
  }

  HAL_GPIO_WritePin(dev->cs_port, dev->cs_pin, GPIO_PIN_RESET);
 80018c2:	68fb      	ldr	r3, [r7, #12]
 80018c4:	6858      	ldr	r0, [r3, #4]
 80018c6:	68fb      	ldr	r3, [r7, #12]
 80018c8:	891b      	ldrh	r3, [r3, #8]
 80018ca:	2200      	movs	r2, #0
 80018cc:	4619      	mov	r1, r3
 80018ce:	f002 f987 	bl	8003be0 <HAL_GPIO_WritePin>
  hal_status = HAL_SPI_Transmit(dev->hspi, &tx_header, 1U, dev->timeout_ms);
 80018d2:	68fb      	ldr	r3, [r7, #12]
 80018d4:	6818      	ldr	r0, [r3, #0]
 80018d6:	68fb      	ldr	r3, [r7, #12]
 80018d8:	68db      	ldr	r3, [r3, #12]
 80018da:	f107 0116 	add.w	r1, r7, #22
 80018de:	2201      	movs	r2, #1
 80018e0:	f004 ff47 	bl	8006772 <HAL_SPI_Transmit>
 80018e4:	4603      	mov	r3, r0
 80018e6:	75fb      	strb	r3, [r7, #23]
  if (hal_status == HAL_OK)
 80018e8:	7dfb      	ldrb	r3, [r7, #23]
 80018ea:	2b00      	cmp	r3, #0
 80018ec:	d109      	bne.n	8001902 <lis3mdl_read_registers+0x94>
  {
    hal_status = HAL_SPI_Receive(dev->hspi, data, length, dev->timeout_ms);
 80018ee:	68fb      	ldr	r3, [r7, #12]
 80018f0:	6818      	ldr	r0, [r3, #0]
 80018f2:	68fb      	ldr	r3, [r7, #12]
 80018f4:	68db      	ldr	r3, [r3, #12]
 80018f6:	893a      	ldrh	r2, [r7, #8]
 80018f8:	6879      	ldr	r1, [r7, #4]
 80018fa:	f005 f8af 	bl	8006a5c <HAL_SPI_Receive>
 80018fe:	4603      	mov	r3, r0
 8001900:	75fb      	strb	r3, [r7, #23]
  }
  HAL_GPIO_WritePin(dev->cs_port, dev->cs_pin, GPIO_PIN_SET);
 8001902:	68fb      	ldr	r3, [r7, #12]
 8001904:	6858      	ldr	r0, [r3, #4]
 8001906:	68fb      	ldr	r3, [r7, #12]
 8001908:	891b      	ldrh	r3, [r3, #8]
 800190a:	2201      	movs	r2, #1
 800190c:	4619      	mov	r1, r3
 800190e:	f002 f967 	bl	8003be0 <HAL_GPIO_WritePin>

  if (hal_status == HAL_TIMEOUT)
 8001912:	7dfb      	ldrb	r3, [r7, #23]
 8001914:	2b03      	cmp	r3, #3
 8001916:	d101      	bne.n	800191c <lis3mdl_read_registers+0xae>
  {
    return LIS3MDL_ERROR_TIMEOUT;
 8001918:	2305      	movs	r3, #5
 800191a:	e005      	b.n	8001928 <lis3mdl_read_registers+0xba>
  }

  if (hal_status != HAL_OK)
 800191c:	7dfb      	ldrb	r3, [r7, #23]
 800191e:	2b00      	cmp	r3, #0
 8001920:	d001      	beq.n	8001926 <lis3mdl_read_registers+0xb8>
  {
    return LIS3MDL_ERROR_HAL;
 8001922:	2303      	movs	r3, #3
 8001924:	e000      	b.n	8001928 <lis3mdl_read_registers+0xba>
  }

  return LIS3MDL_OK;
 8001926:	2300      	movs	r3, #0
}
 8001928:	4618      	mov	r0, r3
 800192a:	3718      	adds	r7, #24
 800192c:	46bd      	mov	sp, r7
 800192e:	bd80      	pop	{r7, pc}

08001930 <lis3mdl_le16_to_i16>:

static int16_t lis3mdl_le16_to_i16(const uint8_t *data)
{
 8001930:	b480      	push	{r7}
 8001932:	b083      	sub	sp, #12
 8001934:	af00      	add	r7, sp, #0
 8001936:	6078      	str	r0, [r7, #4]
  return (int16_t)(((uint16_t)data[1] << 8) | data[0]);
 8001938:	687b      	ldr	r3, [r7, #4]
 800193a:	3301      	adds	r3, #1
 800193c:	781b      	ldrb	r3, [r3, #0]
 800193e:	021b      	lsls	r3, r3, #8
 8001940:	b21a      	sxth	r2, r3
 8001942:	687b      	ldr	r3, [r7, #4]
 8001944:	781b      	ldrb	r3, [r3, #0]
 8001946:	b21b      	sxth	r3, r3
 8001948:	4313      	orrs	r3, r2
 800194a:	b21b      	sxth	r3, r3
}
 800194c:	4618      	mov	r0, r3
 800194e:	370c      	adds	r7, #12
 8001950:	46bd      	mov	sp, r7
 8001952:	f85d 7b04 	ldr.w	r7, [sp], #4
 8001956:	4770      	bx	lr

08001958 <lis3mdl_full_scale_bits>:

static uint8_t lis3mdl_full_scale_bits(lis3mdl_full_scale_t full_scale)
{
 8001958:	b480      	push	{r7}
 800195a:	b083      	sub	sp, #12
 800195c:	af00      	add	r7, sp, #0
 800195e:	4603      	mov	r3, r0
 8001960:	71fb      	strb	r3, [r7, #7]
  return (uint8_t)(((uint8_t)full_scale & 0x03U) << 5);
 8001962:	79fb      	ldrb	r3, [r7, #7]
 8001964:	015b      	lsls	r3, r3, #5
 8001966:	b2db      	uxtb	r3, r3
 8001968:	f003 0360 	and.w	r3, r3, #96	; 0x60
 800196c:	b2db      	uxtb	r3, r3
}
 800196e:	4618      	mov	r0, r3
 8001970:	370c      	adds	r7, #12
 8001972:	46bd      	mov	sp, r7
 8001974:	f85d 7b04 	ldr.w	r7, [sp], #4
 8001978:	4770      	bx	lr

0800197a <lis3mdl_spi_write>:

static lis3mdl_status_t lis3mdl_spi_write(lis3mdl_t *dev, const uint8_t *data, uint16_t length)
{
 800197a:	b580      	push	{r7, lr}
 800197c:	b086      	sub	sp, #24
 800197e:	af00      	add	r7, sp, #0
 8001980:	60f8      	str	r0, [r7, #12]
 8001982:	60b9      	str	r1, [r7, #8]
 8001984:	4613      	mov	r3, r2
 8001986:	80fb      	strh	r3, [r7, #6]
  HAL_StatusTypeDef hal_status;

  if ((dev == NULL) || (dev->hspi == NULL) || (dev->cs_port == NULL) || (data == NULL) || (length == 0U))
 8001988:	68fb      	ldr	r3, [r7, #12]
 800198a:	2b00      	cmp	r3, #0
 800198c:	d00d      	beq.n	80019aa <lis3mdl_spi_write+0x30>
 800198e:	68fb      	ldr	r3, [r7, #12]
 8001990:	681b      	ldr	r3, [r3, #0]
 8001992:	2b00      	cmp	r3, #0
 8001994:	d009      	beq.n	80019aa <lis3mdl_spi_write+0x30>
 8001996:	68fb      	ldr	r3, [r7, #12]
 8001998:	685b      	ldr	r3, [r3, #4]
 800199a:	2b00      	cmp	r3, #0
 800199c:	d005      	beq.n	80019aa <lis3mdl_spi_write+0x30>
 800199e:	68bb      	ldr	r3, [r7, #8]
 80019a0:	2b00      	cmp	r3, #0
 80019a2:	d002      	beq.n	80019aa <lis3mdl_spi_write+0x30>
 80019a4:	88fb      	ldrh	r3, [r7, #6]
 80019a6:	2b00      	cmp	r3, #0
 80019a8:	d101      	bne.n	80019ae <lis3mdl_spi_write+0x34>
  {
    return LIS3MDL_ERROR_INVALID_ARG;
 80019aa:	2302      	movs	r3, #2
 80019ac:	e024      	b.n	80019f8 <lis3mdl_spi_write+0x7e>
  }

  HAL_GPIO_WritePin(dev->cs_port, dev->cs_pin, GPIO_PIN_RESET);
 80019ae:	68fb      	ldr	r3, [r7, #12]
 80019b0:	6858      	ldr	r0, [r3, #4]
 80019b2:	68fb      	ldr	r3, [r7, #12]
 80019b4:	891b      	ldrh	r3, [r3, #8]
 80019b6:	2200      	movs	r2, #0
 80019b8:	4619      	mov	r1, r3
 80019ba:	f002 f911 	bl	8003be0 <HAL_GPIO_WritePin>
  hal_status = HAL_SPI_Transmit(dev->hspi, (uint8_t *)data, length, dev->timeout_ms);
 80019be:	68fb      	ldr	r3, [r7, #12]
 80019c0:	6818      	ldr	r0, [r3, #0]
 80019c2:	68fb      	ldr	r3, [r7, #12]
 80019c4:	68db      	ldr	r3, [r3, #12]
 80019c6:	88fa      	ldrh	r2, [r7, #6]
 80019c8:	68b9      	ldr	r1, [r7, #8]
 80019ca:	f004 fed2 	bl	8006772 <HAL_SPI_Transmit>
 80019ce:	4603      	mov	r3, r0
 80019d0:	75fb      	strb	r3, [r7, #23]
  HAL_GPIO_WritePin(dev->cs_port, dev->cs_pin, GPIO_PIN_SET);
 80019d2:	68fb      	ldr	r3, [r7, #12]
 80019d4:	6858      	ldr	r0, [r3, #4]
 80019d6:	68fb      	ldr	r3, [r7, #12]
 80019d8:	891b      	ldrh	r3, [r3, #8]
 80019da:	2201      	movs	r2, #1
 80019dc:	4619      	mov	r1, r3
 80019de:	f002 f8ff 	bl	8003be0 <HAL_GPIO_WritePin>

  if (hal_status == HAL_TIMEOUT)
 80019e2:	7dfb      	ldrb	r3, [r7, #23]
 80019e4:	2b03      	cmp	r3, #3
 80019e6:	d101      	bne.n	80019ec <lis3mdl_spi_write+0x72>
  {
    return LIS3MDL_ERROR_TIMEOUT;
 80019e8:	2305      	movs	r3, #5
 80019ea:	e005      	b.n	80019f8 <lis3mdl_spi_write+0x7e>
  }

  if (hal_status != HAL_OK)
 80019ec:	7dfb      	ldrb	r3, [r7, #23]
 80019ee:	2b00      	cmp	r3, #0
 80019f0:	d001      	beq.n	80019f6 <lis3mdl_spi_write+0x7c>
  {
    return LIS3MDL_ERROR_HAL;
 80019f2:	2303      	movs	r3, #3
 80019f4:	e000      	b.n	80019f8 <lis3mdl_spi_write+0x7e>
  }

  return LIS3MDL_OK;
 80019f6:	2300      	movs	r3, #0
}
 80019f8:	4618      	mov	r0, r3
 80019fa:	3718      	adds	r7, #24
 80019fc:	46bd      	mov	sp, r7
 80019fe:	bd80      	pop	{r7, pc}

08001a00 <main>:
/**
  * @brief  The application entry point.
  * @retval int
  */
int main(void)
{
 8001a00:	b580      	push	{r7, lr}
 8001a02:	b082      	sub	sp, #8
 8001a04:	af02      	add	r7, sp, #8
  /* USER CODE END 1 */

  /* MCU Configuration--------------------------------------------------------*/

  /* Reset of all peripherals, Initializes the Flash interface and the Systick. */
  HAL_Init();
 8001a06:	f001 fa8a 	bl	8002f1e <HAL_Init>
  /* USER CODE BEGIN Init */

  /* USER CODE END Init */

  /* Configure the system clock */
  SystemClock_Config();
 8001a0a:	f000 f8ab 	bl	8001b64 <SystemClock_Config>
  /* USER CODE BEGIN SysInit */

  /* USER CODE END SysInit */

  /* Initialize all configured peripherals */
  MX_GPIO_Init();
 8001a0e:	f000 f9c9 	bl	8001da4 <MX_GPIO_Init>
  MX_LPUART1_UART_Init();
 8001a12:	f000 f8f3 	bl	8001bfc <MX_LPUART1_UART_Init>
  MX_USART2_UART_Init();
 8001a16:	f000 f93b 	bl	8001c90 <MX_USART2_UART_Init>
  MX_SPI1_Init();
 8001a1a:	f000 f985 	bl	8001d28 <MX_SPI1_Init>
  MX_USB_Device_Init();
 8001a1e:	f00a fea5 	bl	800c76c <MX_USB_Device_Init>
  /* USER CODE BEGIN 2 */
  app_calibration_init(&calibration_app, &imu, &mag, &prs, &prs_calibration, &mag_calibration);
 8001a22:	4b44      	ldr	r3, [pc, #272]	; (8001b34 <main+0x134>)
 8001a24:	9301      	str	r3, [sp, #4]
 8001a26:	4b44      	ldr	r3, [pc, #272]	; (8001b38 <main+0x138>)
 8001a28:	9300      	str	r3, [sp, #0]
 8001a2a:	4b44      	ldr	r3, [pc, #272]	; (8001b3c <main+0x13c>)
 8001a2c:	4a44      	ldr	r2, [pc, #272]	; (8001b40 <main+0x140>)
 8001a2e:	4945      	ldr	r1, [pc, #276]	; (8001b44 <main+0x144>)
 8001a30:	4845      	ldr	r0, [pc, #276]	; (8001b48 <main+0x148>)
 8001a32:	f7fe fd73 	bl	800051c <app_calibration_init>

  HAL_GPIO_WritePin(SPI_MAG_CS_GPIO_Port, SPI_MAG_CS_Pin, GPIO_PIN_SET);
 8001a36:	2201      	movs	r2, #1
 8001a38:	2101      	movs	r1, #1
 8001a3a:	f04f 4090 	mov.w	r0, #1207959552	; 0x48000000
 8001a3e:	f002 f8cf 	bl	8003be0 <HAL_GPIO_WritePin>
  HAL_GPIO_WritePin(SPI_PRS_CS_GPIO_Port, SPI_PRS_CS_Pin, GPIO_PIN_SET);
 8001a42:	2201      	movs	r2, #1
 8001a44:	2102      	movs	r1, #2
 8001a46:	f04f 4090 	mov.w	r0, #1207959552	; 0x48000000
 8001a4a:	f002 f8c9 	bl	8003be0 <HAL_GPIO_WritePin>
  HAL_GPIO_WritePin(SPI_IMU_CS_GPIO_Port, SPI_IMU_CS_Pin, GPIO_PIN_SET);
 8001a4e:	2201      	movs	r2, #1
 8001a50:	2110      	movs	r1, #16
 8001a52:	f04f 4090 	mov.w	r0, #1207959552	; 0x48000000
 8001a56:	f002 f8c3 	bl	8003be0 <HAL_GPIO_WritePin>

  imu_status = mpu6500_init(&imu, &hspi1, SPI_IMU_CS_GPIO_Port, SPI_IMU_CS_Pin, &imu_config);
 8001a5a:	4b3c      	ldr	r3, [pc, #240]	; (8001b4c <main+0x14c>)
 8001a5c:	9300      	str	r3, [sp, #0]
 8001a5e:	2310      	movs	r3, #16
 8001a60:	f04f 4290 	mov.w	r2, #1207959552	; 0x48000000
 8001a64:	493a      	ldr	r1, [pc, #232]	; (8001b50 <main+0x150>)
 8001a66:	4837      	ldr	r0, [pc, #220]	; (8001b44 <main+0x144>)
 8001a68:	f000 fa1f 	bl	8001eaa <mpu6500_init>
 8001a6c:	4603      	mov	r3, r0
 8001a6e:	461a      	mov	r2, r3
 8001a70:	4b38      	ldr	r3, [pc, #224]	; (8001b54 <main+0x154>)
 8001a72:	701a      	strb	r2, [r3, #0]
  if (imu_status == MPU6500_OK)
 8001a74:	4b37      	ldr	r3, [pc, #220]	; (8001b54 <main+0x154>)
 8001a76:	781b      	ldrb	r3, [r3, #0]
 8001a78:	b2db      	uxtb	r3, r3
 8001a7a:	2b00      	cmp	r3, #0
 8001a7c:	d103      	bne.n	8001a86 <main+0x86>
  {
    app_calibration_request(&calibration_app, APP_CAL_CMD_GYRO_ZERO);
 8001a7e:	2101      	movs	r1, #1
 8001a80:	4831      	ldr	r0, [pc, #196]	; (8001b48 <main+0x148>)
 8001a82:	f7fe ff70 	bl	8000966 <app_calibration_request>
  }

  mag_status = lis3mdl_init(&mag, &hspi1, SPI_MAG_CS_GPIO_Port, SPI_MAG_CS_Pin);
 8001a86:	2301      	movs	r3, #1
 8001a88:	f04f 4290 	mov.w	r2, #1207959552	; 0x48000000
 8001a8c:	4930      	ldr	r1, [pc, #192]	; (8001b50 <main+0x150>)
 8001a8e:	482c      	ldr	r0, [pc, #176]	; (8001b40 <main+0x140>)
 8001a90:	f7ff fd3f 	bl	8001512 <lis3mdl_init>
 8001a94:	4603      	mov	r3, r0
 8001a96:	461a      	mov	r2, r3
 8001a98:	4b2f      	ldr	r3, [pc, #188]	; (8001b58 <main+0x158>)
 8001a9a:	701a      	strb	r2, [r3, #0]
  if (mag_status == LIS3MDL_OK)
 8001a9c:	4b2e      	ldr	r3, [pc, #184]	; (8001b58 <main+0x158>)
 8001a9e:	781b      	ldrb	r3, [r3, #0]
 8001aa0:	b2db      	uxtb	r3, r3
 8001aa2:	2b00      	cmp	r3, #0
 8001aa4:	d107      	bne.n	8001ab6 <main+0xb6>
  {
    mag_status = lis3mdl_configure_continuous(&mag, LIS3MDL_FS_4_GAUSS);
 8001aa6:	2100      	movs	r1, #0
 8001aa8:	4825      	ldr	r0, [pc, #148]	; (8001b40 <main+0x140>)
 8001aaa:	f7ff fd97 	bl	80015dc <lis3mdl_configure_continuous>
 8001aae:	4603      	mov	r3, r0
 8001ab0:	461a      	mov	r2, r3
 8001ab2:	4b29      	ldr	r3, [pc, #164]	; (8001b58 <main+0x158>)
 8001ab4:	701a      	strb	r2, [r3, #0]
  }

  prs_status = dps310_init(&prs, &hspi1, SPI_PRS_CS_GPIO_Port, SPI_PRS_CS_Pin);
 8001ab6:	2302      	movs	r3, #2
 8001ab8:	f04f 4290 	mov.w	r2, #1207959552	; 0x48000000
 8001abc:	4924      	ldr	r1, [pc, #144]	; (8001b50 <main+0x150>)
 8001abe:	481f      	ldr	r0, [pc, #124]	; (8001b3c <main+0x13c>)
 8001ac0:	f7ff f964 	bl	8000d8c <dps310_init>
 8001ac4:	4603      	mov	r3, r0
 8001ac6:	461a      	mov	r2, r3
 8001ac8:	4b24      	ldr	r3, [pc, #144]	; (8001b5c <main+0x15c>)
 8001aca:	701a      	strb	r2, [r3, #0]
  if (prs_status == DPS310_OK)
 8001acc:	4b23      	ldr	r3, [pc, #140]	; (8001b5c <main+0x15c>)
 8001ace:	781b      	ldrb	r3, [r3, #0]
 8001ad0:	b2db      	uxtb	r3, r3
 8001ad2:	2b00      	cmp	r3, #0
 8001ad4:	d107      	bne.n	8001ae6 <main+0xe6>
  {
    prs_status = dps310_read_calibration(&prs, &prs_calibration);
 8001ad6:	4918      	ldr	r1, [pc, #96]	; (8001b38 <main+0x138>)
 8001ad8:	4818      	ldr	r0, [pc, #96]	; (8001b3c <main+0x13c>)
 8001ada:	f7ff f9c6 	bl	8000e6a <dps310_read_calibration>
 8001ade:	4603      	mov	r3, r0
 8001ae0:	461a      	mov	r2, r3
 8001ae2:	4b1e      	ldr	r3, [pc, #120]	; (8001b5c <main+0x15c>)
 8001ae4:	701a      	strb	r2, [r3, #0]
  }
  if (prs_status == DPS310_OK)
 8001ae6:	4b1d      	ldr	r3, [pc, #116]	; (8001b5c <main+0x15c>)
 8001ae8:	781b      	ldrb	r3, [r3, #0]
 8001aea:	b2db      	uxtb	r3, r3
 8001aec:	2b00      	cmp	r3, #0
 8001aee:	d108      	bne.n	8001b02 <main+0x102>
  {
    prs_status = dps310_configure_continuous(&prs, DPS310_OVERSAMPLING_1, DPS310_OVERSAMPLING_1);
 8001af0:	2200      	movs	r2, #0
 8001af2:	2100      	movs	r1, #0
 8001af4:	4811      	ldr	r0, [pc, #68]	; (8001b3c <main+0x13c>)
 8001af6:	f7ff fa42 	bl	8000f7e <dps310_configure_continuous>
 8001afa:	4603      	mov	r3, r0
 8001afc:	461a      	mov	r2, r3
 8001afe:	4b17      	ldr	r3, [pc, #92]	; (8001b5c <main+0x15c>)
 8001b00:	701a      	strb	r2, [r3, #0]
  while (1)
  {
    /* USER CODE END WHILE */

    /* USER CODE BEGIN 3 */
    if (cal_command != APP_CAL_CMD_NONE)
 8001b02:	4b17      	ldr	r3, [pc, #92]	; (8001b60 <main+0x160>)
 8001b04:	781b      	ldrb	r3, [r3, #0]
 8001b06:	b2db      	uxtb	r3, r3
 8001b08:	2b00      	cmp	r3, #0
 8001b0a:	d009      	beq.n	8001b20 <main+0x120>
    {
      app_calibration_request(&calibration_app, cal_command);
 8001b0c:	4b14      	ldr	r3, [pc, #80]	; (8001b60 <main+0x160>)
 8001b0e:	781b      	ldrb	r3, [r3, #0]
 8001b10:	b2db      	uxtb	r3, r3
 8001b12:	4619      	mov	r1, r3
 8001b14:	480c      	ldr	r0, [pc, #48]	; (8001b48 <main+0x148>)
 8001b16:	f7fe ff26 	bl	8000966 <app_calibration_request>
      cal_command = APP_CAL_CMD_NONE;
 8001b1a:	4b11      	ldr	r3, [pc, #68]	; (8001b60 <main+0x160>)
 8001b1c:	2200      	movs	r2, #0
 8001b1e:	701a      	strb	r2, [r3, #0]
    }
    app_calibration_process(&calibration_app);
 8001b20:	4809      	ldr	r0, [pc, #36]	; (8001b48 <main+0x148>)
 8001b22:	f7fe fd63 	bl	80005ec <app_calibration_process>
    app_calibration_update_mag(&calibration_app);
 8001b26:	4808      	ldr	r0, [pc, #32]	; (8001b48 <main+0x148>)
 8001b28:	f7fe fe98 	bl	800085c <app_calibration_update_mag>
    HAL_Delay(1U);
 8001b2c:	2001      	movs	r0, #1
 8001b2e:	f001 fa67 	bl	8003000 <HAL_Delay>
    if (cal_command != APP_CAL_CMD_NONE)
 8001b32:	e7e6      	b.n	8001b02 <main+0x102>
 8001b34:	2000039c 	.word	0x2000039c
 8001b38:	200003cc 	.word	0x200003cc
 8001b3c:	2000038c 	.word	0x2000038c
 8001b40:	20000374 	.word	0x20000374
 8001b44:	20000358 	.word	0x20000358
 8001b48:	200003e4 	.word	0x200003e4
 8001b4c:	20000000 	.word	0x20000000
 8001b50:	200002f4 	.word	0x200002f4
 8001b54:	20000004 	.word	0x20000004
 8001b58:	20000005 	.word	0x20000005
 8001b5c:	20000006 	.word	0x20000006
 8001b60:	20000524 	.word	0x20000524

08001b64 <SystemClock_Config>:
/**
  * @brief System Clock Configuration
  * @retval None
  */
void SystemClock_Config(void)
{
 8001b64:	b580      	push	{r7, lr}
 8001b66:	b094      	sub	sp, #80	; 0x50
 8001b68:	af00      	add	r7, sp, #0
  RCC_OscInitTypeDef RCC_OscInitStruct = {0};
 8001b6a:	f107 0318 	add.w	r3, r7, #24
 8001b6e:	2238      	movs	r2, #56	; 0x38
 8001b70:	2100      	movs	r1, #0
 8001b72:	4618      	mov	r0, r3
 8001b74:	f00b fb10 	bl	800d198 <memset>
  RCC_ClkInitTypeDef RCC_ClkInitStruct = {0};
 8001b78:	1d3b      	adds	r3, r7, #4
 8001b7a:	2200      	movs	r2, #0
 8001b7c:	601a      	str	r2, [r3, #0]
 8001b7e:	605a      	str	r2, [r3, #4]
 8001b80:	609a      	str	r2, [r3, #8]
 8001b82:	60da      	str	r2, [r3, #12]
 8001b84:	611a      	str	r2, [r3, #16]

  /** Configure the main internal regulator output voltage
  */
  HAL_PWREx_ControlVoltageScaling(PWR_REGULATOR_VOLTAGE_SCALE1);
 8001b86:	f44f 7000 	mov.w	r0, #512	; 0x200
 8001b8a:	f003 fd75 	bl	8005678 <HAL_PWREx_ControlVoltageScaling>

  /** Initializes the RCC Oscillators according to the specified parameters
  * in the RCC_OscInitTypeDef structure.
  */
  RCC_OscInitStruct.OscillatorType = RCC_OSCILLATORTYPE_HSI;
 8001b8e:	2302      	movs	r3, #2
 8001b90:	61bb      	str	r3, [r7, #24]
  RCC_OscInitStruct.HSIState = RCC_HSI_ON;
 8001b92:	f44f 7380 	mov.w	r3, #256	; 0x100
 8001b96:	627b      	str	r3, [r7, #36]	; 0x24
  RCC_OscInitStruct.HSICalibrationValue = RCC_HSICALIBRATION_DEFAULT;
 8001b98:	2340      	movs	r3, #64	; 0x40
 8001b9a:	62bb      	str	r3, [r7, #40]	; 0x28
  RCC_OscInitStruct.PLL.PLLState = RCC_PLL_ON;
 8001b9c:	2302      	movs	r3, #2
 8001b9e:	637b      	str	r3, [r7, #52]	; 0x34
  RCC_OscInitStruct.PLL.PLLSource = RCC_PLLSOURCE_HSI;
 8001ba0:	2302      	movs	r3, #2
 8001ba2:	63bb      	str	r3, [r7, #56]	; 0x38
  RCC_OscInitStruct.PLL.PLLM = RCC_PLLM_DIV1;
 8001ba4:	2301      	movs	r3, #1
 8001ba6:	63fb      	str	r3, [r7, #60]	; 0x3c
  RCC_OscInitStruct.PLL.PLLN = 12;
 8001ba8:	230c      	movs	r3, #12
 8001baa:	643b      	str	r3, [r7, #64]	; 0x40
  RCC_OscInitStruct.PLL.PLLP = RCC_PLLP_DIV2;
 8001bac:	2302      	movs	r3, #2
 8001bae:	647b      	str	r3, [r7, #68]	; 0x44
  RCC_OscInitStruct.PLL.PLLQ = RCC_PLLQ_DIV4;
 8001bb0:	2304      	movs	r3, #4
 8001bb2:	64bb      	str	r3, [r7, #72]	; 0x48
  RCC_OscInitStruct.PLL.PLLR = RCC_PLLR_DIV2;
 8001bb4:	2302      	movs	r3, #2
 8001bb6:	64fb      	str	r3, [r7, #76]	; 0x4c
  if (HAL_RCC_OscConfig(&RCC_OscInitStruct) != HAL_OK)
 8001bb8:	f107 0318 	add.w	r3, r7, #24
 8001bbc:	4618      	mov	r0, r3
 8001bbe:	f003 fe0f 	bl	80057e0 <HAL_RCC_OscConfig>
 8001bc2:	4603      	mov	r3, r0
 8001bc4:	2b00      	cmp	r3, #0
 8001bc6:	d001      	beq.n	8001bcc <SystemClock_Config+0x68>
  {
    Error_Handler();
 8001bc8:	f000 f96a 	bl	8001ea0 <Error_Handler>
  }

  /** Initializes the CPU, AHB and APB buses clocks
  */
  RCC_ClkInitStruct.ClockType = RCC_CLOCKTYPE_HCLK|RCC_CLOCKTYPE_SYSCLK
 8001bcc:	230f      	movs	r3, #15
 8001bce:	607b      	str	r3, [r7, #4]
                              |RCC_CLOCKTYPE_PCLK1|RCC_CLOCKTYPE_PCLK2;
  RCC_ClkInitStruct.SYSCLKSource = RCC_SYSCLKSOURCE_PLLCLK;
 8001bd0:	2303      	movs	r3, #3
 8001bd2:	60bb      	str	r3, [r7, #8]
  RCC_ClkInitStruct.AHBCLKDivider = RCC_SYSCLK_DIV1;
 8001bd4:	2300      	movs	r3, #0
 8001bd6:	60fb      	str	r3, [r7, #12]
  RCC_ClkInitStruct.APB1CLKDivider = RCC_HCLK_DIV1;
 8001bd8:	2300      	movs	r3, #0
 8001bda:	613b      	str	r3, [r7, #16]
  RCC_ClkInitStruct.APB2CLKDivider = RCC_HCLK_DIV1;
 8001bdc:	2300      	movs	r3, #0
 8001bde:	617b      	str	r3, [r7, #20]

  if (HAL_RCC_ClockConfig(&RCC_ClkInitStruct, FLASH_LATENCY_2) != HAL_OK)
 8001be0:	1d3b      	adds	r3, r7, #4
 8001be2:	2102      	movs	r1, #2
 8001be4:	4618      	mov	r0, r3
 8001be6:	f004 f90d 	bl	8005e04 <HAL_RCC_ClockConfig>
 8001bea:	4603      	mov	r3, r0
 8001bec:	2b00      	cmp	r3, #0
 8001bee:	d001      	beq.n	8001bf4 <SystemClock_Config+0x90>
  {
    Error_Handler();
 8001bf0:	f000 f956 	bl	8001ea0 <Error_Handler>
  }
}
 8001bf4:	bf00      	nop
 8001bf6:	3750      	adds	r7, #80	; 0x50
 8001bf8:	46bd      	mov	sp, r7
 8001bfa:	bd80      	pop	{r7, pc}

08001bfc <MX_LPUART1_UART_Init>:
  * @brief LPUART1 Initialization Function
  * @param None
  * @retval None
  */
static void MX_LPUART1_UART_Init(void)
{
 8001bfc:	b580      	push	{r7, lr}
 8001bfe:	af00      	add	r7, sp, #0
  /* USER CODE END LPUART1_Init 0 */

  /* USER CODE BEGIN LPUART1_Init 1 */

  /* USER CODE END LPUART1_Init 1 */
  hlpuart1.Instance = LPUART1;
 8001c00:	4b20      	ldr	r3, [pc, #128]	; (8001c84 <MX_LPUART1_UART_Init+0x88>)
 8001c02:	4a21      	ldr	r2, [pc, #132]	; (8001c88 <MX_LPUART1_UART_Init+0x8c>)
 8001c04:	601a      	str	r2, [r3, #0]
  hlpuart1.Init.BaudRate = 209700;
 8001c06:	4b1f      	ldr	r3, [pc, #124]	; (8001c84 <MX_LPUART1_UART_Init+0x88>)
 8001c08:	4a20      	ldr	r2, [pc, #128]	; (8001c8c <MX_LPUART1_UART_Init+0x90>)
 8001c0a:	605a      	str	r2, [r3, #4]
  hlpuart1.Init.WordLength = UART_WORDLENGTH_8B;
 8001c0c:	4b1d      	ldr	r3, [pc, #116]	; (8001c84 <MX_LPUART1_UART_Init+0x88>)
 8001c0e:	2200      	movs	r2, #0
 8001c10:	609a      	str	r2, [r3, #8]
  hlpuart1.Init.StopBits = UART_STOPBITS_1;
 8001c12:	4b1c      	ldr	r3, [pc, #112]	; (8001c84 <MX_LPUART1_UART_Init+0x88>)
 8001c14:	2200      	movs	r2, #0
 8001c16:	60da      	str	r2, [r3, #12]
  hlpuart1.Init.Parity = UART_PARITY_NONE;
 8001c18:	4b1a      	ldr	r3, [pc, #104]	; (8001c84 <MX_LPUART1_UART_Init+0x88>)
 8001c1a:	2200      	movs	r2, #0
 8001c1c:	611a      	str	r2, [r3, #16]
  hlpuart1.Init.Mode = UART_MODE_TX_RX;
 8001c1e:	4b19      	ldr	r3, [pc, #100]	; (8001c84 <MX_LPUART1_UART_Init+0x88>)
 8001c20:	220c      	movs	r2, #12
 8001c22:	615a      	str	r2, [r3, #20]
  hlpuart1.Init.HwFlowCtl = UART_HWCONTROL_NONE;
 8001c24:	4b17      	ldr	r3, [pc, #92]	; (8001c84 <MX_LPUART1_UART_Init+0x88>)
 8001c26:	2200      	movs	r2, #0
 8001c28:	619a      	str	r2, [r3, #24]
  hlpuart1.Init.OneBitSampling = UART_ONE_BIT_SAMPLE_DISABLE;
 8001c2a:	4b16      	ldr	r3, [pc, #88]	; (8001c84 <MX_LPUART1_UART_Init+0x88>)
 8001c2c:	2200      	movs	r2, #0
 8001c2e:	621a      	str	r2, [r3, #32]
  hlpuart1.Init.ClockPrescaler = UART_PRESCALER_DIV1;
 8001c30:	4b14      	ldr	r3, [pc, #80]	; (8001c84 <MX_LPUART1_UART_Init+0x88>)
 8001c32:	2200      	movs	r2, #0
 8001c34:	625a      	str	r2, [r3, #36]	; 0x24
  hlpuart1.AdvancedInit.AdvFeatureInit = UART_ADVFEATURE_NO_INIT;
 8001c36:	4b13      	ldr	r3, [pc, #76]	; (8001c84 <MX_LPUART1_UART_Init+0x88>)
 8001c38:	2200      	movs	r2, #0
 8001c3a:	629a      	str	r2, [r3, #40]	; 0x28
  if (HAL_UART_Init(&hlpuart1) != HAL_OK)
 8001c3c:	4811      	ldr	r0, [pc, #68]	; (8001c84 <MX_LPUART1_UART_Init+0x88>)
 8001c3e:	f005 fc23 	bl	8007488 <HAL_UART_Init>
 8001c42:	4603      	mov	r3, r0
 8001c44:	2b00      	cmp	r3, #0
 8001c46:	d001      	beq.n	8001c4c <MX_LPUART1_UART_Init+0x50>
  {
    Error_Handler();
 8001c48:	f000 f92a 	bl	8001ea0 <Error_Handler>
  }
  if (HAL_UARTEx_SetTxFifoThreshold(&hlpuart1, UART_TXFIFO_THRESHOLD_1_8) != HAL_OK)
 8001c4c:	2100      	movs	r1, #0
 8001c4e:	480d      	ldr	r0, [pc, #52]	; (8001c84 <MX_LPUART1_UART_Init+0x88>)
 8001c50:	f006 fd31 	bl	80086b6 <HAL_UARTEx_SetTxFifoThreshold>
 8001c54:	4603      	mov	r3, r0
 8001c56:	2b00      	cmp	r3, #0
 8001c58:	d001      	beq.n	8001c5e <MX_LPUART1_UART_Init+0x62>
  {
    Error_Handler();
 8001c5a:	f000 f921 	bl	8001ea0 <Error_Handler>
  }
  if (HAL_UARTEx_SetRxFifoThreshold(&hlpuart1, UART_RXFIFO_THRESHOLD_1_8) != HAL_OK)
 8001c5e:	2100      	movs	r1, #0
 8001c60:	4808      	ldr	r0, [pc, #32]	; (8001c84 <MX_LPUART1_UART_Init+0x88>)
 8001c62:	f006 fd66 	bl	8008732 <HAL_UARTEx_SetRxFifoThreshold>
 8001c66:	4603      	mov	r3, r0
 8001c68:	2b00      	cmp	r3, #0
 8001c6a:	d001      	beq.n	8001c70 <MX_LPUART1_UART_Init+0x74>
  {
    Error_Handler();
 8001c6c:	f000 f918 	bl	8001ea0 <Error_Handler>
  }
  if (HAL_UARTEx_DisableFifoMode(&hlpuart1) != HAL_OK)
 8001c70:	4804      	ldr	r0, [pc, #16]	; (8001c84 <MX_LPUART1_UART_Init+0x88>)
 8001c72:	f006 fce7 	bl	8008644 <HAL_UARTEx_DisableFifoMode>
 8001c76:	4603      	mov	r3, r0
 8001c78:	2b00      	cmp	r3, #0
 8001c7a:	d001      	beq.n	8001c80 <MX_LPUART1_UART_Init+0x84>
  {
    Error_Handler();
 8001c7c:	f000 f910 	bl	8001ea0 <Error_Handler>
  }
  /* USER CODE BEGIN LPUART1_Init 2 */

  /* USER CODE END LPUART1_Init 2 */

}
 8001c80:	bf00      	nop
 8001c82:	bd80      	pop	{r7, pc}
 8001c84:	200001cc 	.word	0x200001cc
 8001c88:	40008000 	.word	0x40008000
 8001c8c:	00033324 	.word	0x00033324

08001c90 <MX_USART2_UART_Init>:
  * @brief USART2 Initialization Function
  * @param None
  * @retval None
  */
static void MX_USART2_UART_Init(void)
{
 8001c90:	b580      	push	{r7, lr}
 8001c92:	af00      	add	r7, sp, #0
  /* USER CODE END USART2_Init 0 */

  /* USER CODE BEGIN USART2_Init 1 */

  /* USER CODE END USART2_Init 1 */
  huart2.Instance = USART2;
 8001c94:	4b22      	ldr	r3, [pc, #136]	; (8001d20 <MX_USART2_UART_Init+0x90>)
 8001c96:	4a23      	ldr	r2, [pc, #140]	; (8001d24 <MX_USART2_UART_Init+0x94>)
 8001c98:	601a      	str	r2, [r3, #0]
  huart2.Init.BaudRate = 115200;
 8001c9a:	4b21      	ldr	r3, [pc, #132]	; (8001d20 <MX_USART2_UART_Init+0x90>)
 8001c9c:	f44f 32e1 	mov.w	r2, #115200	; 0x1c200
 8001ca0:	605a      	str	r2, [r3, #4]
  huart2.Init.WordLength = UART_WORDLENGTH_8B;
 8001ca2:	4b1f      	ldr	r3, [pc, #124]	; (8001d20 <MX_USART2_UART_Init+0x90>)
 8001ca4:	2200      	movs	r2, #0
 8001ca6:	609a      	str	r2, [r3, #8]
  huart2.Init.StopBits = UART_STOPBITS_1;
 8001ca8:	4b1d      	ldr	r3, [pc, #116]	; (8001d20 <MX_USART2_UART_Init+0x90>)
 8001caa:	2200      	movs	r2, #0
 8001cac:	60da      	str	r2, [r3, #12]
  huart2.Init.Parity = UART_PARITY_NONE;
 8001cae:	4b1c      	ldr	r3, [pc, #112]	; (8001d20 <MX_USART2_UART_Init+0x90>)
 8001cb0:	2200      	movs	r2, #0
 8001cb2:	611a      	str	r2, [r3, #16]
  huart2.Init.Mode = UART_MODE_TX_RX;
 8001cb4:	4b1a      	ldr	r3, [pc, #104]	; (8001d20 <MX_USART2_UART_Init+0x90>)
 8001cb6:	220c      	movs	r2, #12
 8001cb8:	615a      	str	r2, [r3, #20]
  huart2.Init.HwFlowCtl = UART_HWCONTROL_NONE;
 8001cba:	4b19      	ldr	r3, [pc, #100]	; (8001d20 <MX_USART2_UART_Init+0x90>)
 8001cbc:	2200      	movs	r2, #0
 8001cbe:	619a      	str	r2, [r3, #24]
  huart2.Init.OverSampling = UART_OVERSAMPLING_16;
 8001cc0:	4b17      	ldr	r3, [pc, #92]	; (8001d20 <MX_USART2_UART_Init+0x90>)
 8001cc2:	2200      	movs	r2, #0
 8001cc4:	61da      	str	r2, [r3, #28]
  huart2.Init.OneBitSampling = UART_ONE_BIT_SAMPLE_DISABLE;
 8001cc6:	4b16      	ldr	r3, [pc, #88]	; (8001d20 <MX_USART2_UART_Init+0x90>)
 8001cc8:	2200      	movs	r2, #0
 8001cca:	621a      	str	r2, [r3, #32]
  huart2.Init.ClockPrescaler = UART_PRESCALER_DIV1;
 8001ccc:	4b14      	ldr	r3, [pc, #80]	; (8001d20 <MX_USART2_UART_Init+0x90>)
 8001cce:	2200      	movs	r2, #0
 8001cd0:	625a      	str	r2, [r3, #36]	; 0x24
  huart2.AdvancedInit.AdvFeatureInit = UART_ADVFEATURE_NO_INIT;
 8001cd2:	4b13      	ldr	r3, [pc, #76]	; (8001d20 <MX_USART2_UART_Init+0x90>)
 8001cd4:	2200      	movs	r2, #0
 8001cd6:	629a      	str	r2, [r3, #40]	; 0x28
  if (HAL_UART_Init(&huart2) != HAL_OK)
 8001cd8:	4811      	ldr	r0, [pc, #68]	; (8001d20 <MX_USART2_UART_Init+0x90>)
 8001cda:	f005 fbd5 	bl	8007488 <HAL_UART_Init>
 8001cde:	4603      	mov	r3, r0
 8001ce0:	2b00      	cmp	r3, #0
 8001ce2:	d001      	beq.n	8001ce8 <MX_USART2_UART_Init+0x58>
  {
    Error_Handler();
 8001ce4:	f000 f8dc 	bl	8001ea0 <Error_Handler>
  }
  if (HAL_UARTEx_SetTxFifoThreshold(&huart2, UART_TXFIFO_THRESHOLD_1_8) != HAL_OK)
 8001ce8:	2100      	movs	r1, #0
 8001cea:	480d      	ldr	r0, [pc, #52]	; (8001d20 <MX_USART2_UART_Init+0x90>)
 8001cec:	f006 fce3 	bl	80086b6 <HAL_UARTEx_SetTxFifoThreshold>
 8001cf0:	4603      	mov	r3, r0
 8001cf2:	2b00      	cmp	r3, #0
 8001cf4:	d001      	beq.n	8001cfa <MX_USART2_UART_Init+0x6a>
  {
    Error_Handler();
 8001cf6:	f000 f8d3 	bl	8001ea0 <Error_Handler>
  }
  if (HAL_UARTEx_SetRxFifoThreshold(&huart2, UART_RXFIFO_THRESHOLD_1_8) != HAL_OK)
 8001cfa:	2100      	movs	r1, #0
 8001cfc:	4808      	ldr	r0, [pc, #32]	; (8001d20 <MX_USART2_UART_Init+0x90>)
 8001cfe:	f006 fd18 	bl	8008732 <HAL_UARTEx_SetRxFifoThreshold>
 8001d02:	4603      	mov	r3, r0
 8001d04:	2b00      	cmp	r3, #0
 8001d06:	d001      	beq.n	8001d0c <MX_USART2_UART_Init+0x7c>
  {
    Error_Handler();
 8001d08:	f000 f8ca 	bl	8001ea0 <Error_Handler>
  }
  if (HAL_UARTEx_DisableFifoMode(&huart2) != HAL_OK)
 8001d0c:	4804      	ldr	r0, [pc, #16]	; (8001d20 <MX_USART2_UART_Init+0x90>)
 8001d0e:	f006 fc99 	bl	8008644 <HAL_UARTEx_DisableFifoMode>
 8001d12:	4603      	mov	r3, r0
 8001d14:	2b00      	cmp	r3, #0
 8001d16:	d001      	beq.n	8001d1c <MX_USART2_UART_Init+0x8c>
  {
    Error_Handler();
 8001d18:	f000 f8c2 	bl	8001ea0 <Error_Handler>
  }
  /* USER CODE BEGIN USART2_Init 2 */

  /* USER CODE END USART2_Init 2 */

}
 8001d1c:	bf00      	nop
 8001d1e:	bd80      	pop	{r7, pc}
 8001d20:	20000260 	.word	0x20000260
 8001d24:	40004400 	.word	0x40004400

08001d28 <MX_SPI1_Init>:
  * @brief SPI1 Initialization Function
  * @param None
  * @retval None
  */
static void MX_SPI1_Init(void)
{
 8001d28:	b580      	push	{r7, lr}
 8001d2a:	af00      	add	r7, sp, #0

  /* USER CODE BEGIN SPI1_Init 1 */

  /* USER CODE END SPI1_Init 1 */
  /* SPI1 parameter configuration*/
  hspi1.Instance = SPI1;
 8001d2c:	4b1b      	ldr	r3, [pc, #108]	; (8001d9c <MX_SPI1_Init+0x74>)
 8001d2e:	4a1c      	ldr	r2, [pc, #112]	; (8001da0 <MX_SPI1_Init+0x78>)
 8001d30:	601a      	str	r2, [r3, #0]
  hspi1.Init.Mode = SPI_MODE_MASTER;
 8001d32:	4b1a      	ldr	r3, [pc, #104]	; (8001d9c <MX_SPI1_Init+0x74>)
 8001d34:	f44f 7282 	mov.w	r2, #260	; 0x104
 8001d38:	605a      	str	r2, [r3, #4]
  hspi1.Init.Direction = SPI_DIRECTION_2LINES;
 8001d3a:	4b18      	ldr	r3, [pc, #96]	; (8001d9c <MX_SPI1_Init+0x74>)
 8001d3c:	2200      	movs	r2, #0
 8001d3e:	609a      	str	r2, [r3, #8]
  hspi1.Init.DataSize = SPI_DATASIZE_8BIT;
 8001d40:	4b16      	ldr	r3, [pc, #88]	; (8001d9c <MX_SPI1_Init+0x74>)
 8001d42:	f44f 62e0 	mov.w	r2, #1792	; 0x700
 8001d46:	60da      	str	r2, [r3, #12]
  hspi1.Init.CLKPolarity = SPI_POLARITY_LOW;
 8001d48:	4b14      	ldr	r3, [pc, #80]	; (8001d9c <MX_SPI1_Init+0x74>)
 8001d4a:	2200      	movs	r2, #0
 8001d4c:	611a      	str	r2, [r3, #16]
  hspi1.Init.CLKPhase = SPI_PHASE_1EDGE;
 8001d4e:	4b13      	ldr	r3, [pc, #76]	; (8001d9c <MX_SPI1_Init+0x74>)
 8001d50:	2200      	movs	r2, #0
 8001d52:	615a      	str	r2, [r3, #20]
  hspi1.Init.NSS = SPI_NSS_SOFT;
 8001d54:	4b11      	ldr	r3, [pc, #68]	; (8001d9c <MX_SPI1_Init+0x74>)
 8001d56:	f44f 7200 	mov.w	r2, #512	; 0x200
 8001d5a:	619a      	str	r2, [r3, #24]
  hspi1.Init.BaudRatePrescaler = SPI_BAUDRATEPRESCALER_64;
 8001d5c:	4b0f      	ldr	r3, [pc, #60]	; (8001d9c <MX_SPI1_Init+0x74>)
 8001d5e:	2228      	movs	r2, #40	; 0x28
 8001d60:	61da      	str	r2, [r3, #28]
  hspi1.Init.FirstBit = SPI_FIRSTBIT_MSB;
 8001d62:	4b0e      	ldr	r3, [pc, #56]	; (8001d9c <MX_SPI1_Init+0x74>)
 8001d64:	2200      	movs	r2, #0
 8001d66:	621a      	str	r2, [r3, #32]
  hspi1.Init.TIMode = SPI_TIMODE_DISABLE;
 8001d68:	4b0c      	ldr	r3, [pc, #48]	; (8001d9c <MX_SPI1_Init+0x74>)
 8001d6a:	2200      	movs	r2, #0
 8001d6c:	625a      	str	r2, [r3, #36]	; 0x24
  hspi1.Init.CRCCalculation = SPI_CRCCALCULATION_DISABLE;
 8001d6e:	4b0b      	ldr	r3, [pc, #44]	; (8001d9c <MX_SPI1_Init+0x74>)
 8001d70:	2200      	movs	r2, #0
 8001d72:	629a      	str	r2, [r3, #40]	; 0x28
  hspi1.Init.CRCPolynomial = 7;
 8001d74:	4b09      	ldr	r3, [pc, #36]	; (8001d9c <MX_SPI1_Init+0x74>)
 8001d76:	2207      	movs	r2, #7
 8001d78:	62da      	str	r2, [r3, #44]	; 0x2c
  hspi1.Init.CRCLength = SPI_CRC_LENGTH_DATASIZE;
 8001d7a:	4b08      	ldr	r3, [pc, #32]	; (8001d9c <MX_SPI1_Init+0x74>)
 8001d7c:	2200      	movs	r2, #0
 8001d7e:	631a      	str	r2, [r3, #48]	; 0x30
  hspi1.Init.NSSPMode = SPI_NSS_PULSE_DISABLE;
 8001d80:	4b06      	ldr	r3, [pc, #24]	; (8001d9c <MX_SPI1_Init+0x74>)
 8001d82:	2200      	movs	r2, #0
 8001d84:	635a      	str	r2, [r3, #52]	; 0x34
  if (HAL_SPI_Init(&hspi1) != HAL_OK)
 8001d86:	4805      	ldr	r0, [pc, #20]	; (8001d9c <MX_SPI1_Init+0x74>)
 8001d88:	f004 fc48 	bl	800661c <HAL_SPI_Init>
 8001d8c:	4603      	mov	r3, r0
 8001d8e:	2b00      	cmp	r3, #0
 8001d90:	d001      	beq.n	8001d96 <MX_SPI1_Init+0x6e>
  {
    Error_Handler();
 8001d92:	f000 f885 	bl	8001ea0 <Error_Handler>
  }
  /* USER CODE BEGIN SPI1_Init 2 */

  /* USER CODE END SPI1_Init 2 */

}
 8001d96:	bf00      	nop
 8001d98:	bd80      	pop	{r7, pc}
 8001d9a:	bf00      	nop
 8001d9c:	200002f4 	.word	0x200002f4
 8001da0:	40013000 	.word	0x40013000

08001da4 <MX_GPIO_Init>:
  * @brief GPIO Initialization Function
  * @param None
  * @retval None
  */
static void MX_GPIO_Init(void)
{
 8001da4:	b580      	push	{r7, lr}
 8001da6:	b088      	sub	sp, #32
 8001da8:	af00      	add	r7, sp, #0
  GPIO_InitTypeDef GPIO_InitStruct = {0};
 8001daa:	f107 030c 	add.w	r3, r7, #12
 8001dae:	2200      	movs	r2, #0
 8001db0:	601a      	str	r2, [r3, #0]
 8001db2:	605a      	str	r2, [r3, #4]
 8001db4:	609a      	str	r2, [r3, #8]
 8001db6:	60da      	str	r2, [r3, #12]
 8001db8:	611a      	str	r2, [r3, #16]

  /* GPIO Ports Clock Enable */
  __HAL_RCC_GPIOF_CLK_ENABLE();
 8001dba:	4b36      	ldr	r3, [pc, #216]	; (8001e94 <MX_GPIO_Init+0xf0>)
 8001dbc:	6cdb      	ldr	r3, [r3, #76]	; 0x4c
 8001dbe:	4a35      	ldr	r2, [pc, #212]	; (8001e94 <MX_GPIO_Init+0xf0>)
 8001dc0:	f043 0320 	orr.w	r3, r3, #32
 8001dc4:	64d3      	str	r3, [r2, #76]	; 0x4c
 8001dc6:	4b33      	ldr	r3, [pc, #204]	; (8001e94 <MX_GPIO_Init+0xf0>)
 8001dc8:	6cdb      	ldr	r3, [r3, #76]	; 0x4c
 8001dca:	f003 0320 	and.w	r3, r3, #32
 8001dce:	60bb      	str	r3, [r7, #8]
 8001dd0:	68bb      	ldr	r3, [r7, #8]
  __HAL_RCC_GPIOA_CLK_ENABLE();
 8001dd2:	4b30      	ldr	r3, [pc, #192]	; (8001e94 <MX_GPIO_Init+0xf0>)
 8001dd4:	6cdb      	ldr	r3, [r3, #76]	; 0x4c
 8001dd6:	4a2f      	ldr	r2, [pc, #188]	; (8001e94 <MX_GPIO_Init+0xf0>)
 8001dd8:	f043 0301 	orr.w	r3, r3, #1
 8001ddc:	64d3      	str	r3, [r2, #76]	; 0x4c
 8001dde:	4b2d      	ldr	r3, [pc, #180]	; (8001e94 <MX_GPIO_Init+0xf0>)
 8001de0:	6cdb      	ldr	r3, [r3, #76]	; 0x4c
 8001de2:	f003 0301 	and.w	r3, r3, #1
 8001de6:	607b      	str	r3, [r7, #4]
 8001de8:	687b      	ldr	r3, [r7, #4]
  __HAL_RCC_GPIOB_CLK_ENABLE();
 8001dea:	4b2a      	ldr	r3, [pc, #168]	; (8001e94 <MX_GPIO_Init+0xf0>)
 8001dec:	6cdb      	ldr	r3, [r3, #76]	; 0x4c
 8001dee:	4a29      	ldr	r2, [pc, #164]	; (8001e94 <MX_GPIO_Init+0xf0>)
 8001df0:	f043 0302 	orr.w	r3, r3, #2
 8001df4:	64d3      	str	r3, [r2, #76]	; 0x4c
 8001df6:	4b27      	ldr	r3, [pc, #156]	; (8001e94 <MX_GPIO_Init+0xf0>)
 8001df8:	6cdb      	ldr	r3, [r3, #76]	; 0x4c
 8001dfa:	f003 0302 	and.w	r3, r3, #2
 8001dfe:	603b      	str	r3, [r7, #0]
 8001e00:	683b      	ldr	r3, [r7, #0]

  /*Configure GPIO pin Output Level */
  HAL_GPIO_WritePin(GPIOA, GPIO_PIN_0|GPIO_PIN_1|GPIO_PIN_4, GPIO_PIN_RESET);
 8001e02:	2200      	movs	r2, #0
 8001e04:	2113      	movs	r1, #19
 8001e06:	f04f 4090 	mov.w	r0, #1207959552	; 0x48000000
 8001e0a:	f001 fee9 	bl	8003be0 <HAL_GPIO_WritePin>

  /*Configure GPIO pin Output Level */
  HAL_GPIO_WritePin(GPIOB, GPIO_PIN_0|GPIO_PIN_4|GPIO_PIN_6, GPIO_PIN_RESET);
 8001e0e:	2200      	movs	r2, #0
 8001e10:	2151      	movs	r1, #81	; 0x51
 8001e12:	4821      	ldr	r0, [pc, #132]	; (8001e98 <MX_GPIO_Init+0xf4>)
 8001e14:	f001 fee4 	bl	8003be0 <HAL_GPIO_WritePin>

  /*Configure GPIO pin : PF0 */
  GPIO_InitStruct.Pin = GPIO_PIN_0;
 8001e18:	2301      	movs	r3, #1
 8001e1a:	60fb      	str	r3, [r7, #12]
  GPIO_InitStruct.Mode = GPIO_MODE_IT_RISING;
 8001e1c:	f44f 1388 	mov.w	r3, #1114112	; 0x110000
 8001e20:	613b      	str	r3, [r7, #16]
  GPIO_InitStruct.Pull = GPIO_NOPULL;
 8001e22:	2300      	movs	r3, #0
 8001e24:	617b      	str	r3, [r7, #20]
  HAL_GPIO_Init(GPIOF, &GPIO_InitStruct);
 8001e26:	f107 030c 	add.w	r3, r7, #12
 8001e2a:	4619      	mov	r1, r3
 8001e2c:	481b      	ldr	r0, [pc, #108]	; (8001e9c <MX_GPIO_Init+0xf8>)
 8001e2e:	f001 fd55 	bl	80038dc <HAL_GPIO_Init>

  /*Configure GPIO pins : PA0 PA1 PA4 */
  GPIO_InitStruct.Pin = GPIO_PIN_0|GPIO_PIN_1|GPIO_PIN_4;
 8001e32:	2313      	movs	r3, #19
 8001e34:	60fb      	str	r3, [r7, #12]
  GPIO_InitStruct.Mode = GPIO_MODE_OUTPUT_PP;
 8001e36:	2301      	movs	r3, #1
 8001e38:	613b      	str	r3, [r7, #16]
  GPIO_InitStruct.Pull = GPIO_PULLUP;
 8001e3a:	2301      	movs	r3, #1
 8001e3c:	617b      	str	r3, [r7, #20]
  GPIO_InitStruct.Speed = GPIO_SPEED_FREQ_LOW;
 8001e3e:	2300      	movs	r3, #0
 8001e40:	61bb      	str	r3, [r7, #24]
  HAL_GPIO_Init(GPIOA, &GPIO_InitStruct);
 8001e42:	f107 030c 	add.w	r3, r7, #12
 8001e46:	4619      	mov	r1, r3
 8001e48:	f04f 4090 	mov.w	r0, #1207959552	; 0x48000000
 8001e4c:	f001 fd46 	bl	80038dc <HAL_GPIO_Init>

  /*Configure GPIO pins : PB0 PB4 PB6 */
  GPIO_InitStruct.Pin = GPIO_PIN_0|GPIO_PIN_4|GPIO_PIN_6;
 8001e50:	2351      	movs	r3, #81	; 0x51
 8001e52:	60fb      	str	r3, [r7, #12]
  GPIO_InitStruct.Mode = GPIO_MODE_OUTPUT_PP;
 8001e54:	2301      	movs	r3, #1
 8001e56:	613b      	str	r3, [r7, #16]
  GPIO_InitStruct.Pull = GPIO_NOPULL;
 8001e58:	2300      	movs	r3, #0
 8001e5a:	617b      	str	r3, [r7, #20]
  GPIO_InitStruct.Speed = GPIO_SPEED_FREQ_LOW;
 8001e5c:	2300      	movs	r3, #0
 8001e5e:	61bb      	str	r3, [r7, #24]
  HAL_GPIO_Init(GPIOB, &GPIO_InitStruct);
 8001e60:	f107 030c 	add.w	r3, r7, #12
 8001e64:	4619      	mov	r1, r3
 8001e66:	480c      	ldr	r0, [pc, #48]	; (8001e98 <MX_GPIO_Init+0xf4>)
 8001e68:	f001 fd38 	bl	80038dc <HAL_GPIO_Init>

  /*Configure GPIO pin : PA10 */
  GPIO_InitStruct.Pin = GPIO_PIN_10;
 8001e6c:	f44f 6380 	mov.w	r3, #1024	; 0x400
 8001e70:	60fb      	str	r3, [r7, #12]
  GPIO_InitStruct.Mode = GPIO_MODE_IT_RISING;
 8001e72:	f44f 1388 	mov.w	r3, #1114112	; 0x110000
 8001e76:	613b      	str	r3, [r7, #16]
  GPIO_InitStruct.Pull = GPIO_NOPULL;
 8001e78:	2300      	movs	r3, #0
 8001e7a:	617b      	str	r3, [r7, #20]
  HAL_GPIO_Init(GPIOA, &GPIO_InitStruct);
 8001e7c:	f107 030c 	add.w	r3, r7, #12
 8001e80:	4619      	mov	r1, r3
 8001e82:	f04f 4090 	mov.w	r0, #1207959552	; 0x48000000
 8001e86:	f001 fd29 	bl	80038dc <HAL_GPIO_Init>

}
 8001e8a:	bf00      	nop
 8001e8c:	3720      	adds	r7, #32
 8001e8e:	46bd      	mov	sp, r7
 8001e90:	bd80      	pop	{r7, pc}
 8001e92:	bf00      	nop
 8001e94:	40021000 	.word	0x40021000
 8001e98:	48000400 	.word	0x48000400
 8001e9c:	48001400 	.word	0x48001400

08001ea0 <Error_Handler>:
/**
  * @brief  This function is executed in case of error occurrence.
  * @retval None
  */
void Error_Handler(void)
{
 8001ea0:	b480      	push	{r7}
 8001ea2:	af00      	add	r7, sp, #0
  \details Disables IRQ interrupts by setting the I-bit in the CPSR.
           Can only be executed in Privileged modes.
 */
__STATIC_FORCEINLINE void __disable_irq(void)
{
  __ASM volatile ("cpsid i" : : : "memory");
 8001ea4:	b672      	cpsid	i
}
 8001ea6:	bf00      	nop
  /* USER CODE BEGIN Error_Handler_Debug */
  /* User can add his own implementation to report the HAL error return state */
  __disable_irq();
  while (1)
 8001ea8:	e7fe      	b.n	8001ea8 <Error_Handler+0x8>

08001eaa <mpu6500_init>:
mpu6500_status_t mpu6500_init(mpu6500_t *dev,
                              SPI_HandleTypeDef *hspi,
                              GPIO_TypeDef *cs_port,
                              uint16_t cs_pin,
                              const mpu6500_config_t *config)
{
 8001eaa:	b580      	push	{r7, lr}
 8001eac:	b086      	sub	sp, #24
 8001eae:	af00      	add	r7, sp, #0
 8001eb0:	60f8      	str	r0, [r7, #12]
 8001eb2:	60b9      	str	r1, [r7, #8]
 8001eb4:	607a      	str	r2, [r7, #4]
 8001eb6:	807b      	strh	r3, [r7, #2]
  uint8_t who_am_i;

  if ((dev == NULL) || (hspi == NULL) || (cs_port == NULL))
 8001eb8:	68fb      	ldr	r3, [r7, #12]
 8001eba:	2b00      	cmp	r3, #0
 8001ebc:	d005      	beq.n	8001eca <mpu6500_init+0x20>
 8001ebe:	68bb      	ldr	r3, [r7, #8]
 8001ec0:	2b00      	cmp	r3, #0
 8001ec2:	d002      	beq.n	8001eca <mpu6500_init+0x20>
 8001ec4:	687b      	ldr	r3, [r7, #4]
 8001ec6:	2b00      	cmp	r3, #0
 8001ec8:	d101      	bne.n	8001ece <mpu6500_init+0x24>
  {
    return MPU6500_ERROR_INVALID_ARG;
 8001eca:	2302      	movs	r3, #2
 8001ecc:	e065      	b.n	8001f9a <mpu6500_init+0xf0>
  }

  dev->hspi = hspi;
 8001ece:	68fb      	ldr	r3, [r7, #12]
 8001ed0:	68ba      	ldr	r2, [r7, #8]
 8001ed2:	601a      	str	r2, [r3, #0]
  dev->cs_port = cs_port;
 8001ed4:	68fb      	ldr	r3, [r7, #12]
 8001ed6:	687a      	ldr	r2, [r7, #4]
 8001ed8:	605a      	str	r2, [r3, #4]
  dev->cs_pin = cs_pin;
 8001eda:	68fb      	ldr	r3, [r7, #12]
 8001edc:	887a      	ldrh	r2, [r7, #2]
 8001ede:	811a      	strh	r2, [r3, #8]
  dev->timeout_ms = MPU6500_DEFAULT_TIMEOUT_MS;
 8001ee0:	68fb      	ldr	r3, [r7, #12]
 8001ee2:	2264      	movs	r2, #100	; 0x64
 8001ee4:	60da      	str	r2, [r3, #12]

  if (config != NULL)
 8001ee6:	6a3b      	ldr	r3, [r7, #32]
 8001ee8:	2b00      	cmp	r3, #0
 8001eea:	d005      	beq.n	8001ef8 <mpu6500_init+0x4e>
  {
    dev->config = *config;
 8001eec:	68fb      	ldr	r3, [r7, #12]
 8001eee:	6a3a      	ldr	r2, [r7, #32]
 8001ef0:	3310      	adds	r3, #16
 8001ef2:	6810      	ldr	r0, [r2, #0]
 8001ef4:	6018      	str	r0, [r3, #0]
 8001ef6:	e00b      	b.n	8001f10 <mpu6500_init+0x66>
  }
  else
  {
    dev->config.gyro_fs = MPU6500_GYRO_FS_500DPS;
 8001ef8:	68fb      	ldr	r3, [r7, #12]
 8001efa:	2201      	movs	r2, #1
 8001efc:	741a      	strb	r2, [r3, #16]
    dev->config.accel_fs = MPU6500_ACCEL_FS_4G;
 8001efe:	68fb      	ldr	r3, [r7, #12]
 8001f00:	2201      	movs	r2, #1
 8001f02:	745a      	strb	r2, [r3, #17]
    dev->config.dlpf_cfg = 3U;
 8001f04:	68fb      	ldr	r3, [r7, #12]
 8001f06:	2203      	movs	r2, #3
 8001f08:	749a      	strb	r2, [r3, #18]
    dev->config.sample_rate_divider = 9U;
 8001f0a:	68fb      	ldr	r3, [r7, #12]
 8001f0c:	2209      	movs	r2, #9
 8001f0e:	74da      	strb	r2, [r3, #19]
  }

  dev->accel_lsb_per_g = mpu6500_accel_lsb_per_g(dev->config.accel_fs);
 8001f10:	68fb      	ldr	r3, [r7, #12]
 8001f12:	7c5b      	ldrb	r3, [r3, #17]
 8001f14:	4618      	mov	r0, r3
 8001f16:	f000 f947 	bl	80021a8 <mpu6500_accel_lsb_per_g>
 8001f1a:	eef0 7a40 	vmov.f32	s15, s0
 8001f1e:	68fb      	ldr	r3, [r7, #12]
 8001f20:	edc3 7a05 	vstr	s15, [r3, #20]
  dev->gyro_lsb_per_dps = mpu6500_gyro_lsb_per_dps(dev->config.gyro_fs);
 8001f24:	68fb      	ldr	r3, [r7, #12]
 8001f26:	7c1b      	ldrb	r3, [r3, #16]
 8001f28:	4618      	mov	r0, r3
 8001f2a:	f000 f969 	bl	8002200 <mpu6500_gyro_lsb_per_dps>
 8001f2e:	eef0 7a40 	vmov.f32	s15, s0
 8001f32:	68fb      	ldr	r3, [r7, #12]
 8001f34:	edc3 7a06 	vstr	s15, [r3, #24]

  HAL_GPIO_WritePin(dev->cs_port, dev->cs_pin, GPIO_PIN_SET);
 8001f38:	68fb      	ldr	r3, [r7, #12]
 8001f3a:	6858      	ldr	r0, [r3, #4]
 8001f3c:	68fb      	ldr	r3, [r7, #12]
 8001f3e:	891b      	ldrh	r3, [r3, #8]
 8001f40:	2201      	movs	r2, #1
 8001f42:	4619      	mov	r1, r3
 8001f44:	f001 fe4c 	bl	8003be0 <HAL_GPIO_WritePin>
  HAL_Delay(10U);
 8001f48:	200a      	movs	r0, #10
 8001f4a:	f001 f859 	bl	8003000 <HAL_Delay>

  if (mpu6500_write_register(dev, MPU6500_REG_PWR_MGMT_1, MPU6500_DEVICE_RESET_BIT) != MPU6500_OK)
 8001f4e:	2280      	movs	r2, #128	; 0x80
 8001f50:	216b      	movs	r1, #107	; 0x6b
 8001f52:	68f8      	ldr	r0, [r7, #12]
 8001f54:	f000 f896 	bl	8002084 <mpu6500_write_register>
 8001f58:	4603      	mov	r3, r0
 8001f5a:	2b00      	cmp	r3, #0
 8001f5c:	d001      	beq.n	8001f62 <mpu6500_init+0xb8>
  {
    return MPU6500_ERROR_HAL;
 8001f5e:	2303      	movs	r3, #3
 8001f60:	e01b      	b.n	8001f9a <mpu6500_init+0xf0>
  }

  HAL_Delay(100U);
 8001f62:	2064      	movs	r0, #100	; 0x64
 8001f64:	f001 f84c 	bl	8003000 <HAL_Delay>

  if (mpu6500_read_who_am_i(dev, &who_am_i) != MPU6500_OK)
 8001f68:	f107 0317 	add.w	r3, r7, #23
 8001f6c:	4619      	mov	r1, r3
 8001f6e:	68f8      	ldr	r0, [r7, #12]
 8001f70:	f000 f817 	bl	8001fa2 <mpu6500_read_who_am_i>
 8001f74:	4603      	mov	r3, r0
 8001f76:	2b00      	cmp	r3, #0
 8001f78:	d001      	beq.n	8001f7e <mpu6500_init+0xd4>
  {
    return MPU6500_ERROR_HAL;
 8001f7a:	2303      	movs	r3, #3
 8001f7c:	e00d      	b.n	8001f9a <mpu6500_init+0xf0>
  }

  if (who_am_i != MPU6500_WHO_AM_I_EXPECTED)
 8001f7e:	7dfb      	ldrb	r3, [r7, #23]
 8001f80:	2b70      	cmp	r3, #112	; 0x70
 8001f82:	d001      	beq.n	8001f88 <mpu6500_init+0xde>
  {
    return MPU6500_ERROR_WHO_AM_I;
 8001f84:	2304      	movs	r3, #4
 8001f86:	e008      	b.n	8001f9a <mpu6500_init+0xf0>
  }

  if (mpu6500_apply_config(dev) != MPU6500_OK)
 8001f88:	68f8      	ldr	r0, [r7, #12]
 8001f8a:	f000 f9bb 	bl	8002304 <mpu6500_apply_config>
 8001f8e:	4603      	mov	r3, r0
 8001f90:	2b00      	cmp	r3, #0
 8001f92:	d001      	beq.n	8001f98 <mpu6500_init+0xee>
  {
    return MPU6500_ERROR_HAL;
 8001f94:	2303      	movs	r3, #3
 8001f96:	e000      	b.n	8001f9a <mpu6500_init+0xf0>
  }

  return MPU6500_OK;
 8001f98:	2300      	movs	r3, #0
}
 8001f9a:	4618      	mov	r0, r3
 8001f9c:	3718      	adds	r7, #24
 8001f9e:	46bd      	mov	sp, r7
 8001fa0:	bd80      	pop	{r7, pc}

08001fa2 <mpu6500_read_who_am_i>:

mpu6500_status_t mpu6500_read_who_am_i(mpu6500_t *dev, uint8_t *who_am_i)
{
 8001fa2:	b580      	push	{r7, lr}
 8001fa4:	b082      	sub	sp, #8
 8001fa6:	af00      	add	r7, sp, #0
 8001fa8:	6078      	str	r0, [r7, #4]
 8001faa:	6039      	str	r1, [r7, #0]
  return mpu6500_read_register(dev, MPU6500_REG_WHO_AM_I, who_am_i);
 8001fac:	683a      	ldr	r2, [r7, #0]
 8001fae:	2175      	movs	r1, #117	; 0x75
 8001fb0:	6878      	ldr	r0, [r7, #4]
 8001fb2:	f000 f887 	bl	80020c4 <mpu6500_read_register>
 8001fb6:	4603      	mov	r3, r0
}
 8001fb8:	4618      	mov	r0, r3
 8001fba:	3708      	adds	r7, #8
 8001fbc:	46bd      	mov	sp, r7
 8001fbe:	bd80      	pop	{r7, pc}

08001fc0 <mpu6500_read_raw>:

mpu6500_status_t mpu6500_read_raw(mpu6500_t *dev, mpu6500_raw_sample_t *sample)
{
 8001fc0:	b580      	push	{r7, lr}
 8001fc2:	b086      	sub	sp, #24
 8001fc4:	af00      	add	r7, sp, #0
 8001fc6:	6078      	str	r0, [r7, #4]
 8001fc8:	6039      	str	r1, [r7, #0]
  uint8_t data[14];
  mpu6500_status_t status;

  if (sample == NULL)
 8001fca:	683b      	ldr	r3, [r7, #0]
 8001fcc:	2b00      	cmp	r3, #0
 8001fce:	d101      	bne.n	8001fd4 <mpu6500_read_raw+0x14>
  {
    return MPU6500_ERROR_INVALID_ARG;
 8001fd0:	2302      	movs	r3, #2
 8001fd2:	e053      	b.n	800207c <mpu6500_read_raw+0xbc>
  }

  status = mpu6500_read_registers(dev, MPU6500_REG_ACCEL_XOUT_H, data, sizeof(data));
 8001fd4:	f107 0208 	add.w	r2, r7, #8
 8001fd8:	230e      	movs	r3, #14
 8001fda:	213b      	movs	r1, #59	; 0x3b
 8001fdc:	6878      	ldr	r0, [r7, #4]
 8001fde:	f000 f88a 	bl	80020f6 <mpu6500_read_registers>
 8001fe2:	4603      	mov	r3, r0
 8001fe4:	75fb      	strb	r3, [r7, #23]
  if (status != MPU6500_OK)
 8001fe6:	7dfb      	ldrb	r3, [r7, #23]
 8001fe8:	2b00      	cmp	r3, #0
 8001fea:	d001      	beq.n	8001ff0 <mpu6500_read_raw+0x30>
  {
    return status;
 8001fec:	7dfb      	ldrb	r3, [r7, #23]
 8001fee:	e045      	b.n	800207c <mpu6500_read_raw+0xbc>
  }

  sample->accel.x = mpu6500_be16_to_i16(&data[0]);
 8001ff0:	f107 0308 	add.w	r3, r7, #8
 8001ff4:	4618      	mov	r0, r3
 8001ff6:	f000 f9f6 	bl	80023e6 <mpu6500_be16_to_i16>
 8001ffa:	4603      	mov	r3, r0
 8001ffc:	461a      	mov	r2, r3
 8001ffe:	683b      	ldr	r3, [r7, #0]
 8002000:	801a      	strh	r2, [r3, #0]
  sample->accel.y = mpu6500_be16_to_i16(&data[2]);
 8002002:	f107 0308 	add.w	r3, r7, #8
 8002006:	3302      	adds	r3, #2
 8002008:	4618      	mov	r0, r3
 800200a:	f000 f9ec 	bl	80023e6 <mpu6500_be16_to_i16>
 800200e:	4603      	mov	r3, r0
 8002010:	461a      	mov	r2, r3
 8002012:	683b      	ldr	r3, [r7, #0]
 8002014:	805a      	strh	r2, [r3, #2]
  sample->accel.z = mpu6500_be16_to_i16(&data[4]);
 8002016:	f107 0308 	add.w	r3, r7, #8
 800201a:	3304      	adds	r3, #4
 800201c:	4618      	mov	r0, r3
 800201e:	f000 f9e2 	bl	80023e6 <mpu6500_be16_to_i16>
 8002022:	4603      	mov	r3, r0
 8002024:	461a      	mov	r2, r3
 8002026:	683b      	ldr	r3, [r7, #0]
 8002028:	809a      	strh	r2, [r3, #4]
  sample->temperature = mpu6500_be16_to_i16(&data[6]);
 800202a:	f107 0308 	add.w	r3, r7, #8
 800202e:	3306      	adds	r3, #6
 8002030:	4618      	mov	r0, r3
 8002032:	f000 f9d8 	bl	80023e6 <mpu6500_be16_to_i16>
 8002036:	4603      	mov	r3, r0
 8002038:	461a      	mov	r2, r3
 800203a:	683b      	ldr	r3, [r7, #0]
 800203c:	819a      	strh	r2, [r3, #12]
  sample->gyro.x = mpu6500_be16_to_i16(&data[8]);
 800203e:	f107 0308 	add.w	r3, r7, #8
 8002042:	3308      	adds	r3, #8
 8002044:	4618      	mov	r0, r3
 8002046:	f000 f9ce 	bl	80023e6 <mpu6500_be16_to_i16>
 800204a:	4603      	mov	r3, r0
 800204c:	461a      	mov	r2, r3
 800204e:	683b      	ldr	r3, [r7, #0]
 8002050:	80da      	strh	r2, [r3, #6]
  sample->gyro.y = mpu6500_be16_to_i16(&data[10]);
 8002052:	f107 0308 	add.w	r3, r7, #8
 8002056:	330a      	adds	r3, #10
 8002058:	4618      	mov	r0, r3
 800205a:	f000 f9c4 	bl	80023e6 <mpu6500_be16_to_i16>
 800205e:	4603      	mov	r3, r0
 8002060:	461a      	mov	r2, r3
 8002062:	683b      	ldr	r3, [r7, #0]
 8002064:	811a      	strh	r2, [r3, #8]
  sample->gyro.z = mpu6500_be16_to_i16(&data[12]);
 8002066:	f107 0308 	add.w	r3, r7, #8
 800206a:	330c      	adds	r3, #12
 800206c:	4618      	mov	r0, r3
 800206e:	f000 f9ba 	bl	80023e6 <mpu6500_be16_to_i16>
 8002072:	4603      	mov	r3, r0
 8002074:	461a      	mov	r2, r3
 8002076:	683b      	ldr	r3, [r7, #0]
 8002078:	815a      	strh	r2, [r3, #10]

  return MPU6500_OK;
 800207a:	2300      	movs	r3, #0
}
 800207c:	4618      	mov	r0, r3
 800207e:	3718      	adds	r7, #24
 8002080:	46bd      	mov	sp, r7
 8002082:	bd80      	pop	{r7, pc}

08002084 <mpu6500_write_register>:
  *temperature = mpu6500_be16_to_i16(data);
  return MPU6500_OK;
}

mpu6500_status_t mpu6500_write_register(mpu6500_t *dev, uint8_t reg, uint8_t value)
{
 8002084:	b580      	push	{r7, lr}
 8002086:	b084      	sub	sp, #16
 8002088:	af00      	add	r7, sp, #0
 800208a:	6078      	str	r0, [r7, #4]
 800208c:	460b      	mov	r3, r1
 800208e:	70fb      	strb	r3, [r7, #3]
 8002090:	4613      	mov	r3, r2
 8002092:	70bb      	strb	r3, [r7, #2]
  uint8_t tx[2];

  if (dev == NULL)
 8002094:	687b      	ldr	r3, [r7, #4]
 8002096:	2b00      	cmp	r3, #0
 8002098:	d101      	bne.n	800209e <mpu6500_write_register+0x1a>
  {
    return MPU6500_ERROR_INVALID_ARG;
 800209a:	2302      	movs	r3, #2
 800209c:	e00e      	b.n	80020bc <mpu6500_write_register+0x38>
  }

  tx[0] = reg & MPU6500_SPI_WRITE_MASK;
 800209e:	78fb      	ldrb	r3, [r7, #3]
 80020a0:	f003 037f 	and.w	r3, r3, #127	; 0x7f
 80020a4:	b2db      	uxtb	r3, r3
 80020a6:	733b      	strb	r3, [r7, #12]
  tx[1] = value;
 80020a8:	78bb      	ldrb	r3, [r7, #2]
 80020aa:	737b      	strb	r3, [r7, #13]

  return mpu6500_spi_transfer(dev, tx, NULL, sizeof(tx));
 80020ac:	f107 010c 	add.w	r1, r7, #12
 80020b0:	2302      	movs	r3, #2
 80020b2:	2200      	movs	r2, #0
 80020b4:	6878      	ldr	r0, [r7, #4]
 80020b6:	f000 f8d1 	bl	800225c <mpu6500_spi_transfer>
 80020ba:	4603      	mov	r3, r0
}
 80020bc:	4618      	mov	r0, r3
 80020be:	3710      	adds	r7, #16
 80020c0:	46bd      	mov	sp, r7
 80020c2:	bd80      	pop	{r7, pc}

080020c4 <mpu6500_read_register>:

mpu6500_status_t mpu6500_read_register(mpu6500_t *dev, uint8_t reg, uint8_t *value)
{
 80020c4:	b580      	push	{r7, lr}
 80020c6:	b086      	sub	sp, #24
 80020c8:	af00      	add	r7, sp, #0
 80020ca:	60f8      	str	r0, [r7, #12]
 80020cc:	460b      	mov	r3, r1
 80020ce:	607a      	str	r2, [r7, #4]
 80020d0:	72fb      	strb	r3, [r7, #11]
  mpu6500_status_t status;

  if (value == NULL)
 80020d2:	687b      	ldr	r3, [r7, #4]
 80020d4:	2b00      	cmp	r3, #0
 80020d6:	d101      	bne.n	80020dc <mpu6500_read_register+0x18>
  {
    return MPU6500_ERROR_INVALID_ARG;
 80020d8:	2302      	movs	r3, #2
 80020da:	e008      	b.n	80020ee <mpu6500_read_register+0x2a>
  }

  status = mpu6500_read_registers(dev, reg, value, 1U);
 80020dc:	7af9      	ldrb	r1, [r7, #11]
 80020de:	2301      	movs	r3, #1
 80020e0:	687a      	ldr	r2, [r7, #4]
 80020e2:	68f8      	ldr	r0, [r7, #12]
 80020e4:	f000 f807 	bl	80020f6 <mpu6500_read_registers>
 80020e8:	4603      	mov	r3, r0
 80020ea:	75fb      	strb	r3, [r7, #23]
  return status;
 80020ec:	7dfb      	ldrb	r3, [r7, #23]
}
 80020ee:	4618      	mov	r0, r3
 80020f0:	3718      	adds	r7, #24
 80020f2:	46bd      	mov	sp, r7
 80020f4:	bd80      	pop	{r7, pc}

080020f6 <mpu6500_read_registers>:

mpu6500_status_t mpu6500_read_registers(mpu6500_t *dev, uint8_t reg, uint8_t *data, uint16_t length)
{
 80020f6:	b580      	push	{r7, lr}
 80020f8:	b086      	sub	sp, #24
 80020fa:	af00      	add	r7, sp, #0
 80020fc:	60f8      	str	r0, [r7, #12]
 80020fe:	607a      	str	r2, [r7, #4]
 8002100:	461a      	mov	r2, r3
 8002102:	460b      	mov	r3, r1
 8002104:	72fb      	strb	r3, [r7, #11]
 8002106:	4613      	mov	r3, r2
 8002108:	813b      	strh	r3, [r7, #8]
  uint8_t tx_header;
  HAL_StatusTypeDef hal_status;

  if ((dev == NULL) || (dev->hspi == NULL) || (dev->cs_port == NULL) || (data == NULL) || (length == 0U))
 800210a:	68fb      	ldr	r3, [r7, #12]
 800210c:	2b00      	cmp	r3, #0
 800210e:	d00d      	beq.n	800212c <mpu6500_read_registers+0x36>
 8002110:	68fb      	ldr	r3, [r7, #12]
 8002112:	681b      	ldr	r3, [r3, #0]
 8002114:	2b00      	cmp	r3, #0
 8002116:	d009      	beq.n	800212c <mpu6500_read_registers+0x36>
 8002118:	68fb      	ldr	r3, [r7, #12]
 800211a:	685b      	ldr	r3, [r3, #4]
 800211c:	2b00      	cmp	r3, #0
 800211e:	d005      	beq.n	800212c <mpu6500_read_registers+0x36>
 8002120:	687b      	ldr	r3, [r7, #4]
 8002122:	2b00      	cmp	r3, #0
 8002124:	d002      	beq.n	800212c <mpu6500_read_registers+0x36>
 8002126:	893b      	ldrh	r3, [r7, #8]
 8002128:	2b00      	cmp	r3, #0
 800212a:	d101      	bne.n	8002130 <mpu6500_read_registers+0x3a>
  {
    return MPU6500_ERROR_INVALID_ARG;
 800212c:	2302      	movs	r3, #2
 800212e:	e037      	b.n	80021a0 <mpu6500_read_registers+0xaa>
  }

  tx_header = reg | MPU6500_SPI_READ_BIT;
 8002130:	7afb      	ldrb	r3, [r7, #11]
 8002132:	f063 037f 	orn	r3, r3, #127	; 0x7f
 8002136:	b2db      	uxtb	r3, r3
 8002138:	75bb      	strb	r3, [r7, #22]

  HAL_GPIO_WritePin(dev->cs_port, dev->cs_pin, GPIO_PIN_RESET);
 800213a:	68fb      	ldr	r3, [r7, #12]
 800213c:	6858      	ldr	r0, [r3, #4]
 800213e:	68fb      	ldr	r3, [r7, #12]
 8002140:	891b      	ldrh	r3, [r3, #8]
 8002142:	2200      	movs	r2, #0
 8002144:	4619      	mov	r1, r3
 8002146:	f001 fd4b 	bl	8003be0 <HAL_GPIO_WritePin>
  hal_status = HAL_SPI_Transmit(dev->hspi, &tx_header, 1U, dev->timeout_ms);
 800214a:	68fb      	ldr	r3, [r7, #12]
 800214c:	6818      	ldr	r0, [r3, #0]
 800214e:	68fb      	ldr	r3, [r7, #12]
 8002150:	68db      	ldr	r3, [r3, #12]
 8002152:	f107 0116 	add.w	r1, r7, #22
 8002156:	2201      	movs	r2, #1
 8002158:	f004 fb0b 	bl	8006772 <HAL_SPI_Transmit>
 800215c:	4603      	mov	r3, r0
 800215e:	75fb      	strb	r3, [r7, #23]
  if (hal_status == HAL_OK)
 8002160:	7dfb      	ldrb	r3, [r7, #23]
 8002162:	2b00      	cmp	r3, #0
 8002164:	d109      	bne.n	800217a <mpu6500_read_registers+0x84>
  {
    hal_status = HAL_SPI_Receive(dev->hspi, data, length, dev->timeout_ms);
 8002166:	68fb      	ldr	r3, [r7, #12]
 8002168:	6818      	ldr	r0, [r3, #0]
 800216a:	68fb      	ldr	r3, [r7, #12]
 800216c:	68db      	ldr	r3, [r3, #12]
 800216e:	893a      	ldrh	r2, [r7, #8]
 8002170:	6879      	ldr	r1, [r7, #4]
 8002172:	f004 fc73 	bl	8006a5c <HAL_SPI_Receive>
 8002176:	4603      	mov	r3, r0
 8002178:	75fb      	strb	r3, [r7, #23]
  }
  HAL_GPIO_WritePin(dev->cs_port, dev->cs_pin, GPIO_PIN_SET);
 800217a:	68fb      	ldr	r3, [r7, #12]
 800217c:	6858      	ldr	r0, [r3, #4]
 800217e:	68fb      	ldr	r3, [r7, #12]
 8002180:	891b      	ldrh	r3, [r3, #8]
 8002182:	2201      	movs	r2, #1
 8002184:	4619      	mov	r1, r3
 8002186:	f001 fd2b 	bl	8003be0 <HAL_GPIO_WritePin>

  if (hal_status == HAL_TIMEOUT)
 800218a:	7dfb      	ldrb	r3, [r7, #23]
 800218c:	2b03      	cmp	r3, #3
 800218e:	d101      	bne.n	8002194 <mpu6500_read_registers+0x9e>
  {
    return MPU6500_ERROR_TIMEOUT;
 8002190:	2305      	movs	r3, #5
 8002192:	e005      	b.n	80021a0 <mpu6500_read_registers+0xaa>
  }

  if (hal_status != HAL_OK)
 8002194:	7dfb      	ldrb	r3, [r7, #23]
 8002196:	2b00      	cmp	r3, #0
 8002198:	d001      	beq.n	800219e <mpu6500_read_registers+0xa8>
  {
    return MPU6500_ERROR_HAL;
 800219a:	2303      	movs	r3, #3
 800219c:	e000      	b.n	80021a0 <mpu6500_read_registers+0xaa>
  }

  return MPU6500_OK;
 800219e:	2300      	movs	r3, #0
}
 80021a0:	4618      	mov	r0, r3
 80021a2:	3718      	adds	r7, #24
 80021a4:	46bd      	mov	sp, r7
 80021a6:	bd80      	pop	{r7, pc}

080021a8 <mpu6500_accel_lsb_per_g>:

float mpu6500_accel_lsb_per_g(mpu6500_accel_fs_t accel_fs)
{
 80021a8:	b480      	push	{r7}
 80021aa:	b083      	sub	sp, #12
 80021ac:	af00      	add	r7, sp, #0
 80021ae:	4603      	mov	r3, r0
 80021b0:	71fb      	strb	r3, [r7, #7]
  switch (accel_fs)
 80021b2:	79fb      	ldrb	r3, [r7, #7]
 80021b4:	2b03      	cmp	r3, #3
 80021b6:	d817      	bhi.n	80021e8 <mpu6500_accel_lsb_per_g+0x40>
 80021b8:	a201      	add	r2, pc, #4	; (adr r2, 80021c0 <mpu6500_accel_lsb_per_g+0x18>)
 80021ba:	f852 f023 	ldr.w	pc, [r2, r3, lsl #2]
 80021be:	bf00      	nop
 80021c0:	080021d1 	.word	0x080021d1
 80021c4:	080021d7 	.word	0x080021d7
 80021c8:	080021dd 	.word	0x080021dd
 80021cc:	080021e3 	.word	0x080021e3
  {
    case MPU6500_ACCEL_FS_2G:
      return 16384.0f;
 80021d0:	f04f 438d 	mov.w	r3, #1182793728	; 0x46800000
 80021d4:	e00a      	b.n	80021ec <mpu6500_accel_lsb_per_g+0x44>
    case MPU6500_ACCEL_FS_4G:
      return 8192.0f;
 80021d6:	f04f 438c 	mov.w	r3, #1174405120	; 0x46000000
 80021da:	e007      	b.n	80021ec <mpu6500_accel_lsb_per_g+0x44>
    case MPU6500_ACCEL_FS_8G:
      return 4096.0f;
 80021dc:	f04f 438b 	mov.w	r3, #1166016512	; 0x45800000
 80021e0:	e004      	b.n	80021ec <mpu6500_accel_lsb_per_g+0x44>
    case MPU6500_ACCEL_FS_16G:
      return 2048.0f;
 80021e2:	f04f 438a 	mov.w	r3, #1157627904	; 0x45000000
 80021e6:	e001      	b.n	80021ec <mpu6500_accel_lsb_per_g+0x44>
    default:
      return 8192.0f;
 80021e8:	f04f 438c 	mov.w	r3, #1174405120	; 0x46000000
  }
}
 80021ec:	ee07 3a90 	vmov	s15, r3
 80021f0:	eeb0 0a67 	vmov.f32	s0, s15
 80021f4:	370c      	adds	r7, #12
 80021f6:	46bd      	mov	sp, r7
 80021f8:	f85d 7b04 	ldr.w	r7, [sp], #4
 80021fc:	4770      	bx	lr
 80021fe:	bf00      	nop

08002200 <mpu6500_gyro_lsb_per_dps>:

float mpu6500_gyro_lsb_per_dps(mpu6500_gyro_fs_t gyro_fs)
{
 8002200:	b480      	push	{r7}
 8002202:	b083      	sub	sp, #12
 8002204:	af00      	add	r7, sp, #0
 8002206:	4603      	mov	r3, r0
 8002208:	71fb      	strb	r3, [r7, #7]
  switch (gyro_fs)
 800220a:	79fb      	ldrb	r3, [r7, #7]
 800220c:	2b03      	cmp	r3, #3
 800220e:	d813      	bhi.n	8002238 <mpu6500_gyro_lsb_per_dps+0x38>
 8002210:	a201      	add	r2, pc, #4	; (adr r2, 8002218 <mpu6500_gyro_lsb_per_dps+0x18>)
 8002212:	f852 f023 	ldr.w	pc, [r2, r3, lsl #2]
 8002216:	bf00      	nop
 8002218:	08002229 	.word	0x08002229
 800221c:	0800222d 	.word	0x0800222d
 8002220:	08002231 	.word	0x08002231
 8002224:	08002235 	.word	0x08002235
  {
    case MPU6500_GYRO_FS_250DPS:
      return 131.0f;
 8002228:	4b08      	ldr	r3, [pc, #32]	; (800224c <mpu6500_gyro_lsb_per_dps+0x4c>)
 800222a:	e006      	b.n	800223a <mpu6500_gyro_lsb_per_dps+0x3a>
    case MPU6500_GYRO_FS_500DPS:
      return 65.5f;
 800222c:	4b08      	ldr	r3, [pc, #32]	; (8002250 <mpu6500_gyro_lsb_per_dps+0x50>)
 800222e:	e004      	b.n	800223a <mpu6500_gyro_lsb_per_dps+0x3a>
    case MPU6500_GYRO_FS_1000DPS:
      return 32.8f;
 8002230:	4b08      	ldr	r3, [pc, #32]	; (8002254 <mpu6500_gyro_lsb_per_dps+0x54>)
 8002232:	e002      	b.n	800223a <mpu6500_gyro_lsb_per_dps+0x3a>
    case MPU6500_GYRO_FS_2000DPS:
      return 16.4f;
 8002234:	4b08      	ldr	r3, [pc, #32]	; (8002258 <mpu6500_gyro_lsb_per_dps+0x58>)
 8002236:	e000      	b.n	800223a <mpu6500_gyro_lsb_per_dps+0x3a>
    default:
      return 65.5f;
 8002238:	4b05      	ldr	r3, [pc, #20]	; (8002250 <mpu6500_gyro_lsb_per_dps+0x50>)
  }
}
 800223a:	ee07 3a90 	vmov	s15, r3
 800223e:	eeb0 0a67 	vmov.f32	s0, s15
 8002242:	370c      	adds	r7, #12
 8002244:	46bd      	mov	sp, r7
 8002246:	f85d 7b04 	ldr.w	r7, [sp], #4
 800224a:	4770      	bx	lr
 800224c:	43030000 	.word	0x43030000
 8002250:	42830000 	.word	0x42830000
 8002254:	42033333 	.word	0x42033333
 8002258:	41833333 	.word	0x41833333

0800225c <mpu6500_spi_transfer>:

static mpu6500_status_t mpu6500_spi_transfer(mpu6500_t *dev,
                                             uint8_t *tx,
                                             uint8_t *rx,
                                             uint16_t length)
{
 800225c:	b580      	push	{r7, lr}
 800225e:	b088      	sub	sp, #32
 8002260:	af02      	add	r7, sp, #8
 8002262:	60f8      	str	r0, [r7, #12]
 8002264:	60b9      	str	r1, [r7, #8]
 8002266:	607a      	str	r2, [r7, #4]
 8002268:	807b      	strh	r3, [r7, #2]
  HAL_StatusTypeDef hal_status;

  if ((dev == NULL) || (dev->hspi == NULL) || (dev->cs_port == NULL) || (tx == NULL) || (length == 0U))
 800226a:	68fb      	ldr	r3, [r7, #12]
 800226c:	2b00      	cmp	r3, #0
 800226e:	d00d      	beq.n	800228c <mpu6500_spi_transfer+0x30>
 8002270:	68fb      	ldr	r3, [r7, #12]
 8002272:	681b      	ldr	r3, [r3, #0]
 8002274:	2b00      	cmp	r3, #0
 8002276:	d009      	beq.n	800228c <mpu6500_spi_transfer+0x30>
 8002278:	68fb      	ldr	r3, [r7, #12]
 800227a:	685b      	ldr	r3, [r3, #4]
 800227c:	2b00      	cmp	r3, #0
 800227e:	d005      	beq.n	800228c <mpu6500_spi_transfer+0x30>
 8002280:	68bb      	ldr	r3, [r7, #8]
 8002282:	2b00      	cmp	r3, #0
 8002284:	d002      	beq.n	800228c <mpu6500_spi_transfer+0x30>
 8002286:	887b      	ldrh	r3, [r7, #2]
 8002288:	2b00      	cmp	r3, #0
 800228a:	d101      	bne.n	8002290 <mpu6500_spi_transfer+0x34>
  {
    return MPU6500_ERROR_INVALID_ARG;
 800228c:	2302      	movs	r3, #2
 800228e:	e035      	b.n	80022fc <mpu6500_spi_transfer+0xa0>
  }

  HAL_GPIO_WritePin(dev->cs_port, dev->cs_pin, GPIO_PIN_RESET);
 8002290:	68fb      	ldr	r3, [r7, #12]
 8002292:	6858      	ldr	r0, [r3, #4]
 8002294:	68fb      	ldr	r3, [r7, #12]
 8002296:	891b      	ldrh	r3, [r3, #8]
 8002298:	2200      	movs	r2, #0
 800229a:	4619      	mov	r1, r3
 800229c:	f001 fca0 	bl	8003be0 <HAL_GPIO_WritePin>
  if (rx != NULL)
 80022a0:	687b      	ldr	r3, [r7, #4]
 80022a2:	2b00      	cmp	r3, #0
 80022a4:	d00d      	beq.n	80022c2 <mpu6500_spi_transfer+0x66>
  {
    hal_status = HAL_SPI_TransmitReceive(dev->hspi, tx, rx, length, dev->timeout_ms);
 80022a6:	68fb      	ldr	r3, [r7, #12]
 80022a8:	6818      	ldr	r0, [r3, #0]
 80022aa:	68fb      	ldr	r3, [r7, #12]
 80022ac:	68db      	ldr	r3, [r3, #12]
 80022ae:	887a      	ldrh	r2, [r7, #2]
 80022b0:	9300      	str	r3, [sp, #0]
 80022b2:	4613      	mov	r3, r2
 80022b4:	687a      	ldr	r2, [r7, #4]
 80022b6:	68b9      	ldr	r1, [r7, #8]
 80022b8:	f004 fd07 	bl	8006cca <HAL_SPI_TransmitReceive>
 80022bc:	4603      	mov	r3, r0
 80022be:	75fb      	strb	r3, [r7, #23]
 80022c0:	e009      	b.n	80022d6 <mpu6500_spi_transfer+0x7a>
  }
  else
  {
    hal_status = HAL_SPI_Transmit(dev->hspi, tx, length, dev->timeout_ms);
 80022c2:	68fb      	ldr	r3, [r7, #12]
 80022c4:	6818      	ldr	r0, [r3, #0]
 80022c6:	68fb      	ldr	r3, [r7, #12]
 80022c8:	68db      	ldr	r3, [r3, #12]
 80022ca:	887a      	ldrh	r2, [r7, #2]
 80022cc:	68b9      	ldr	r1, [r7, #8]
 80022ce:	f004 fa50 	bl	8006772 <HAL_SPI_Transmit>
 80022d2:	4603      	mov	r3, r0
 80022d4:	75fb      	strb	r3, [r7, #23]
  }
  HAL_GPIO_WritePin(dev->cs_port, dev->cs_pin, GPIO_PIN_SET);
 80022d6:	68fb      	ldr	r3, [r7, #12]
 80022d8:	6858      	ldr	r0, [r3, #4]
 80022da:	68fb      	ldr	r3, [r7, #12]
 80022dc:	891b      	ldrh	r3, [r3, #8]
 80022de:	2201      	movs	r2, #1
 80022e0:	4619      	mov	r1, r3
 80022e2:	f001 fc7d 	bl	8003be0 <HAL_GPIO_WritePin>

  if (hal_status == HAL_TIMEOUT)
 80022e6:	7dfb      	ldrb	r3, [r7, #23]
 80022e8:	2b03      	cmp	r3, #3
 80022ea:	d101      	bne.n	80022f0 <mpu6500_spi_transfer+0x94>
  {
    return MPU6500_ERROR_TIMEOUT;
 80022ec:	2305      	movs	r3, #5
 80022ee:	e005      	b.n	80022fc <mpu6500_spi_transfer+0xa0>
  }

  if (hal_status != HAL_OK)
 80022f0:	7dfb      	ldrb	r3, [r7, #23]
 80022f2:	2b00      	cmp	r3, #0
 80022f4:	d001      	beq.n	80022fa <mpu6500_spi_transfer+0x9e>
  {
    return MPU6500_ERROR_HAL;
 80022f6:	2303      	movs	r3, #3
 80022f8:	e000      	b.n	80022fc <mpu6500_spi_transfer+0xa0>
  }

  return MPU6500_OK;
 80022fa:	2300      	movs	r3, #0
}
 80022fc:	4618      	mov	r0, r3
 80022fe:	3718      	adds	r7, #24
 8002300:	46bd      	mov	sp, r7
 8002302:	bd80      	pop	{r7, pc}

08002304 <mpu6500_apply_config>:

static mpu6500_status_t mpu6500_apply_config(mpu6500_t *dev)
{
 8002304:	b580      	push	{r7, lr}
 8002306:	b082      	sub	sp, #8
 8002308:	af00      	add	r7, sp, #0
 800230a:	6078      	str	r0, [r7, #4]
  if (mpu6500_write_register(dev, MPU6500_REG_PWR_MGMT_1, MPU6500_PWR_MGMT_1_CLK_PLL_XGYRO) != MPU6500_OK)
 800230c:	2201      	movs	r2, #1
 800230e:	216b      	movs	r1, #107	; 0x6b
 8002310:	6878      	ldr	r0, [r7, #4]
 8002312:	f7ff feb7 	bl	8002084 <mpu6500_write_register>
 8002316:	4603      	mov	r3, r0
 8002318:	2b00      	cmp	r3, #0
 800231a:	d001      	beq.n	8002320 <mpu6500_apply_config+0x1c>
  {
    return MPU6500_ERROR_HAL;
 800231c:	2303      	movs	r3, #3
 800231e:	e05e      	b.n	80023de <mpu6500_apply_config+0xda>
  }

  if (mpu6500_write_register(dev, MPU6500_REG_PWR_MGMT_2, 0x00U) != MPU6500_OK)
 8002320:	2200      	movs	r2, #0
 8002322:	216c      	movs	r1, #108	; 0x6c
 8002324:	6878      	ldr	r0, [r7, #4]
 8002326:	f7ff fead 	bl	8002084 <mpu6500_write_register>
 800232a:	4603      	mov	r3, r0
 800232c:	2b00      	cmp	r3, #0
 800232e:	d001      	beq.n	8002334 <mpu6500_apply_config+0x30>
  {
    return MPU6500_ERROR_HAL;
 8002330:	2303      	movs	r3, #3
 8002332:	e054      	b.n	80023de <mpu6500_apply_config+0xda>
  }

  if (mpu6500_write_register(dev, MPU6500_REG_USER_CTRL, MPU6500_USER_CTRL_I2C_IF_DIS) != MPU6500_OK)
 8002334:	2210      	movs	r2, #16
 8002336:	216a      	movs	r1, #106	; 0x6a
 8002338:	6878      	ldr	r0, [r7, #4]
 800233a:	f7ff fea3 	bl	8002084 <mpu6500_write_register>
 800233e:	4603      	mov	r3, r0
 8002340:	2b00      	cmp	r3, #0
 8002342:	d001      	beq.n	8002348 <mpu6500_apply_config+0x44>
  {
    return MPU6500_ERROR_HAL;
 8002344:	2303      	movs	r3, #3
 8002346:	e04a      	b.n	80023de <mpu6500_apply_config+0xda>
  }

  if (mpu6500_write_register(dev, MPU6500_REG_SMPLRT_DIV, dev->config.sample_rate_divider) != MPU6500_OK)
 8002348:	687b      	ldr	r3, [r7, #4]
 800234a:	7cdb      	ldrb	r3, [r3, #19]
 800234c:	461a      	mov	r2, r3
 800234e:	2119      	movs	r1, #25
 8002350:	6878      	ldr	r0, [r7, #4]
 8002352:	f7ff fe97 	bl	8002084 <mpu6500_write_register>
 8002356:	4603      	mov	r3, r0
 8002358:	2b00      	cmp	r3, #0
 800235a:	d001      	beq.n	8002360 <mpu6500_apply_config+0x5c>
  {
    return MPU6500_ERROR_HAL;
 800235c:	2303      	movs	r3, #3
 800235e:	e03e      	b.n	80023de <mpu6500_apply_config+0xda>
  }

  if (mpu6500_write_register(dev, MPU6500_REG_CONFIG, dev->config.dlpf_cfg & 0x07U) != MPU6500_OK)
 8002360:	687b      	ldr	r3, [r7, #4]
 8002362:	7c9b      	ldrb	r3, [r3, #18]
 8002364:	f003 0307 	and.w	r3, r3, #7
 8002368:	b2db      	uxtb	r3, r3
 800236a:	461a      	mov	r2, r3
 800236c:	211a      	movs	r1, #26
 800236e:	6878      	ldr	r0, [r7, #4]
 8002370:	f7ff fe88 	bl	8002084 <mpu6500_write_register>
 8002374:	4603      	mov	r3, r0
 8002376:	2b00      	cmp	r3, #0
 8002378:	d001      	beq.n	800237e <mpu6500_apply_config+0x7a>
  {
    return MPU6500_ERROR_HAL;
 800237a:	2303      	movs	r3, #3
 800237c:	e02f      	b.n	80023de <mpu6500_apply_config+0xda>
  }

  if (mpu6500_write_register(dev, MPU6500_REG_GYRO_CONFIG, mpu6500_gyro_fs_bits(dev->config.gyro_fs)) != MPU6500_OK)
 800237e:	687b      	ldr	r3, [r7, #4]
 8002380:	7c1b      	ldrb	r3, [r3, #16]
 8002382:	4618      	mov	r0, r3
 8002384:	f000 f843 	bl	800240e <mpu6500_gyro_fs_bits>
 8002388:	4603      	mov	r3, r0
 800238a:	461a      	mov	r2, r3
 800238c:	211b      	movs	r1, #27
 800238e:	6878      	ldr	r0, [r7, #4]
 8002390:	f7ff fe78 	bl	8002084 <mpu6500_write_register>
 8002394:	4603      	mov	r3, r0
 8002396:	2b00      	cmp	r3, #0
 8002398:	d001      	beq.n	800239e <mpu6500_apply_config+0x9a>
  {
    return MPU6500_ERROR_HAL;
 800239a:	2303      	movs	r3, #3
 800239c:	e01f      	b.n	80023de <mpu6500_apply_config+0xda>
  }

  if (mpu6500_write_register(dev, MPU6500_REG_ACCEL_CONFIG, mpu6500_accel_fs_bits(dev->config.accel_fs)) != MPU6500_OK)
 800239e:	687b      	ldr	r3, [r7, #4]
 80023a0:	7c5b      	ldrb	r3, [r3, #17]
 80023a2:	4618      	mov	r0, r3
 80023a4:	f000 f844 	bl	8002430 <mpu6500_accel_fs_bits>
 80023a8:	4603      	mov	r3, r0
 80023aa:	461a      	mov	r2, r3
 80023ac:	211c      	movs	r1, #28
 80023ae:	6878      	ldr	r0, [r7, #4]
 80023b0:	f7ff fe68 	bl	8002084 <mpu6500_write_register>
 80023b4:	4603      	mov	r3, r0
 80023b6:	2b00      	cmp	r3, #0
 80023b8:	d001      	beq.n	80023be <mpu6500_apply_config+0xba>
  {
    return MPU6500_ERROR_HAL;
 80023ba:	2303      	movs	r3, #3
 80023bc:	e00f      	b.n	80023de <mpu6500_apply_config+0xda>
  }

  if (mpu6500_write_register(dev, MPU6500_REG_ACCEL_CONFIG2, dev->config.dlpf_cfg & 0x07U) != MPU6500_OK)
 80023be:	687b      	ldr	r3, [r7, #4]
 80023c0:	7c9b      	ldrb	r3, [r3, #18]
 80023c2:	f003 0307 	and.w	r3, r3, #7
 80023c6:	b2db      	uxtb	r3, r3
 80023c8:	461a      	mov	r2, r3
 80023ca:	211d      	movs	r1, #29
 80023cc:	6878      	ldr	r0, [r7, #4]
 80023ce:	f7ff fe59 	bl	8002084 <mpu6500_write_register>
 80023d2:	4603      	mov	r3, r0
 80023d4:	2b00      	cmp	r3, #0
 80023d6:	d001      	beq.n	80023dc <mpu6500_apply_config+0xd8>
  {
    return MPU6500_ERROR_HAL;
 80023d8:	2303      	movs	r3, #3
 80023da:	e000      	b.n	80023de <mpu6500_apply_config+0xda>
  }

  return MPU6500_OK;
 80023dc:	2300      	movs	r3, #0
}
 80023de:	4618      	mov	r0, r3
 80023e0:	3708      	adds	r7, #8
 80023e2:	46bd      	mov	sp, r7
 80023e4:	bd80      	pop	{r7, pc}

080023e6 <mpu6500_be16_to_i16>:

static int16_t mpu6500_be16_to_i16(const uint8_t *data)
{
 80023e6:	b480      	push	{r7}
 80023e8:	b083      	sub	sp, #12
 80023ea:	af00      	add	r7, sp, #0
 80023ec:	6078      	str	r0, [r7, #4]
  return (int16_t)(((uint16_t)data[0] << 8) | data[1]);
 80023ee:	687b      	ldr	r3, [r7, #4]
 80023f0:	781b      	ldrb	r3, [r3, #0]
 80023f2:	021b      	lsls	r3, r3, #8
 80023f4:	b21a      	sxth	r2, r3
 80023f6:	687b      	ldr	r3, [r7, #4]
 80023f8:	3301      	adds	r3, #1
 80023fa:	781b      	ldrb	r3, [r3, #0]
 80023fc:	b21b      	sxth	r3, r3
 80023fe:	4313      	orrs	r3, r2
 8002400:	b21b      	sxth	r3, r3
}
 8002402:	4618      	mov	r0, r3
 8002404:	370c      	adds	r7, #12
 8002406:	46bd      	mov	sp, r7
 8002408:	f85d 7b04 	ldr.w	r7, [sp], #4
 800240c:	4770      	bx	lr

0800240e <mpu6500_gyro_fs_bits>:

static uint8_t mpu6500_gyro_fs_bits(mpu6500_gyro_fs_t gyro_fs)
{
 800240e:	b480      	push	{r7}
 8002410:	b083      	sub	sp, #12
 8002412:	af00      	add	r7, sp, #0
 8002414:	4603      	mov	r3, r0
 8002416:	71fb      	strb	r3, [r7, #7]
  return (uint8_t)(((uint8_t)gyro_fs & 0x03U) << 3);
 8002418:	79fb      	ldrb	r3, [r7, #7]
 800241a:	00db      	lsls	r3, r3, #3
 800241c:	b2db      	uxtb	r3, r3
 800241e:	f003 0318 	and.w	r3, r3, #24
 8002422:	b2db      	uxtb	r3, r3
}
 8002424:	4618      	mov	r0, r3
 8002426:	370c      	adds	r7, #12
 8002428:	46bd      	mov	sp, r7
 800242a:	f85d 7b04 	ldr.w	r7, [sp], #4
 800242e:	4770      	bx	lr

08002430 <mpu6500_accel_fs_bits>:

static uint8_t mpu6500_accel_fs_bits(mpu6500_accel_fs_t accel_fs)
{
 8002430:	b480      	push	{r7}
 8002432:	b083      	sub	sp, #12
 8002434:	af00      	add	r7, sp, #0
 8002436:	4603      	mov	r3, r0
 8002438:	71fb      	strb	r3, [r7, #7]
  return (uint8_t)(((uint8_t)accel_fs & 0x03U) << 3);
 800243a:	79fb      	ldrb	r3, [r7, #7]
 800243c:	00db      	lsls	r3, r3, #3
 800243e:	b2db      	uxtb	r3, r3
 8002440:	f003 0318 	and.w	r3, r3, #24
 8002444:	b2db      	uxtb	r3, r3
}
 8002446:	4618      	mov	r0, r3
 8002448:	370c      	adds	r7, #12
 800244a:	46bd      	mov	sp, r7
 800244c:	f85d 7b04 	ldr.w	r7, [sp], #4
 8002450:	4770      	bx	lr

08002452 <sensor_cal_mpu6500_gyro_zero>:

sensor_cal_status_t sensor_cal_mpu6500_gyro_zero(mpu6500_t *imu,
                                                 uint32_t sample_count,
                                                 uint32_t sample_delay_ms,
                                                 cal_mpu6500_t *calibration)
{
 8002452:	b580      	push	{r7, lr}
 8002454:	b08a      	sub	sp, #40	; 0x28
 8002456:	af02      	add	r7, sp, #8
 8002458:	60f8      	str	r0, [r7, #12]
 800245a:	60b9      	str	r1, [r7, #8]
 800245c:	607a      	str	r2, [r7, #4]
 800245e:	603b      	str	r3, [r7, #0]
  sensor_cal_vector_t gyro_mean;
  sensor_cal_status_t status;

  if ((imu == NULL) || (calibration == NULL))
 8002460:	68fb      	ldr	r3, [r7, #12]
 8002462:	2b00      	cmp	r3, #0
 8002464:	d002      	beq.n	800246c <sensor_cal_mpu6500_gyro_zero+0x1a>
 8002466:	683b      	ldr	r3, [r7, #0]
 8002468:	2b00      	cmp	r3, #0
 800246a:	d101      	bne.n	8002470 <sensor_cal_mpu6500_gyro_zero+0x1e>
  {
    return SENSOR_CAL_ERROR_INVALID_ARG;
 800246c:	2302      	movs	r3, #2
 800246e:	e019      	b.n	80024a4 <sensor_cal_mpu6500_gyro_zero+0x52>
  }

  status = sensor_cal_mpu6500_collect_mean(imu, sample_count, sample_delay_ms, NULL, &gyro_mean);
 8002470:	f107 0310 	add.w	r3, r7, #16
 8002474:	9300      	str	r3, [sp, #0]
 8002476:	2300      	movs	r3, #0
 8002478:	687a      	ldr	r2, [r7, #4]
 800247a:	68b9      	ldr	r1, [r7, #8]
 800247c:	68f8      	ldr	r0, [r7, #12]
 800247e:	f000 faad 	bl	80029dc <sensor_cal_mpu6500_collect_mean>
 8002482:	4603      	mov	r3, r0
 8002484:	77fb      	strb	r3, [r7, #31]
  if (status != SENSOR_CAL_OK)
 8002486:	7ffb      	ldrb	r3, [r7, #31]
 8002488:	2b00      	cmp	r3, #0
 800248a:	d001      	beq.n	8002490 <sensor_cal_mpu6500_gyro_zero+0x3e>
  {
    return status;
 800248c:	7ffb      	ldrb	r3, [r7, #31]
 800248e:	e009      	b.n	80024a4 <sensor_cal_mpu6500_gyro_zero+0x52>
  }

  calibration->gyro_offset_raw[0] = gyro_mean.x;
 8002490:	693a      	ldr	r2, [r7, #16]
 8002492:	683b      	ldr	r3, [r7, #0]
 8002494:	619a      	str	r2, [r3, #24]
  calibration->gyro_offset_raw[1] = gyro_mean.y;
 8002496:	697a      	ldr	r2, [r7, #20]
 8002498:	683b      	ldr	r3, [r7, #0]
 800249a:	61da      	str	r2, [r3, #28]
  calibration->gyro_offset_raw[2] = gyro_mean.z;
 800249c:	69ba      	ldr	r2, [r7, #24]
 800249e:	683b      	ldr	r3, [r7, #0]
 80024a0:	621a      	str	r2, [r3, #32]

  return SENSOR_CAL_OK;
 80024a2:	2300      	movs	r3, #0
}
 80024a4:	4618      	mov	r0, r3
 80024a6:	3720      	adds	r7, #32
 80024a8:	46bd      	mov	sp, r7
 80024aa:	bd80      	pop	{r7, pc}

080024ac <sensor_cal_mpu6500_accel_collect_position>:
sensor_cal_status_t sensor_cal_mpu6500_accel_collect_position(mpu6500_t *imu,
                                                              sensor_cal_accel_position_t position,
                                                              uint32_t sample_count,
                                                              uint32_t sample_delay_ms,
                                                              sensor_cal_accel_six_position_t *accel_data)
{
 80024ac:	b590      	push	{r4, r7, lr}
 80024ae:	b08b      	sub	sp, #44	; 0x2c
 80024b0:	af02      	add	r7, sp, #8
 80024b2:	60f8      	str	r0, [r7, #12]
 80024b4:	607a      	str	r2, [r7, #4]
 80024b6:	603b      	str	r3, [r7, #0]
 80024b8:	460b      	mov	r3, r1
 80024ba:	72fb      	strb	r3, [r7, #11]
  sensor_cal_vector_t accel_mean;
  sensor_cal_status_t status;

  if ((imu == NULL) || (accel_data == NULL) || (position >= SENSOR_CAL_ACCEL_POSITION_COUNT))
 80024bc:	68fb      	ldr	r3, [r7, #12]
 80024be:	2b00      	cmp	r3, #0
 80024c0:	d005      	beq.n	80024ce <sensor_cal_mpu6500_accel_collect_position+0x22>
 80024c2:	6b3b      	ldr	r3, [r7, #48]	; 0x30
 80024c4:	2b00      	cmp	r3, #0
 80024c6:	d002      	beq.n	80024ce <sensor_cal_mpu6500_accel_collect_position+0x22>
 80024c8:	7afb      	ldrb	r3, [r7, #11]
 80024ca:	2b05      	cmp	r3, #5
 80024cc:	d901      	bls.n	80024d2 <sensor_cal_mpu6500_accel_collect_position+0x26>
  {
    return SENSOR_CAL_ERROR_INVALID_ARG;
 80024ce:	2302      	movs	r3, #2
 80024d0:	e024      	b.n	800251c <sensor_cal_mpu6500_accel_collect_position+0x70>
  }

  status = sensor_cal_mpu6500_collect_mean(imu, sample_count, sample_delay_ms, &accel_mean, NULL);
 80024d2:	f107 0310 	add.w	r3, r7, #16
 80024d6:	2200      	movs	r2, #0
 80024d8:	9200      	str	r2, [sp, #0]
 80024da:	683a      	ldr	r2, [r7, #0]
 80024dc:	6879      	ldr	r1, [r7, #4]
 80024de:	68f8      	ldr	r0, [r7, #12]
 80024e0:	f000 fa7c 	bl	80029dc <sensor_cal_mpu6500_collect_mean>
 80024e4:	4603      	mov	r3, r0
 80024e6:	77fb      	strb	r3, [r7, #31]
  if (status != SENSOR_CAL_OK)
 80024e8:	7ffb      	ldrb	r3, [r7, #31]
 80024ea:	2b00      	cmp	r3, #0
 80024ec:	d001      	beq.n	80024f2 <sensor_cal_mpu6500_accel_collect_position+0x46>
  {
    return status;
 80024ee:	7ffb      	ldrb	r3, [r7, #31]
 80024f0:	e014      	b.n	800251c <sensor_cal_mpu6500_accel_collect_position+0x70>
  }

  accel_data->mean[position] = accel_mean;
 80024f2:	7afa      	ldrb	r2, [r7, #11]
 80024f4:	6b39      	ldr	r1, [r7, #48]	; 0x30
 80024f6:	4613      	mov	r3, r2
 80024f8:	005b      	lsls	r3, r3, #1
 80024fa:	4413      	add	r3, r2
 80024fc:	009b      	lsls	r3, r3, #2
 80024fe:	440b      	add	r3, r1
 8002500:	461c      	mov	r4, r3
 8002502:	f107 0310 	add.w	r3, r7, #16
 8002506:	e893 0007 	ldmia.w	r3, {r0, r1, r2}
 800250a:	e884 0007 	stmia.w	r4, {r0, r1, r2}
  accel_data->valid[position] = 1U;
 800250e:	7afb      	ldrb	r3, [r7, #11]
 8002510:	6b3a      	ldr	r2, [r7, #48]	; 0x30
 8002512:	4413      	add	r3, r2
 8002514:	2201      	movs	r2, #1
 8002516:	f883 2048 	strb.w	r2, [r3, #72]	; 0x48

  return SENSOR_CAL_OK;
 800251a:	2300      	movs	r3, #0
}
 800251c:	4618      	mov	r0, r3
 800251e:	3724      	adds	r7, #36	; 0x24
 8002520:	46bd      	mov	sp, r7
 8002522:	bd90      	pop	{r4, r7, pc}

08002524 <sensor_cal_mpu6500_accel_compute_six_position>:

sensor_cal_status_t sensor_cal_mpu6500_accel_compute_six_position(const sensor_cal_accel_six_position_t *accel_data,
                                                                  float accel_lsb_per_g,
                                                                  cal_mpu6500_t *calibration)
{
 8002524:	b580      	push	{r7, lr}
 8002526:	b088      	sub	sp, #32
 8002528:	af00      	add	r7, sp, #0
 800252a:	60f8      	str	r0, [r7, #12]
 800252c:	ed87 0a02 	vstr	s0, [r7, #8]
 8002530:	6079      	str	r1, [r7, #4]
  float dx;
  float dy;
  float dz;
  uint32_t i;

  if ((accel_data == NULL) || (calibration == NULL) || (accel_lsb_per_g <= 0.0f))
 8002532:	68fb      	ldr	r3, [r7, #12]
 8002534:	2b00      	cmp	r3, #0
 8002536:	d009      	beq.n	800254c <sensor_cal_mpu6500_accel_compute_six_position+0x28>
 8002538:	687b      	ldr	r3, [r7, #4]
 800253a:	2b00      	cmp	r3, #0
 800253c:	d006      	beq.n	800254c <sensor_cal_mpu6500_accel_compute_six_position+0x28>
 800253e:	edd7 7a02 	vldr	s15, [r7, #8]
 8002542:	eef5 7ac0 	vcmpe.f32	s15, #0.0
 8002546:	eef1 fa10 	vmrs	APSR_nzcv, fpscr
 800254a:	d801      	bhi.n	8002550 <sensor_cal_mpu6500_accel_compute_six_position+0x2c>
  {
    return SENSOR_CAL_ERROR_INVALID_ARG;
 800254c:	2302      	movs	r3, #2
 800254e:	e0a7      	b.n	80026a0 <sensor_cal_mpu6500_accel_compute_six_position+0x17c>
  }

  for (i = 0U; i < SENSOR_CAL_ACCEL_POSITION_COUNT; i++)
 8002550:	2300      	movs	r3, #0
 8002552:	61fb      	str	r3, [r7, #28]
 8002554:	e00b      	b.n	800256e <sensor_cal_mpu6500_accel_compute_six_position+0x4a>
  {
    if (accel_data->valid[i] == 0U)
 8002556:	68fa      	ldr	r2, [r7, #12]
 8002558:	69fb      	ldr	r3, [r7, #28]
 800255a:	4413      	add	r3, r2
 800255c:	3348      	adds	r3, #72	; 0x48
 800255e:	781b      	ldrb	r3, [r3, #0]
 8002560:	2b00      	cmp	r3, #0
 8002562:	d101      	bne.n	8002568 <sensor_cal_mpu6500_accel_compute_six_position+0x44>
    {
      return SENSOR_CAL_ERROR_NOT_ENOUGH_SAMPLES;
 8002564:	2304      	movs	r3, #4
 8002566:	e09b      	b.n	80026a0 <sensor_cal_mpu6500_accel_compute_six_position+0x17c>
  for (i = 0U; i < SENSOR_CAL_ACCEL_POSITION_COUNT; i++)
 8002568:	69fb      	ldr	r3, [r7, #28]
 800256a:	3301      	adds	r3, #1
 800256c:	61fb      	str	r3, [r7, #28]
 800256e:	69fb      	ldr	r3, [r7, #28]
 8002570:	2b05      	cmp	r3, #5
 8002572:	d9f0      	bls.n	8002556 <sensor_cal_mpu6500_accel_compute_six_position+0x32>
    }
  }

  dx = accel_data->mean[SENSOR_CAL_ACCEL_POS_X].x - accel_data->mean[SENSOR_CAL_ACCEL_NEG_X].x;
 8002574:	68fb      	ldr	r3, [r7, #12]
 8002576:	ed93 7a00 	vldr	s14, [r3]
 800257a:	68fb      	ldr	r3, [r7, #12]
 800257c:	edd3 7a03 	vldr	s15, [r3, #12]
 8002580:	ee77 7a67 	vsub.f32	s15, s14, s15
 8002584:	edc7 7a06 	vstr	s15, [r7, #24]
  dy = accel_data->mean[SENSOR_CAL_ACCEL_POS_Y].y - accel_data->mean[SENSOR_CAL_ACCEL_NEG_Y].y;
 8002588:	68fb      	ldr	r3, [r7, #12]
 800258a:	ed93 7a07 	vldr	s14, [r3, #28]
 800258e:	68fb      	ldr	r3, [r7, #12]
 8002590:	edd3 7a0a 	vldr	s15, [r3, #40]	; 0x28
 8002594:	ee77 7a67 	vsub.f32	s15, s14, s15
 8002598:	edc7 7a05 	vstr	s15, [r7, #20]
  dz = accel_data->mean[SENSOR_CAL_ACCEL_POS_Z].z - accel_data->mean[SENSOR_CAL_ACCEL_NEG_Z].z;
 800259c:	68fb      	ldr	r3, [r7, #12]
 800259e:	ed93 7a0e 	vldr	s14, [r3, #56]	; 0x38
 80025a2:	68fb      	ldr	r3, [r7, #12]
 80025a4:	edd3 7a11 	vldr	s15, [r3, #68]	; 0x44
 80025a8:	ee77 7a67 	vsub.f32	s15, s14, s15
 80025ac:	edc7 7a04 	vstr	s15, [r7, #16]

  if ((sensor_cal_absf(dx) < accel_lsb_per_g) ||
 80025b0:	ed97 0a06 	vldr	s0, [r7, #24]
 80025b4:	f000 fae9 	bl	8002b8a <sensor_cal_absf>
 80025b8:	eeb0 7a40 	vmov.f32	s14, s0
 80025bc:	edd7 7a02 	vldr	s15, [r7, #8]
 80025c0:	eef4 7ac7 	vcmpe.f32	s15, s14
 80025c4:	eef1 fa10 	vmrs	APSR_nzcv, fpscr
 80025c8:	dc19      	bgt.n	80025fe <sensor_cal_mpu6500_accel_compute_six_position+0xda>
      (sensor_cal_absf(dy) < accel_lsb_per_g) ||
 80025ca:	ed97 0a05 	vldr	s0, [r7, #20]
 80025ce:	f000 fadc 	bl	8002b8a <sensor_cal_absf>
 80025d2:	eeb0 7a40 	vmov.f32	s14, s0
  if ((sensor_cal_absf(dx) < accel_lsb_per_g) ||
 80025d6:	edd7 7a02 	vldr	s15, [r7, #8]
 80025da:	eef4 7ac7 	vcmpe.f32	s15, s14
 80025de:	eef1 fa10 	vmrs	APSR_nzcv, fpscr
 80025e2:	dc0c      	bgt.n	80025fe <sensor_cal_mpu6500_accel_compute_six_position+0xda>
      (sensor_cal_absf(dz) < accel_lsb_per_g))
 80025e4:	ed97 0a04 	vldr	s0, [r7, #16]
 80025e8:	f000 facf 	bl	8002b8a <sensor_cal_absf>
 80025ec:	eeb0 7a40 	vmov.f32	s14, s0
      (sensor_cal_absf(dy) < accel_lsb_per_g) ||
 80025f0:	edd7 7a02 	vldr	s15, [r7, #8]
 80025f4:	eef4 7ac7 	vcmpe.f32	s15, s14
 80025f8:	eef1 fa10 	vmrs	APSR_nzcv, fpscr
 80025fc:	dd01      	ble.n	8002602 <sensor_cal_mpu6500_accel_compute_six_position+0xde>
  {
    return SENSOR_CAL_ERROR_BAD_DATA;
 80025fe:	2305      	movs	r3, #5
 8002600:	e04e      	b.n	80026a0 <sensor_cal_mpu6500_accel_compute_six_position+0x17c>
  }

  calibration->accel_offset_raw[0] = (accel_data->mean[SENSOR_CAL_ACCEL_POS_X].x +
 8002602:	68fb      	ldr	r3, [r7, #12]
 8002604:	ed93 7a00 	vldr	s14, [r3]
                                      accel_data->mean[SENSOR_CAL_ACCEL_NEG_X].x) * 0.5f;
 8002608:	68fb      	ldr	r3, [r7, #12]
 800260a:	edd3 7a03 	vldr	s15, [r3, #12]
  calibration->accel_offset_raw[0] = (accel_data->mean[SENSOR_CAL_ACCEL_POS_X].x +
 800260e:	ee77 7a27 	vadd.f32	s15, s14, s15
                                      accel_data->mean[SENSOR_CAL_ACCEL_NEG_X].x) * 0.5f;
 8002612:	eeb6 7a00 	vmov.f32	s14, #96	; 0x3f000000  0.5
 8002616:	ee67 7a87 	vmul.f32	s15, s15, s14
  calibration->accel_offset_raw[0] = (accel_data->mean[SENSOR_CAL_ACCEL_POS_X].x +
 800261a:	687b      	ldr	r3, [r7, #4]
 800261c:	edc3 7a00 	vstr	s15, [r3]
  calibration->accel_offset_raw[1] = (accel_data->mean[SENSOR_CAL_ACCEL_POS_Y].y +
 8002620:	68fb      	ldr	r3, [r7, #12]
 8002622:	ed93 7a07 	vldr	s14, [r3, #28]
                                      accel_data->mean[SENSOR_CAL_ACCEL_NEG_Y].y) * 0.5f;
 8002626:	68fb      	ldr	r3, [r7, #12]
 8002628:	edd3 7a0a 	vldr	s15, [r3, #40]	; 0x28
  calibration->accel_offset_raw[1] = (accel_data->mean[SENSOR_CAL_ACCEL_POS_Y].y +
 800262c:	ee77 7a27 	vadd.f32	s15, s14, s15
                                      accel_data->mean[SENSOR_CAL_ACCEL_NEG_Y].y) * 0.5f;
 8002630:	eeb6 7a00 	vmov.f32	s14, #96	; 0x3f000000  0.5
 8002634:	ee67 7a87 	vmul.f32	s15, s15, s14
  calibration->accel_offset_raw[1] = (accel_data->mean[SENSOR_CAL_ACCEL_POS_Y].y +
 8002638:	687b      	ldr	r3, [r7, #4]
 800263a:	edc3 7a01 	vstr	s15, [r3, #4]
  calibration->accel_offset_raw[2] = (accel_data->mean[SENSOR_CAL_ACCEL_POS_Z].z +
 800263e:	68fb      	ldr	r3, [r7, #12]
 8002640:	ed93 7a0e 	vldr	s14, [r3, #56]	; 0x38
                                      accel_data->mean[SENSOR_CAL_ACCEL_NEG_Z].z) * 0.5f;
 8002644:	68fb      	ldr	r3, [r7, #12]
 8002646:	edd3 7a11 	vldr	s15, [r3, #68]	; 0x44
  calibration->accel_offset_raw[2] = (accel_data->mean[SENSOR_CAL_ACCEL_POS_Z].z +
 800264a:	ee77 7a27 	vadd.f32	s15, s14, s15
                                      accel_data->mean[SENSOR_CAL_ACCEL_NEG_Z].z) * 0.5f;
 800264e:	eeb6 7a00 	vmov.f32	s14, #96	; 0x3f000000  0.5
 8002652:	ee67 7a87 	vmul.f32	s15, s15, s14
  calibration->accel_offset_raw[2] = (accel_data->mean[SENSOR_CAL_ACCEL_POS_Z].z +
 8002656:	687b      	ldr	r3, [r7, #4]
 8002658:	edc3 7a02 	vstr	s15, [r3, #8]

  calibration->accel_scale[0] = (2.0f * accel_lsb_per_g) / dx;
 800265c:	edd7 7a02 	vldr	s15, [r7, #8]
 8002660:	ee77 6aa7 	vadd.f32	s13, s15, s15
 8002664:	ed97 7a06 	vldr	s14, [r7, #24]
 8002668:	eec6 7a87 	vdiv.f32	s15, s13, s14
 800266c:	687b      	ldr	r3, [r7, #4]
 800266e:	edc3 7a03 	vstr	s15, [r3, #12]
  calibration->accel_scale[1] = (2.0f * accel_lsb_per_g) / dy;
 8002672:	edd7 7a02 	vldr	s15, [r7, #8]
 8002676:	ee77 6aa7 	vadd.f32	s13, s15, s15
 800267a:	ed97 7a05 	vldr	s14, [r7, #20]
 800267e:	eec6 7a87 	vdiv.f32	s15, s13, s14
 8002682:	687b      	ldr	r3, [r7, #4]
 8002684:	edc3 7a04 	vstr	s15, [r3, #16]
  calibration->accel_scale[2] = (2.0f * accel_lsb_per_g) / dz;
 8002688:	edd7 7a02 	vldr	s15, [r7, #8]
 800268c:	ee77 6aa7 	vadd.f32	s13, s15, s15
 8002690:	ed97 7a04 	vldr	s14, [r7, #16]
 8002694:	eec6 7a87 	vdiv.f32	s15, s13, s14
 8002698:	687b      	ldr	r3, [r7, #4]
 800269a:	edc3 7a05 	vstr	s15, [r3, #20]

  return SENSOR_CAL_OK;
 800269e:	2300      	movs	r3, #0
}
 80026a0:	4618      	mov	r0, r3
 80026a2:	3720      	adds	r7, #32
 80026a4:	46bd      	mov	sp, r7
 80026a6:	bd80      	pop	{r7, pc}

080026a8 <sensor_cal_accel_six_position_clear>:

  return SENSOR_CAL_OK;
}

void sensor_cal_accel_six_position_clear(sensor_cal_accel_six_position_t *accel_data)
{
 80026a8:	b580      	push	{r7, lr}
 80026aa:	b082      	sub	sp, #8
 80026ac:	af00      	add	r7, sp, #0
 80026ae:	6078      	str	r0, [r7, #4]
  if (accel_data == NULL)
 80026b0:	687b      	ldr	r3, [r7, #4]
 80026b2:	2b00      	cmp	r3, #0
 80026b4:	d005      	beq.n	80026c2 <sensor_cal_accel_six_position_clear+0x1a>
  {
    return;
  }

  memset(accel_data, 0, sizeof(*accel_data));
 80026b6:	2250      	movs	r2, #80	; 0x50
 80026b8:	2100      	movs	r1, #0
 80026ba:	6878      	ldr	r0, [r7, #4]
 80026bc:	f00a fd6c 	bl	800d198 <memset>
 80026c0:	e000      	b.n	80026c4 <sensor_cal_accel_six_position_clear+0x1c>
    return;
 80026c2:	bf00      	nop
}
 80026c4:	3708      	adds	r7, #8
 80026c6:	46bd      	mov	sp, r7
 80026c8:	bd80      	pop	{r7, pc}
	...

080026cc <sensor_cal_lis3mdl_mag_minmax_start>:

void sensor_cal_lis3mdl_mag_minmax_start(sensor_cal_mag_minmax_t *state)
{
 80026cc:	b480      	push	{r7}
 80026ce:	b083      	sub	sp, #12
 80026d0:	af00      	add	r7, sp, #0
 80026d2:	6078      	str	r0, [r7, #4]
  if (state == NULL)
 80026d4:	687b      	ldr	r3, [r7, #4]
 80026d6:	2b00      	cmp	r3, #0
 80026d8:	d018      	beq.n	800270c <sensor_cal_lis3mdl_mag_minmax_start+0x40>
  {
    return;
  }

  state->min_gauss.x = FLT_MAX;
 80026da:	687b      	ldr	r3, [r7, #4]
 80026dc:	4a0e      	ldr	r2, [pc, #56]	; (8002718 <sensor_cal_lis3mdl_mag_minmax_start+0x4c>)
 80026de:	601a      	str	r2, [r3, #0]
  state->min_gauss.y = FLT_MAX;
 80026e0:	687b      	ldr	r3, [r7, #4]
 80026e2:	4a0d      	ldr	r2, [pc, #52]	; (8002718 <sensor_cal_lis3mdl_mag_minmax_start+0x4c>)
 80026e4:	605a      	str	r2, [r3, #4]
  state->min_gauss.z = FLT_MAX;
 80026e6:	687b      	ldr	r3, [r7, #4]
 80026e8:	4a0b      	ldr	r2, [pc, #44]	; (8002718 <sensor_cal_lis3mdl_mag_minmax_start+0x4c>)
 80026ea:	609a      	str	r2, [r3, #8]
  state->max_gauss.x = -FLT_MAX;
 80026ec:	687b      	ldr	r3, [r7, #4]
 80026ee:	f46f 0200 	mvn.w	r2, #8388608	; 0x800000
 80026f2:	60da      	str	r2, [r3, #12]
  state->max_gauss.y = -FLT_MAX;
 80026f4:	687b      	ldr	r3, [r7, #4]
 80026f6:	f46f 0200 	mvn.w	r2, #8388608	; 0x800000
 80026fa:	611a      	str	r2, [r3, #16]
  state->max_gauss.z = -FLT_MAX;
 80026fc:	687b      	ldr	r3, [r7, #4]
 80026fe:	f46f 0200 	mvn.w	r2, #8388608	; 0x800000
 8002702:	615a      	str	r2, [r3, #20]
  state->sample_count = 0U;
 8002704:	687b      	ldr	r3, [r7, #4]
 8002706:	2200      	movs	r2, #0
 8002708:	619a      	str	r2, [r3, #24]
 800270a:	e000      	b.n	800270e <sensor_cal_lis3mdl_mag_minmax_start+0x42>
    return;
 800270c:	bf00      	nop
}
 800270e:	370c      	adds	r7, #12
 8002710:	46bd      	mov	sp, r7
 8002712:	f85d 7b04 	ldr.w	r7, [sp], #4
 8002716:	4770      	bx	lr
 8002718:	7f7fffff 	.word	0x7f7fffff

0800271c <sensor_cal_lis3mdl_mag_minmax_update>:

sensor_cal_status_t sensor_cal_lis3mdl_mag_minmax_update(lis3mdl_t *mag,
                                                         sensor_cal_mag_minmax_t *state)
{
 800271c:	b580      	push	{r7, lr}
 800271e:	b086      	sub	sp, #24
 8002720:	af00      	add	r7, sp, #0
 8002722:	6078      	str	r0, [r7, #4]
 8002724:	6039      	str	r1, [r7, #0]
  lis3mdl_vector_t sample;
  lis3mdl_status_t status;

  if ((mag == NULL) || (state == NULL))
 8002726:	687b      	ldr	r3, [r7, #4]
 8002728:	2b00      	cmp	r3, #0
 800272a:	d002      	beq.n	8002732 <sensor_cal_lis3mdl_mag_minmax_update+0x16>
 800272c:	683b      	ldr	r3, [r7, #0]
 800272e:	2b00      	cmp	r3, #0
 8002730:	d101      	bne.n	8002736 <sensor_cal_lis3mdl_mag_minmax_update+0x1a>
  {
    return SENSOR_CAL_ERROR_INVALID_ARG;
 8002732:	2302      	movs	r3, #2
 8002734:	e060      	b.n	80027f8 <sensor_cal_lis3mdl_mag_minmax_update+0xdc>
  }

  status = lis3mdl_read_gauss(mag, &sample);
 8002736:	f107 0308 	add.w	r3, r7, #8
 800273a:	4619      	mov	r1, r3
 800273c:	6878      	ldr	r0, [r7, #4]
 800273e:	f7fe ffe7 	bl	8001710 <lis3mdl_read_gauss>
 8002742:	4603      	mov	r3, r0
 8002744:	75fb      	strb	r3, [r7, #23]
  if (status != LIS3MDL_OK)
 8002746:	7dfb      	ldrb	r3, [r7, #23]
 8002748:	2b00      	cmp	r3, #0
 800274a:	d001      	beq.n	8002750 <sensor_cal_lis3mdl_mag_minmax_update+0x34>
  {
    return SENSOR_CAL_ERROR_SENSOR;
 800274c:	2303      	movs	r3, #3
 800274e:	e053      	b.n	80027f8 <sensor_cal_lis3mdl_mag_minmax_update+0xdc>
  }

  if (sample.x < state->min_gauss.x) { state->min_gauss.x = sample.x; }
 8002750:	ed97 7a02 	vldr	s14, [r7, #8]
 8002754:	683b      	ldr	r3, [r7, #0]
 8002756:	edd3 7a00 	vldr	s15, [r3]
 800275a:	eeb4 7ae7 	vcmpe.f32	s14, s15
 800275e:	eef1 fa10 	vmrs	APSR_nzcv, fpscr
 8002762:	d502      	bpl.n	800276a <sensor_cal_lis3mdl_mag_minmax_update+0x4e>
 8002764:	68ba      	ldr	r2, [r7, #8]
 8002766:	683b      	ldr	r3, [r7, #0]
 8002768:	601a      	str	r2, [r3, #0]
  if (sample.y < state->min_gauss.y) { state->min_gauss.y = sample.y; }
 800276a:	ed97 7a03 	vldr	s14, [r7, #12]
 800276e:	683b      	ldr	r3, [r7, #0]
 8002770:	edd3 7a01 	vldr	s15, [r3, #4]
 8002774:	eeb4 7ae7 	vcmpe.f32	s14, s15
 8002778:	eef1 fa10 	vmrs	APSR_nzcv, fpscr
 800277c:	d502      	bpl.n	8002784 <sensor_cal_lis3mdl_mag_minmax_update+0x68>
 800277e:	68fa      	ldr	r2, [r7, #12]
 8002780:	683b      	ldr	r3, [r7, #0]
 8002782:	605a      	str	r2, [r3, #4]
  if (sample.z < state->min_gauss.z) { state->min_gauss.z = sample.z; }
 8002784:	ed97 7a04 	vldr	s14, [r7, #16]
 8002788:	683b      	ldr	r3, [r7, #0]
 800278a:	edd3 7a02 	vldr	s15, [r3, #8]
 800278e:	eeb4 7ae7 	vcmpe.f32	s14, s15
 8002792:	eef1 fa10 	vmrs	APSR_nzcv, fpscr
 8002796:	d502      	bpl.n	800279e <sensor_cal_lis3mdl_mag_minmax_update+0x82>
 8002798:	693a      	ldr	r2, [r7, #16]
 800279a:	683b      	ldr	r3, [r7, #0]
 800279c:	609a      	str	r2, [r3, #8]
  if (sample.x > state->max_gauss.x) { state->max_gauss.x = sample.x; }
 800279e:	ed97 7a02 	vldr	s14, [r7, #8]
 80027a2:	683b      	ldr	r3, [r7, #0]
 80027a4:	edd3 7a03 	vldr	s15, [r3, #12]
 80027a8:	eeb4 7ae7 	vcmpe.f32	s14, s15
 80027ac:	eef1 fa10 	vmrs	APSR_nzcv, fpscr
 80027b0:	dd02      	ble.n	80027b8 <sensor_cal_lis3mdl_mag_minmax_update+0x9c>
 80027b2:	68ba      	ldr	r2, [r7, #8]
 80027b4:	683b      	ldr	r3, [r7, #0]
 80027b6:	60da      	str	r2, [r3, #12]
  if (sample.y > state->max_gauss.y) { state->max_gauss.y = sample.y; }
 80027b8:	ed97 7a03 	vldr	s14, [r7, #12]
 80027bc:	683b      	ldr	r3, [r7, #0]
 80027be:	edd3 7a04 	vldr	s15, [r3, #16]
 80027c2:	eeb4 7ae7 	vcmpe.f32	s14, s15
 80027c6:	eef1 fa10 	vmrs	APSR_nzcv, fpscr
 80027ca:	dd02      	ble.n	80027d2 <sensor_cal_lis3mdl_mag_minmax_update+0xb6>
 80027cc:	68fa      	ldr	r2, [r7, #12]
 80027ce:	683b      	ldr	r3, [r7, #0]
 80027d0:	611a      	str	r2, [r3, #16]
  if (sample.z > state->max_gauss.z) { state->max_gauss.z = sample.z; }
 80027d2:	ed97 7a04 	vldr	s14, [r7, #16]
 80027d6:	683b      	ldr	r3, [r7, #0]
 80027d8:	edd3 7a05 	vldr	s15, [r3, #20]
 80027dc:	eeb4 7ae7 	vcmpe.f32	s14, s15
 80027e0:	eef1 fa10 	vmrs	APSR_nzcv, fpscr
 80027e4:	dd02      	ble.n	80027ec <sensor_cal_lis3mdl_mag_minmax_update+0xd0>
 80027e6:	693a      	ldr	r2, [r7, #16]
 80027e8:	683b      	ldr	r3, [r7, #0]
 80027ea:	615a      	str	r2, [r3, #20]
  state->sample_count++;
 80027ec:	683b      	ldr	r3, [r7, #0]
 80027ee:	699b      	ldr	r3, [r3, #24]
 80027f0:	1c5a      	adds	r2, r3, #1
 80027f2:	683b      	ldr	r3, [r7, #0]
 80027f4:	619a      	str	r2, [r3, #24]

  return SENSOR_CAL_OK;
 80027f6:	2300      	movs	r3, #0
}
 80027f8:	4618      	mov	r0, r3
 80027fa:	3718      	adds	r7, #24
 80027fc:	46bd      	mov	sp, r7
 80027fe:	bd80      	pop	{r7, pc}

08002800 <sensor_cal_lis3mdl_mag_minmax_finish>:

sensor_cal_status_t sensor_cal_lis3mdl_mag_minmax_finish(const sensor_cal_mag_minmax_t *state,
                                                         cal_lis3mdl_t *calibration)
{
 8002800:	b580      	push	{r7, lr}
 8002802:	b086      	sub	sp, #24
 8002804:	af00      	add	r7, sp, #0
 8002806:	6078      	str	r0, [r7, #4]
 8002808:	6039      	str	r1, [r7, #0]
  float radius_x;
  float radius_y;
  float radius_z;
  float average_radius;

  if ((state == NULL) || (calibration == NULL))
 800280a:	687b      	ldr	r3, [r7, #4]
 800280c:	2b00      	cmp	r3, #0
 800280e:	d002      	beq.n	8002816 <sensor_cal_lis3mdl_mag_minmax_finish+0x16>
 8002810:	683b      	ldr	r3, [r7, #0]
 8002812:	2b00      	cmp	r3, #0
 8002814:	d101      	bne.n	800281a <sensor_cal_lis3mdl_mag_minmax_finish+0x1a>
  {
    return SENSOR_CAL_ERROR_INVALID_ARG;
 8002816:	2302      	movs	r3, #2
 8002818:	e0a6      	b.n	8002968 <sensor_cal_lis3mdl_mag_minmax_finish+0x168>
  }

  if (state->sample_count < 50U)
 800281a:	687b      	ldr	r3, [r7, #4]
 800281c:	699b      	ldr	r3, [r3, #24]
 800281e:	2b31      	cmp	r3, #49	; 0x31
 8002820:	d801      	bhi.n	8002826 <sensor_cal_lis3mdl_mag_minmax_finish+0x26>
  {
    return SENSOR_CAL_ERROR_NOT_ENOUGH_SAMPLES;
 8002822:	2304      	movs	r3, #4
 8002824:	e0a0      	b.n	8002968 <sensor_cal_lis3mdl_mag_minmax_finish+0x168>
  }

  radius_x = (state->max_gauss.x - state->min_gauss.x) * 0.5f;
 8002826:	687b      	ldr	r3, [r7, #4]
 8002828:	ed93 7a03 	vldr	s14, [r3, #12]
 800282c:	687b      	ldr	r3, [r7, #4]
 800282e:	edd3 7a00 	vldr	s15, [r3]
 8002832:	ee77 7a67 	vsub.f32	s15, s14, s15
 8002836:	eeb6 7a00 	vmov.f32	s14, #96	; 0x3f000000  0.5
 800283a:	ee67 7a87 	vmul.f32	s15, s15, s14
 800283e:	edc7 7a05 	vstr	s15, [r7, #20]
  radius_y = (state->max_gauss.y - state->min_gauss.y) * 0.5f;
 8002842:	687b      	ldr	r3, [r7, #4]
 8002844:	ed93 7a04 	vldr	s14, [r3, #16]
 8002848:	687b      	ldr	r3, [r7, #4]
 800284a:	edd3 7a01 	vldr	s15, [r3, #4]
 800284e:	ee77 7a67 	vsub.f32	s15, s14, s15
 8002852:	eeb6 7a00 	vmov.f32	s14, #96	; 0x3f000000  0.5
 8002856:	ee67 7a87 	vmul.f32	s15, s15, s14
 800285a:	edc7 7a04 	vstr	s15, [r7, #16]
  radius_z = (state->max_gauss.z - state->min_gauss.z) * 0.5f;
 800285e:	687b      	ldr	r3, [r7, #4]
 8002860:	ed93 7a05 	vldr	s14, [r3, #20]
 8002864:	687b      	ldr	r3, [r7, #4]
 8002866:	edd3 7a02 	vldr	s15, [r3, #8]
 800286a:	ee77 7a67 	vsub.f32	s15, s14, s15
 800286e:	eeb6 7a00 	vmov.f32	s14, #96	; 0x3f000000  0.5
 8002872:	ee67 7a87 	vmul.f32	s15, s15, s14
 8002876:	edc7 7a03 	vstr	s15, [r7, #12]

  if ((radius_x <= 0.0f) || (radius_y <= 0.0f) || (radius_z <= 0.0f))
 800287a:	edd7 7a05 	vldr	s15, [r7, #20]
 800287e:	eef5 7ac0 	vcmpe.f32	s15, #0.0
 8002882:	eef1 fa10 	vmrs	APSR_nzcv, fpscr
 8002886:	d90d      	bls.n	80028a4 <sensor_cal_lis3mdl_mag_minmax_finish+0xa4>
 8002888:	edd7 7a04 	vldr	s15, [r7, #16]
 800288c:	eef5 7ac0 	vcmpe.f32	s15, #0.0
 8002890:	eef1 fa10 	vmrs	APSR_nzcv, fpscr
 8002894:	d906      	bls.n	80028a4 <sensor_cal_lis3mdl_mag_minmax_finish+0xa4>
 8002896:	edd7 7a03 	vldr	s15, [r7, #12]
 800289a:	eef5 7ac0 	vcmpe.f32	s15, #0.0
 800289e:	eef1 fa10 	vmrs	APSR_nzcv, fpscr
 80028a2:	d801      	bhi.n	80028a8 <sensor_cal_lis3mdl_mag_minmax_finish+0xa8>
  {
    return SENSOR_CAL_ERROR_BAD_DATA;
 80028a4:	2305      	movs	r3, #5
 80028a6:	e05f      	b.n	8002968 <sensor_cal_lis3mdl_mag_minmax_finish+0x168>
  }

  average_radius = (radius_x + radius_y + radius_z) / 3.0f;
 80028a8:	ed97 7a05 	vldr	s14, [r7, #20]
 80028ac:	edd7 7a04 	vldr	s15, [r7, #16]
 80028b0:	ee37 7a27 	vadd.f32	s14, s14, s15
 80028b4:	edd7 7a03 	vldr	s15, [r7, #12]
 80028b8:	ee37 7a27 	vadd.f32	s14, s14, s15
 80028bc:	eef0 6a08 	vmov.f32	s13, #8	; 0x40400000  3.0
 80028c0:	eec7 7a26 	vdiv.f32	s15, s14, s13
 80028c4:	edc7 7a02 	vstr	s15, [r7, #8]

  calibration->hard_iron_gauss[0] = (state->max_gauss.x + state->min_gauss.x) * 0.5f;
 80028c8:	687b      	ldr	r3, [r7, #4]
 80028ca:	ed93 7a03 	vldr	s14, [r3, #12]
 80028ce:	687b      	ldr	r3, [r7, #4]
 80028d0:	edd3 7a00 	vldr	s15, [r3]
 80028d4:	ee77 7a27 	vadd.f32	s15, s14, s15
 80028d8:	eeb6 7a00 	vmov.f32	s14, #96	; 0x3f000000  0.5
 80028dc:	ee67 7a87 	vmul.f32	s15, s15, s14
 80028e0:	683b      	ldr	r3, [r7, #0]
 80028e2:	edc3 7a00 	vstr	s15, [r3]
  calibration->hard_iron_gauss[1] = (state->max_gauss.y + state->min_gauss.y) * 0.5f;
 80028e6:	687b      	ldr	r3, [r7, #4]
 80028e8:	ed93 7a04 	vldr	s14, [r3, #16]
 80028ec:	687b      	ldr	r3, [r7, #4]
 80028ee:	edd3 7a01 	vldr	s15, [r3, #4]
 80028f2:	ee77 7a27 	vadd.f32	s15, s14, s15
 80028f6:	eeb6 7a00 	vmov.f32	s14, #96	; 0x3f000000  0.5
 80028fa:	ee67 7a87 	vmul.f32	s15, s15, s14
 80028fe:	683b      	ldr	r3, [r7, #0]
 8002900:	edc3 7a01 	vstr	s15, [r3, #4]
  calibration->hard_iron_gauss[2] = (state->max_gauss.z + state->min_gauss.z) * 0.5f;
 8002904:	687b      	ldr	r3, [r7, #4]
 8002906:	ed93 7a05 	vldr	s14, [r3, #20]
 800290a:	687b      	ldr	r3, [r7, #4]
 800290c:	edd3 7a02 	vldr	s15, [r3, #8]
 8002910:	ee77 7a27 	vadd.f32	s15, s14, s15
 8002914:	eeb6 7a00 	vmov.f32	s14, #96	; 0x3f000000  0.5
 8002918:	ee67 7a87 	vmul.f32	s15, s15, s14
 800291c:	683b      	ldr	r3, [r7, #0]
 800291e:	edc3 7a02 	vstr	s15, [r3, #8]

  memset(calibration->soft_iron_matrix, 0, sizeof(calibration->soft_iron_matrix));
 8002922:	683b      	ldr	r3, [r7, #0]
 8002924:	330c      	adds	r3, #12
 8002926:	2224      	movs	r2, #36	; 0x24
 8002928:	2100      	movs	r1, #0
 800292a:	4618      	mov	r0, r3
 800292c:	f00a fc34 	bl	800d198 <memset>
  calibration->soft_iron_matrix[0][0] = average_radius / radius_x;
 8002930:	edd7 6a02 	vldr	s13, [r7, #8]
 8002934:	ed97 7a05 	vldr	s14, [r7, #20]
 8002938:	eec6 7a87 	vdiv.f32	s15, s13, s14
 800293c:	683b      	ldr	r3, [r7, #0]
 800293e:	edc3 7a03 	vstr	s15, [r3, #12]
  calibration->soft_iron_matrix[1][1] = average_radius / radius_y;
 8002942:	edd7 6a02 	vldr	s13, [r7, #8]
 8002946:	ed97 7a04 	vldr	s14, [r7, #16]
 800294a:	eec6 7a87 	vdiv.f32	s15, s13, s14
 800294e:	683b      	ldr	r3, [r7, #0]
 8002950:	edc3 7a07 	vstr	s15, [r3, #28]
  calibration->soft_iron_matrix[2][2] = average_radius / radius_z;
 8002954:	edd7 6a02 	vldr	s13, [r7, #8]
 8002958:	ed97 7a03 	vldr	s14, [r7, #12]
 800295c:	eec6 7a87 	vdiv.f32	s15, s13, s14
 8002960:	683b      	ldr	r3, [r7, #0]
 8002962:	edc3 7a0b 	vstr	s15, [r3, #44]	; 0x2c

  return SENSOR_CAL_OK;
 8002966:	2300      	movs	r3, #0
}
 8002968:	4618      	mov	r0, r3
 800296a:	3718      	adds	r7, #24
 800296c:	46bd      	mov	sp, r7
 800296e:	bd80      	pop	{r7, pc}

08002970 <sensor_cal_dps310_reference_current>:
                                                        const dps310_calibration_t *dps_calibration,
                                                        dps310_oversampling_t pressure_oversampling,
                                                        dps310_oversampling_t temperature_oversampling,
                                                        float reference_altitude_m,
                                                        cal_dps310_t *calibration)
{
 8002970:	b580      	push	{r7, lr}
 8002972:	b08c      	sub	sp, #48	; 0x30
 8002974:	af02      	add	r7, sp, #8
 8002976:	60f8      	str	r0, [r7, #12]
 8002978:	60b9      	str	r1, [r7, #8]
 800297a:	4611      	mov	r1, r2
 800297c:	461a      	mov	r2, r3
 800297e:	ed87 0a00 	vstr	s0, [r7]
 8002982:	460b      	mov	r3, r1
 8002984:	71fb      	strb	r3, [r7, #7]
 8002986:	4613      	mov	r3, r2
 8002988:	71bb      	strb	r3, [r7, #6]
  dps310_sample_t sample;
  dps310_status_t status;

  if ((prs == NULL) || (dps_calibration == NULL) || (calibration == NULL))
 800298a:	68fb      	ldr	r3, [r7, #12]
 800298c:	2b00      	cmp	r3, #0
 800298e:	d005      	beq.n	800299c <sensor_cal_dps310_reference_current+0x2c>
 8002990:	68bb      	ldr	r3, [r7, #8]
 8002992:	2b00      	cmp	r3, #0
 8002994:	d002      	beq.n	800299c <sensor_cal_dps310_reference_current+0x2c>
 8002996:	6b3b      	ldr	r3, [r7, #48]	; 0x30
 8002998:	2b00      	cmp	r3, #0
 800299a:	d101      	bne.n	80029a0 <sensor_cal_dps310_reference_current+0x30>
  {
    return SENSOR_CAL_ERROR_INVALID_ARG;
 800299c:	2302      	movs	r3, #2
 800299e:	e019      	b.n	80029d4 <sensor_cal_dps310_reference_current+0x64>
  }

  status = dps310_read_compensated(prs,
 80029a0:	79b9      	ldrb	r1, [r7, #6]
 80029a2:	79fa      	ldrb	r2, [r7, #7]
 80029a4:	f107 0314 	add.w	r3, r7, #20
 80029a8:	9300      	str	r3, [sp, #0]
 80029aa:	460b      	mov	r3, r1
 80029ac:	68b9      	ldr	r1, [r7, #8]
 80029ae:	68f8      	ldr	r0, [r7, #12]
 80029b0:	f7fe fb84 	bl	80010bc <dps310_read_compensated>
 80029b4:	4603      	mov	r3, r0
 80029b6:	f887 3027 	strb.w	r3, [r7, #39]	; 0x27
                                   dps_calibration,
                                   pressure_oversampling,
                                   temperature_oversampling,
                                   &sample);
  if (status != DPS310_OK)
 80029ba:	f897 3027 	ldrb.w	r3, [r7, #39]	; 0x27
 80029be:	2b00      	cmp	r3, #0
 80029c0:	d001      	beq.n	80029c6 <sensor_cal_dps310_reference_current+0x56>
  {
    return SENSOR_CAL_ERROR_SENSOR;
 80029c2:	2303      	movs	r3, #3
 80029c4:	e006      	b.n	80029d4 <sensor_cal_dps310_reference_current+0x64>
  }

  calibration->reference_pressure_pa = sample.pressure_pa;
 80029c6:	69fa      	ldr	r2, [r7, #28]
 80029c8:	6b3b      	ldr	r3, [r7, #48]	; 0x30
 80029ca:	601a      	str	r2, [r3, #0]
  calibration->reference_altitude_m = reference_altitude_m;
 80029cc:	6b3b      	ldr	r3, [r7, #48]	; 0x30
 80029ce:	683a      	ldr	r2, [r7, #0]
 80029d0:	605a      	str	r2, [r3, #4]

  return SENSOR_CAL_OK;
 80029d2:	2300      	movs	r3, #0
}
 80029d4:	4618      	mov	r0, r3
 80029d6:	3728      	adds	r7, #40	; 0x28
 80029d8:	46bd      	mov	sp, r7
 80029da:	bd80      	pop	{r7, pc}

080029dc <sensor_cal_mpu6500_collect_mean>:
static sensor_cal_status_t sensor_cal_mpu6500_collect_mean(mpu6500_t *imu,
                                                           uint32_t sample_count,
                                                           uint32_t sample_delay_ms,
                                                           sensor_cal_vector_t *accel_mean,
                                                           sensor_cal_vector_t *gyro_mean)
{
 80029dc:	b580      	push	{r7, lr}
 80029de:	b090      	sub	sp, #64	; 0x40
 80029e0:	af00      	add	r7, sp, #0
 80029e2:	60f8      	str	r0, [r7, #12]
 80029e4:	60b9      	str	r1, [r7, #8]
 80029e6:	607a      	str	r2, [r7, #4]
 80029e8:	603b      	str	r3, [r7, #0]
  uint32_t i;
  float accel_sum_x = 0.0f;
 80029ea:	f04f 0300 	mov.w	r3, #0
 80029ee:	63bb      	str	r3, [r7, #56]	; 0x38
  float accel_sum_y = 0.0f;
 80029f0:	f04f 0300 	mov.w	r3, #0
 80029f4:	637b      	str	r3, [r7, #52]	; 0x34
  float accel_sum_z = 0.0f;
 80029f6:	f04f 0300 	mov.w	r3, #0
 80029fa:	633b      	str	r3, [r7, #48]	; 0x30
  float gyro_sum_x = 0.0f;
 80029fc:	f04f 0300 	mov.w	r3, #0
 8002a00:	62fb      	str	r3, [r7, #44]	; 0x2c
  float gyro_sum_y = 0.0f;
 8002a02:	f04f 0300 	mov.w	r3, #0
 8002a06:	62bb      	str	r3, [r7, #40]	; 0x28
  float gyro_sum_z = 0.0f;
 8002a08:	f04f 0300 	mov.w	r3, #0
 8002a0c:	627b      	str	r3, [r7, #36]	; 0x24

  if ((imu == NULL) || (sample_count == 0U))
 8002a0e:	68fb      	ldr	r3, [r7, #12]
 8002a10:	2b00      	cmp	r3, #0
 8002a12:	d002      	beq.n	8002a1a <sensor_cal_mpu6500_collect_mean+0x3e>
 8002a14:	68bb      	ldr	r3, [r7, #8]
 8002a16:	2b00      	cmp	r3, #0
 8002a18:	d101      	bne.n	8002a1e <sensor_cal_mpu6500_collect_mean+0x42>
  {
    return SENSOR_CAL_ERROR_INVALID_ARG;
 8002a1a:	2302      	movs	r3, #2
 8002a1c:	e0b1      	b.n	8002b82 <sensor_cal_mpu6500_collect_mean+0x1a6>
  }

  for (i = 0U; i < sample_count; i++)
 8002a1e:	2300      	movs	r3, #0
 8002a20:	63fb      	str	r3, [r7, #60]	; 0x3c
 8002a22:	e05b      	b.n	8002adc <sensor_cal_mpu6500_collect_mean+0x100>
  {
    mpu6500_raw_sample_t sample;
    if (mpu6500_read_raw(imu, &sample) != MPU6500_OK)
 8002a24:	f107 0314 	add.w	r3, r7, #20
 8002a28:	4619      	mov	r1, r3
 8002a2a:	68f8      	ldr	r0, [r7, #12]
 8002a2c:	f7ff fac8 	bl	8001fc0 <mpu6500_read_raw>
 8002a30:	4603      	mov	r3, r0
 8002a32:	2b00      	cmp	r3, #0
 8002a34:	d001      	beq.n	8002a3a <sensor_cal_mpu6500_collect_mean+0x5e>
    {
      return SENSOR_CAL_ERROR_SENSOR;
 8002a36:	2303      	movs	r3, #3
 8002a38:	e0a3      	b.n	8002b82 <sensor_cal_mpu6500_collect_mean+0x1a6>
    }

    accel_sum_x += (float)sample.accel.x;
 8002a3a:	f9b7 3014 	ldrsh.w	r3, [r7, #20]
 8002a3e:	ee07 3a90 	vmov	s15, r3
 8002a42:	eef8 7ae7 	vcvt.f32.s32	s15, s15
 8002a46:	ed97 7a0e 	vldr	s14, [r7, #56]	; 0x38
 8002a4a:	ee77 7a27 	vadd.f32	s15, s14, s15
 8002a4e:	edc7 7a0e 	vstr	s15, [r7, #56]	; 0x38
    accel_sum_y += (float)sample.accel.y;
 8002a52:	f9b7 3016 	ldrsh.w	r3, [r7, #22]
 8002a56:	ee07 3a90 	vmov	s15, r3
 8002a5a:	eef8 7ae7 	vcvt.f32.s32	s15, s15
 8002a5e:	ed97 7a0d 	vldr	s14, [r7, #52]	; 0x34
 8002a62:	ee77 7a27 	vadd.f32	s15, s14, s15
 8002a66:	edc7 7a0d 	vstr	s15, [r7, #52]	; 0x34
    accel_sum_z += (float)sample.accel.z;
 8002a6a:	f9b7 3018 	ldrsh.w	r3, [r7, #24]
 8002a6e:	ee07 3a90 	vmov	s15, r3
 8002a72:	eef8 7ae7 	vcvt.f32.s32	s15, s15
 8002a76:	ed97 7a0c 	vldr	s14, [r7, #48]	; 0x30
 8002a7a:	ee77 7a27 	vadd.f32	s15, s14, s15
 8002a7e:	edc7 7a0c 	vstr	s15, [r7, #48]	; 0x30
    gyro_sum_x += (float)sample.gyro.x;
 8002a82:	f9b7 301a 	ldrsh.w	r3, [r7, #26]
 8002a86:	ee07 3a90 	vmov	s15, r3
 8002a8a:	eef8 7ae7 	vcvt.f32.s32	s15, s15
 8002a8e:	ed97 7a0b 	vldr	s14, [r7, #44]	; 0x2c
 8002a92:	ee77 7a27 	vadd.f32	s15, s14, s15
 8002a96:	edc7 7a0b 	vstr	s15, [r7, #44]	; 0x2c
    gyro_sum_y += (float)sample.gyro.y;
 8002a9a:	f9b7 301c 	ldrsh.w	r3, [r7, #28]
 8002a9e:	ee07 3a90 	vmov	s15, r3
 8002aa2:	eef8 7ae7 	vcvt.f32.s32	s15, s15
 8002aa6:	ed97 7a0a 	vldr	s14, [r7, #40]	; 0x28
 8002aaa:	ee77 7a27 	vadd.f32	s15, s14, s15
 8002aae:	edc7 7a0a 	vstr	s15, [r7, #40]	; 0x28
    gyro_sum_z += (float)sample.gyro.z;
 8002ab2:	f9b7 301e 	ldrsh.w	r3, [r7, #30]
 8002ab6:	ee07 3a90 	vmov	s15, r3
 8002aba:	eef8 7ae7 	vcvt.f32.s32	s15, s15
 8002abe:	ed97 7a09 	vldr	s14, [r7, #36]	; 0x24
 8002ac2:	ee77 7a27 	vadd.f32	s15, s14, s15
 8002ac6:	edc7 7a09 	vstr	s15, [r7, #36]	; 0x24

    if (sample_delay_ms > 0U)
 8002aca:	687b      	ldr	r3, [r7, #4]
 8002acc:	2b00      	cmp	r3, #0
 8002ace:	d002      	beq.n	8002ad6 <sensor_cal_mpu6500_collect_mean+0xfa>
    {
      HAL_Delay(sample_delay_ms);
 8002ad0:	6878      	ldr	r0, [r7, #4]
 8002ad2:	f000 fa95 	bl	8003000 <HAL_Delay>
  for (i = 0U; i < sample_count; i++)
 8002ad6:	6bfb      	ldr	r3, [r7, #60]	; 0x3c
 8002ad8:	3301      	adds	r3, #1
 8002ada:	63fb      	str	r3, [r7, #60]	; 0x3c
 8002adc:	6bfa      	ldr	r2, [r7, #60]	; 0x3c
 8002ade:	68bb      	ldr	r3, [r7, #8]
 8002ae0:	429a      	cmp	r2, r3
 8002ae2:	d39f      	bcc.n	8002a24 <sensor_cal_mpu6500_collect_mean+0x48>
    }
  }

  if (accel_mean != NULL)
 8002ae4:	683b      	ldr	r3, [r7, #0]
 8002ae6:	2b00      	cmp	r3, #0
 8002ae8:	d023      	beq.n	8002b32 <sensor_cal_mpu6500_collect_mean+0x156>
  {
    accel_mean->x = accel_sum_x / (float)sample_count;
 8002aea:	68bb      	ldr	r3, [r7, #8]
 8002aec:	ee07 3a90 	vmov	s15, r3
 8002af0:	eeb8 7a67 	vcvt.f32.u32	s14, s15
 8002af4:	edd7 6a0e 	vldr	s13, [r7, #56]	; 0x38
 8002af8:	eec6 7a87 	vdiv.f32	s15, s13, s14
 8002afc:	683b      	ldr	r3, [r7, #0]
 8002afe:	edc3 7a00 	vstr	s15, [r3]
    accel_mean->y = accel_sum_y / (float)sample_count;
 8002b02:	68bb      	ldr	r3, [r7, #8]
 8002b04:	ee07 3a90 	vmov	s15, r3
 8002b08:	eeb8 7a67 	vcvt.f32.u32	s14, s15
 8002b0c:	edd7 6a0d 	vldr	s13, [r7, #52]	; 0x34
 8002b10:	eec6 7a87 	vdiv.f32	s15, s13, s14
 8002b14:	683b      	ldr	r3, [r7, #0]
 8002b16:	edc3 7a01 	vstr	s15, [r3, #4]
    accel_mean->z = accel_sum_z / (float)sample_count;
 8002b1a:	68bb      	ldr	r3, [r7, #8]
 8002b1c:	ee07 3a90 	vmov	s15, r3
 8002b20:	eeb8 7a67 	vcvt.f32.u32	s14, s15
 8002b24:	edd7 6a0c 	vldr	s13, [r7, #48]	; 0x30
 8002b28:	eec6 7a87 	vdiv.f32	s15, s13, s14
 8002b2c:	683b      	ldr	r3, [r7, #0]
 8002b2e:	edc3 7a02 	vstr	s15, [r3, #8]
  }

  if (gyro_mean != NULL)
 8002b32:	6cbb      	ldr	r3, [r7, #72]	; 0x48
 8002b34:	2b00      	cmp	r3, #0
 8002b36:	d023      	beq.n	8002b80 <sensor_cal_mpu6500_collect_mean+0x1a4>
  {
    gyro_mean->x = gyro_sum_x / (float)sample_count;
 8002b38:	68bb      	ldr	r3, [r7, #8]
 8002b3a:	ee07 3a90 	vmov	s15, r3
 8002b3e:	eeb8 7a67 	vcvt.f32.u32	s14, s15
 8002b42:	edd7 6a0b 	vldr	s13, [r7, #44]	; 0x2c
 8002b46:	eec6 7a87 	vdiv.f32	s15, s13, s14
 8002b4a:	6cbb      	ldr	r3, [r7, #72]	; 0x48
 8002b4c:	edc3 7a00 	vstr	s15, [r3]
    gyro_mean->y = gyro_sum_y / (float)sample_count;
 8002b50:	68bb      	ldr	r3, [r7, #8]
 8002b52:	ee07 3a90 	vmov	s15, r3
 8002b56:	eeb8 7a67 	vcvt.f32.u32	s14, s15
 8002b5a:	edd7 6a0a 	vldr	s13, [r7, #40]	; 0x28
 8002b5e:	eec6 7a87 	vdiv.f32	s15, s13, s14
 8002b62:	6cbb      	ldr	r3, [r7, #72]	; 0x48
 8002b64:	edc3 7a01 	vstr	s15, [r3, #4]
    gyro_mean->z = gyro_sum_z / (float)sample_count;
 8002b68:	68bb      	ldr	r3, [r7, #8]
 8002b6a:	ee07 3a90 	vmov	s15, r3
 8002b6e:	eeb8 7a67 	vcvt.f32.u32	s14, s15
 8002b72:	edd7 6a09 	vldr	s13, [r7, #36]	; 0x24
 8002b76:	eec6 7a87 	vdiv.f32	s15, s13, s14
 8002b7a:	6cbb      	ldr	r3, [r7, #72]	; 0x48
 8002b7c:	edc3 7a02 	vstr	s15, [r3, #8]
  }

  return SENSOR_CAL_OK;
 8002b80:	2300      	movs	r3, #0
}
 8002b82:	4618      	mov	r0, r3
 8002b84:	3740      	adds	r7, #64	; 0x40
 8002b86:	46bd      	mov	sp, r7
 8002b88:	bd80      	pop	{r7, pc}

08002b8a <sensor_cal_absf>:

static float sensor_cal_absf(float value)
{
 8002b8a:	b480      	push	{r7}
 8002b8c:	b083      	sub	sp, #12
 8002b8e:	af00      	add	r7, sp, #0
 8002b90:	ed87 0a01 	vstr	s0, [r7, #4]
  return (value < 0.0f) ? -value : value;
 8002b94:	edd7 7a01 	vldr	s15, [r7, #4]
 8002b98:	eef5 7ac0 	vcmpe.f32	s15, #0.0
 8002b9c:	eef1 fa10 	vmrs	APSR_nzcv, fpscr
 8002ba0:	d504      	bpl.n	8002bac <sensor_cal_absf+0x22>
 8002ba2:	edd7 7a01 	vldr	s15, [r7, #4]
 8002ba6:	eef1 7a67 	vneg.f32	s15, s15
 8002baa:	e001      	b.n	8002bb0 <sensor_cal_absf+0x26>
 8002bac:	edd7 7a01 	vldr	s15, [r7, #4]
}
 8002bb0:	eeb0 0a67 	vmov.f32	s0, s15
 8002bb4:	370c      	adds	r7, #12
 8002bb6:	46bd      	mov	sp, r7
 8002bb8:	f85d 7b04 	ldr.w	r7, [sp], #4
 8002bbc:	4770      	bx	lr
	...

08002bc0 <HAL_MspInit>:
/* USER CODE END 0 */
/**
  * Initializes the Global MSP.
  */
void HAL_MspInit(void)
{
 8002bc0:	b580      	push	{r7, lr}
 8002bc2:	b082      	sub	sp, #8
 8002bc4:	af00      	add	r7, sp, #0
  /* USER CODE BEGIN MspInit 0 */

  /* USER CODE END MspInit 0 */

  __HAL_RCC_SYSCFG_CLK_ENABLE();
 8002bc6:	4b0f      	ldr	r3, [pc, #60]	; (8002c04 <HAL_MspInit+0x44>)
 8002bc8:	6e1b      	ldr	r3, [r3, #96]	; 0x60
 8002bca:	4a0e      	ldr	r2, [pc, #56]	; (8002c04 <HAL_MspInit+0x44>)
 8002bcc:	f043 0301 	orr.w	r3, r3, #1
 8002bd0:	6613      	str	r3, [r2, #96]	; 0x60
 8002bd2:	4b0c      	ldr	r3, [pc, #48]	; (8002c04 <HAL_MspInit+0x44>)
 8002bd4:	6e1b      	ldr	r3, [r3, #96]	; 0x60
 8002bd6:	f003 0301 	and.w	r3, r3, #1
 8002bda:	607b      	str	r3, [r7, #4]
 8002bdc:	687b      	ldr	r3, [r7, #4]
  __HAL_RCC_PWR_CLK_ENABLE();
 8002bde:	4b09      	ldr	r3, [pc, #36]	; (8002c04 <HAL_MspInit+0x44>)
 8002be0:	6d9b      	ldr	r3, [r3, #88]	; 0x58
 8002be2:	4a08      	ldr	r2, [pc, #32]	; (8002c04 <HAL_MspInit+0x44>)
 8002be4:	f043 5380 	orr.w	r3, r3, #268435456	; 0x10000000
 8002be8:	6593      	str	r3, [r2, #88]	; 0x58
 8002bea:	4b06      	ldr	r3, [pc, #24]	; (8002c04 <HAL_MspInit+0x44>)
 8002bec:	6d9b      	ldr	r3, [r3, #88]	; 0x58
 8002bee:	f003 5380 	and.w	r3, r3, #268435456	; 0x10000000
 8002bf2:	603b      	str	r3, [r7, #0]
 8002bf4:	683b      	ldr	r3, [r7, #0]

  /* System interrupt init*/

  /** Disable the internal Pull-Up in Dead Battery pins of UCPD peripheral
  */
  HAL_PWREx_DisableUCPDDeadBattery();
 8002bf6:	f002 fde3 	bl	80057c0 <HAL_PWREx_DisableUCPDDeadBattery>

  /* USER CODE BEGIN MspInit 1 */

  /* USER CODE END MspInit 1 */
}
 8002bfa:	bf00      	nop
 8002bfc:	3708      	adds	r7, #8
 8002bfe:	46bd      	mov	sp, r7
 8002c00:	bd80      	pop	{r7, pc}
 8002c02:	bf00      	nop
 8002c04:	40021000 	.word	0x40021000

08002c08 <HAL_UART_MspInit>:
* This function configures the hardware resources used in this example
* @param huart: UART handle pointer
* @retval None
*/
void HAL_UART_MspInit(UART_HandleTypeDef* huart)
{
 8002c08:	b580      	push	{r7, lr}
 8002c0a:	b09e      	sub	sp, #120	; 0x78
 8002c0c:	af00      	add	r7, sp, #0
 8002c0e:	6078      	str	r0, [r7, #4]
  GPIO_InitTypeDef GPIO_InitStruct = {0};
 8002c10:	f107 0364 	add.w	r3, r7, #100	; 0x64
 8002c14:	2200      	movs	r2, #0
 8002c16:	601a      	str	r2, [r3, #0]
 8002c18:	605a      	str	r2, [r3, #4]
 8002c1a:	609a      	str	r2, [r3, #8]
 8002c1c:	60da      	str	r2, [r3, #12]
 8002c1e:	611a      	str	r2, [r3, #16]
  RCC_PeriphCLKInitTypeDef PeriphClkInit = {0};
 8002c20:	f107 0320 	add.w	r3, r7, #32
 8002c24:	2244      	movs	r2, #68	; 0x44
 8002c26:	2100      	movs	r1, #0
 8002c28:	4618      	mov	r0, r3
 8002c2a:	f00a fab5 	bl	800d198 <memset>
  if(huart->Instance==LPUART1)
 8002c2e:	687b      	ldr	r3, [r7, #4]
 8002c30:	681b      	ldr	r3, [r3, #0]
 8002c32:	4a54      	ldr	r2, [pc, #336]	; (8002d84 <HAL_UART_MspInit+0x17c>)
 8002c34:	4293      	cmp	r3, r2
 8002c36:	d13f      	bne.n	8002cb8 <HAL_UART_MspInit+0xb0>

  /* USER CODE END LPUART1_MspInit 0 */

  /** Initializes the peripherals clocks
  */
    PeriphClkInit.PeriphClockSelection = RCC_PERIPHCLK_LPUART1;
 8002c38:	2320      	movs	r3, #32
 8002c3a:	623b      	str	r3, [r7, #32]
    PeriphClkInit.Lpuart1ClockSelection = RCC_LPUART1CLKSOURCE_PCLK1;
 8002c3c:	2300      	movs	r3, #0
 8002c3e:	637b      	str	r3, [r7, #52]	; 0x34
    if (HAL_RCCEx_PeriphCLKConfig(&PeriphClkInit) != HAL_OK)
 8002c40:	f107 0320 	add.w	r3, r7, #32
 8002c44:	4618      	mov	r0, r3
 8002c46:	f003 faf9 	bl	800623c <HAL_RCCEx_PeriphCLKConfig>
 8002c4a:	4603      	mov	r3, r0
 8002c4c:	2b00      	cmp	r3, #0
 8002c4e:	d001      	beq.n	8002c54 <HAL_UART_MspInit+0x4c>
    {
      Error_Handler();
 8002c50:	f7ff f926 	bl	8001ea0 <Error_Handler>
    }

    /* Peripheral clock enable */
    __HAL_RCC_LPUART1_CLK_ENABLE();
 8002c54:	4b4c      	ldr	r3, [pc, #304]	; (8002d88 <HAL_UART_MspInit+0x180>)
 8002c56:	6ddb      	ldr	r3, [r3, #92]	; 0x5c
 8002c58:	4a4b      	ldr	r2, [pc, #300]	; (8002d88 <HAL_UART_MspInit+0x180>)
 8002c5a:	f043 0301 	orr.w	r3, r3, #1
 8002c5e:	65d3      	str	r3, [r2, #92]	; 0x5c
 8002c60:	4b49      	ldr	r3, [pc, #292]	; (8002d88 <HAL_UART_MspInit+0x180>)
 8002c62:	6ddb      	ldr	r3, [r3, #92]	; 0x5c
 8002c64:	f003 0301 	and.w	r3, r3, #1
 8002c68:	61fb      	str	r3, [r7, #28]
 8002c6a:	69fb      	ldr	r3, [r7, #28]

    __HAL_RCC_GPIOA_CLK_ENABLE();
 8002c6c:	4b46      	ldr	r3, [pc, #280]	; (8002d88 <HAL_UART_MspInit+0x180>)
 8002c6e:	6cdb      	ldr	r3, [r3, #76]	; 0x4c
 8002c70:	4a45      	ldr	r2, [pc, #276]	; (8002d88 <HAL_UART_MspInit+0x180>)
 8002c72:	f043 0301 	orr.w	r3, r3, #1
 8002c76:	64d3      	str	r3, [r2, #76]	; 0x4c
 8002c78:	4b43      	ldr	r3, [pc, #268]	; (8002d88 <HAL_UART_MspInit+0x180>)
 8002c7a:	6cdb      	ldr	r3, [r3, #76]	; 0x4c
 8002c7c:	f003 0301 	and.w	r3, r3, #1
 8002c80:	61bb      	str	r3, [r7, #24]
 8002c82:	69bb      	ldr	r3, [r7, #24]
    /**LPUART1 GPIO Configuration
    PA2     ------> LPUART1_TX
    PA3     ------> LPUART1_RX
    */
    GPIO_InitStruct.Pin = GPIO_PIN_2|GPIO_PIN_3;
 8002c84:	230c      	movs	r3, #12
 8002c86:	667b      	str	r3, [r7, #100]	; 0x64
    GPIO_InitStruct.Mode = GPIO_MODE_AF_PP;
 8002c88:	2302      	movs	r3, #2
 8002c8a:	66bb      	str	r3, [r7, #104]	; 0x68
    GPIO_InitStruct.Pull = GPIO_NOPULL;
 8002c8c:	2300      	movs	r3, #0
 8002c8e:	66fb      	str	r3, [r7, #108]	; 0x6c
    GPIO_InitStruct.Speed = GPIO_SPEED_FREQ_LOW;
 8002c90:	2300      	movs	r3, #0
 8002c92:	673b      	str	r3, [r7, #112]	; 0x70
    GPIO_InitStruct.Alternate = GPIO_AF12_LPUART1;
 8002c94:	230c      	movs	r3, #12
 8002c96:	677b      	str	r3, [r7, #116]	; 0x74
    HAL_GPIO_Init(GPIOA, &GPIO_InitStruct);
 8002c98:	f107 0364 	add.w	r3, r7, #100	; 0x64
 8002c9c:	4619      	mov	r1, r3
 8002c9e:	f04f 4090 	mov.w	r0, #1207959552	; 0x48000000
 8002ca2:	f000 fe1b 	bl	80038dc <HAL_GPIO_Init>

    /* LPUART1 interrupt Init */
    HAL_NVIC_SetPriority(LPUART1_IRQn, 0, 0);
 8002ca6:	2200      	movs	r2, #0
 8002ca8:	2100      	movs	r1, #0
 8002caa:	205b      	movs	r0, #91	; 0x5b
 8002cac:	f000 faa5 	bl	80031fa <HAL_NVIC_SetPriority>
    HAL_NVIC_EnableIRQ(LPUART1_IRQn);
 8002cb0:	205b      	movs	r0, #91	; 0x5b
 8002cb2:	f000 fabc 	bl	800322e <HAL_NVIC_EnableIRQ>
  /* USER CODE BEGIN USART2_MspInit 1 */

  /* USER CODE END USART2_MspInit 1 */
  }

}
 8002cb6:	e060      	b.n	8002d7a <HAL_UART_MspInit+0x172>
  else if(huart->Instance==USART2)
 8002cb8:	687b      	ldr	r3, [r7, #4]
 8002cba:	681b      	ldr	r3, [r3, #0]
 8002cbc:	4a33      	ldr	r2, [pc, #204]	; (8002d8c <HAL_UART_MspInit+0x184>)
 8002cbe:	4293      	cmp	r3, r2
 8002cc0:	d15b      	bne.n	8002d7a <HAL_UART_MspInit+0x172>
    PeriphClkInit.PeriphClockSelection = RCC_PERIPHCLK_USART2;
 8002cc2:	2302      	movs	r3, #2
 8002cc4:	623b      	str	r3, [r7, #32]
    PeriphClkInit.Usart2ClockSelection = RCC_USART2CLKSOURCE_PCLK1;
 8002cc6:	2300      	movs	r3, #0
 8002cc8:	62bb      	str	r3, [r7, #40]	; 0x28
    if (HAL_RCCEx_PeriphCLKConfig(&PeriphClkInit) != HAL_OK)
 8002cca:	f107 0320 	add.w	r3, r7, #32
 8002cce:	4618      	mov	r0, r3
 8002cd0:	f003 fab4 	bl	800623c <HAL_RCCEx_PeriphCLKConfig>
 8002cd4:	4603      	mov	r3, r0
 8002cd6:	2b00      	cmp	r3, #0
 8002cd8:	d001      	beq.n	8002cde <HAL_UART_MspInit+0xd6>
      Error_Handler();
 8002cda:	f7ff f8e1 	bl	8001ea0 <Error_Handler>
    __HAL_RCC_USART2_CLK_ENABLE();
 8002cde:	4b2a      	ldr	r3, [pc, #168]	; (8002d88 <HAL_UART_MspInit+0x180>)
 8002ce0:	6d9b      	ldr	r3, [r3, #88]	; 0x58
 8002ce2:	4a29      	ldr	r2, [pc, #164]	; (8002d88 <HAL_UART_MspInit+0x180>)
 8002ce4:	f443 3300 	orr.w	r3, r3, #131072	; 0x20000
 8002ce8:	6593      	str	r3, [r2, #88]	; 0x58
 8002cea:	4b27      	ldr	r3, [pc, #156]	; (8002d88 <HAL_UART_MspInit+0x180>)
 8002cec:	6d9b      	ldr	r3, [r3, #88]	; 0x58
 8002cee:	f403 3300 	and.w	r3, r3, #131072	; 0x20000
 8002cf2:	617b      	str	r3, [r7, #20]
 8002cf4:	697b      	ldr	r3, [r7, #20]
    __HAL_RCC_GPIOA_CLK_ENABLE();
 8002cf6:	4b24      	ldr	r3, [pc, #144]	; (8002d88 <HAL_UART_MspInit+0x180>)
 8002cf8:	6cdb      	ldr	r3, [r3, #76]	; 0x4c
 8002cfa:	4a23      	ldr	r2, [pc, #140]	; (8002d88 <HAL_UART_MspInit+0x180>)
 8002cfc:	f043 0301 	orr.w	r3, r3, #1
 8002d00:	64d3      	str	r3, [r2, #76]	; 0x4c
 8002d02:	4b21      	ldr	r3, [pc, #132]	; (8002d88 <HAL_UART_MspInit+0x180>)
 8002d04:	6cdb      	ldr	r3, [r3, #76]	; 0x4c
 8002d06:	f003 0301 	and.w	r3, r3, #1
 8002d0a:	613b      	str	r3, [r7, #16]
 8002d0c:	693b      	ldr	r3, [r7, #16]
    __HAL_RCC_GPIOB_CLK_ENABLE();
 8002d0e:	4b1e      	ldr	r3, [pc, #120]	; (8002d88 <HAL_UART_MspInit+0x180>)
 8002d10:	6cdb      	ldr	r3, [r3, #76]	; 0x4c
 8002d12:	4a1d      	ldr	r2, [pc, #116]	; (8002d88 <HAL_UART_MspInit+0x180>)
 8002d14:	f043 0302 	orr.w	r3, r3, #2
 8002d18:	64d3      	str	r3, [r2, #76]	; 0x4c
 8002d1a:	4b1b      	ldr	r3, [pc, #108]	; (8002d88 <HAL_UART_MspInit+0x180>)
 8002d1c:	6cdb      	ldr	r3, [r3, #76]	; 0x4c
 8002d1e:	f003 0302 	and.w	r3, r3, #2
 8002d22:	60fb      	str	r3, [r7, #12]
 8002d24:	68fb      	ldr	r3, [r7, #12]
    GPIO_InitStruct.Pin = GPIO_PIN_15;
 8002d26:	f44f 4300 	mov.w	r3, #32768	; 0x8000
 8002d2a:	667b      	str	r3, [r7, #100]	; 0x64
    GPIO_InitStruct.Mode = GPIO_MODE_AF_PP;
 8002d2c:	2302      	movs	r3, #2
 8002d2e:	66bb      	str	r3, [r7, #104]	; 0x68
    GPIO_InitStruct.Pull = GPIO_NOPULL;
 8002d30:	2300      	movs	r3, #0
 8002d32:	66fb      	str	r3, [r7, #108]	; 0x6c
    GPIO_InitStruct.Speed = GPIO_SPEED_FREQ_LOW;
 8002d34:	2300      	movs	r3, #0
 8002d36:	673b      	str	r3, [r7, #112]	; 0x70
    GPIO_InitStruct.Alternate = GPIO_AF7_USART2;
 8002d38:	2307      	movs	r3, #7
 8002d3a:	677b      	str	r3, [r7, #116]	; 0x74
    HAL_GPIO_Init(GPIOA, &GPIO_InitStruct);
 8002d3c:	f107 0364 	add.w	r3, r7, #100	; 0x64
 8002d40:	4619      	mov	r1, r3
 8002d42:	f04f 4090 	mov.w	r0, #1207959552	; 0x48000000
 8002d46:	f000 fdc9 	bl	80038dc <HAL_GPIO_Init>
    GPIO_InitStruct.Pin = GPIO_PIN_3;
 8002d4a:	2308      	movs	r3, #8
 8002d4c:	667b      	str	r3, [r7, #100]	; 0x64
    GPIO_InitStruct.Mode = GPIO_MODE_AF_PP;
 8002d4e:	2302      	movs	r3, #2
 8002d50:	66bb      	str	r3, [r7, #104]	; 0x68
    GPIO_InitStruct.Pull = GPIO_NOPULL;
 8002d52:	2300      	movs	r3, #0
 8002d54:	66fb      	str	r3, [r7, #108]	; 0x6c
    GPIO_InitStruct.Speed = GPIO_SPEED_FREQ_LOW;
 8002d56:	2300      	movs	r3, #0
 8002d58:	673b      	str	r3, [r7, #112]	; 0x70
    GPIO_InitStruct.Alternate = GPIO_AF7_USART2;
 8002d5a:	2307      	movs	r3, #7
 8002d5c:	677b      	str	r3, [r7, #116]	; 0x74
    HAL_GPIO_Init(GPIOB, &GPIO_InitStruct);
 8002d5e:	f107 0364 	add.w	r3, r7, #100	; 0x64
 8002d62:	4619      	mov	r1, r3
 8002d64:	480a      	ldr	r0, [pc, #40]	; (8002d90 <HAL_UART_MspInit+0x188>)
 8002d66:	f000 fdb9 	bl	80038dc <HAL_GPIO_Init>
    HAL_NVIC_SetPriority(USART2_IRQn, 0, 0);
 8002d6a:	2200      	movs	r2, #0
 8002d6c:	2100      	movs	r1, #0
 8002d6e:	2026      	movs	r0, #38	; 0x26
 8002d70:	f000 fa43 	bl	80031fa <HAL_NVIC_SetPriority>
    HAL_NVIC_EnableIRQ(USART2_IRQn);
 8002d74:	2026      	movs	r0, #38	; 0x26
 8002d76:	f000 fa5a 	bl	800322e <HAL_NVIC_EnableIRQ>
}
 8002d7a:	bf00      	nop
 8002d7c:	3778      	adds	r7, #120	; 0x78
 8002d7e:	46bd      	mov	sp, r7
 8002d80:	bd80      	pop	{r7, pc}
 8002d82:	bf00      	nop
 8002d84:	40008000 	.word	0x40008000
 8002d88:	40021000 	.word	0x40021000
 8002d8c:	40004400 	.word	0x40004400
 8002d90:	48000400 	.word	0x48000400

08002d94 <HAL_SPI_MspInit>:
* This function configures the hardware resources used in this example
* @param hspi: SPI handle pointer
* @retval None
*/
void HAL_SPI_MspInit(SPI_HandleTypeDef* hspi)
{
 8002d94:	b580      	push	{r7, lr}
 8002d96:	b08a      	sub	sp, #40	; 0x28
 8002d98:	af00      	add	r7, sp, #0
 8002d9a:	6078      	str	r0, [r7, #4]
  GPIO_InitTypeDef GPIO_InitStruct = {0};
 8002d9c:	f107 0314 	add.w	r3, r7, #20
 8002da0:	2200      	movs	r2, #0
 8002da2:	601a      	str	r2, [r3, #0]
 8002da4:	605a      	str	r2, [r3, #4]
 8002da6:	609a      	str	r2, [r3, #8]
 8002da8:	60da      	str	r2, [r3, #12]
 8002daa:	611a      	str	r2, [r3, #16]
  if(hspi->Instance==SPI1)
 8002dac:	687b      	ldr	r3, [r7, #4]
 8002dae:	681b      	ldr	r3, [r3, #0]
 8002db0:	4a17      	ldr	r2, [pc, #92]	; (8002e10 <HAL_SPI_MspInit+0x7c>)
 8002db2:	4293      	cmp	r3, r2
 8002db4:	d128      	bne.n	8002e08 <HAL_SPI_MspInit+0x74>
  {
  /* USER CODE BEGIN SPI1_MspInit 0 */

  /* USER CODE END SPI1_MspInit 0 */
    /* Peripheral clock enable */
    __HAL_RCC_SPI1_CLK_ENABLE();
 8002db6:	4b17      	ldr	r3, [pc, #92]	; (8002e14 <HAL_SPI_MspInit+0x80>)
 8002db8:	6e1b      	ldr	r3, [r3, #96]	; 0x60
 8002dba:	4a16      	ldr	r2, [pc, #88]	; (8002e14 <HAL_SPI_MspInit+0x80>)
 8002dbc:	f443 5380 	orr.w	r3, r3, #4096	; 0x1000
 8002dc0:	6613      	str	r3, [r2, #96]	; 0x60
 8002dc2:	4b14      	ldr	r3, [pc, #80]	; (8002e14 <HAL_SPI_MspInit+0x80>)
 8002dc4:	6e1b      	ldr	r3, [r3, #96]	; 0x60
 8002dc6:	f403 5380 	and.w	r3, r3, #4096	; 0x1000
 8002dca:	613b      	str	r3, [r7, #16]
 8002dcc:	693b      	ldr	r3, [r7, #16]

    __HAL_RCC_GPIOA_CLK_ENABLE();
 8002dce:	4b11      	ldr	r3, [pc, #68]	; (8002e14 <HAL_SPI_MspInit+0x80>)
 8002dd0:	6cdb      	ldr	r3, [r3, #76]	; 0x4c
 8002dd2:	4a10      	ldr	r2, [pc, #64]	; (8002e14 <HAL_SPI_MspInit+0x80>)
 8002dd4:	f043 0301 	orr.w	r3, r3, #1
 8002dd8:	64d3      	str	r3, [r2, #76]	; 0x4c
 8002dda:	4b0e      	ldr	r3, [pc, #56]	; (8002e14 <HAL_SPI_MspInit+0x80>)
 8002ddc:	6cdb      	ldr	r3, [r3, #76]	; 0x4c
 8002dde:	f003 0301 	and.w	r3, r3, #1
 8002de2:	60fb      	str	r3, [r7, #12]
 8002de4:	68fb      	ldr	r3, [r7, #12]
    /**SPI1 GPIO Configuration
    PA5     ------> SPI1_SCK
    PA6     ------> SPI1_MISO
    PA7     ------> SPI1_MOSI
    */
    GPIO_InitStruct.Pin = GPIO_PIN_5|GPIO_PIN_6|GPIO_PIN_7;
 8002de6:	23e0      	movs	r3, #224	; 0xe0
 8002de8:	617b      	str	r3, [r7, #20]
    GPIO_InitStruct.Mode = GPIO_MODE_AF_PP;
 8002dea:	2302      	movs	r3, #2
 8002dec:	61bb      	str	r3, [r7, #24]
    GPIO_InitStruct.Pull = GPIO_NOPULL;
 8002dee:	2300      	movs	r3, #0
 8002df0:	61fb      	str	r3, [r7, #28]
    GPIO_InitStruct.Speed = GPIO_SPEED_FREQ_LOW;
 8002df2:	2300      	movs	r3, #0
 8002df4:	623b      	str	r3, [r7, #32]
    GPIO_InitStruct.Alternate = GPIO_AF5_SPI1;
 8002df6:	2305      	movs	r3, #5
 8002df8:	627b      	str	r3, [r7, #36]	; 0x24
    HAL_GPIO_Init(GPIOA, &GPIO_InitStruct);
 8002dfa:	f107 0314 	add.w	r3, r7, #20
 8002dfe:	4619      	mov	r1, r3
 8002e00:	f04f 4090 	mov.w	r0, #1207959552	; 0x48000000
 8002e04:	f000 fd6a 	bl	80038dc <HAL_GPIO_Init>
  /* USER CODE BEGIN SPI1_MspInit 1 */

  /* USER CODE END SPI1_MspInit 1 */
  }

}
 8002e08:	bf00      	nop
 8002e0a:	3728      	adds	r7, #40	; 0x28
 8002e0c:	46bd      	mov	sp, r7
 8002e0e:	bd80      	pop	{r7, pc}
 8002e10:	40013000 	.word	0x40013000
 8002e14:	40021000 	.word	0x40021000

08002e18 <NMI_Handler>:
/******************************************************************************/
/**
  * @brief This function handles Non maskable interrupt.
  */
void NMI_Handler(void)
{
 8002e18:	b480      	push	{r7}
 8002e1a:	af00      	add	r7, sp, #0
  /* USER CODE BEGIN NonMaskableInt_IRQn 0 */

  /* USER CODE END NonMaskableInt_IRQn 0 */
  /* USER CODE BEGIN NonMaskableInt_IRQn 1 */
  while (1)
 8002e1c:	e7fe      	b.n	8002e1c <NMI_Handler+0x4>

08002e1e <HardFault_Handler>:

/**
  * @brief This function handles Hard fault interrupt.
  */
void HardFault_Handler(void)
{
 8002e1e:	b480      	push	{r7}
 8002e20:	af00      	add	r7, sp, #0
  /* USER CODE BEGIN HardFault_IRQn 0 */

  /* USER CODE END HardFault_IRQn 0 */
  while (1)
 8002e22:	e7fe      	b.n	8002e22 <HardFault_Handler+0x4>

08002e24 <MemManage_Handler>:

/**
  * @brief This function handles Memory management fault.
  */
void MemManage_Handler(void)
{
 8002e24:	b480      	push	{r7}
 8002e26:	af00      	add	r7, sp, #0
  /* USER CODE BEGIN MemoryManagement_IRQn 0 */

  /* USER CODE END MemoryManagement_IRQn 0 */
  while (1)
 8002e28:	e7fe      	b.n	8002e28 <MemManage_Handler+0x4>

08002e2a <BusFault_Handler>:

/**
  * @brief This function handles Prefetch fault, memory access fault.
  */
void BusFault_Handler(void)
{
 8002e2a:	b480      	push	{r7}
 8002e2c:	af00      	add	r7, sp, #0
  /* USER CODE BEGIN BusFault_IRQn 0 */

  /* USER CODE END BusFault_IRQn 0 */
  while (1)
 8002e2e:	e7fe      	b.n	8002e2e <BusFault_Handler+0x4>

08002e30 <UsageFault_Handler>:

/**
  * @brief This function handles Undefined instruction or illegal state.
  */
void UsageFault_Handler(void)
{
 8002e30:	b480      	push	{r7}
 8002e32:	af00      	add	r7, sp, #0
  /* USER CODE BEGIN UsageFault_IRQn 0 */

  /* USER CODE END UsageFault_IRQn 0 */
  while (1)
 8002e34:	e7fe      	b.n	8002e34 <UsageFault_Handler+0x4>

08002e36 <SVC_Handler>:

/**
  * @brief This function handles System service call via SWI instruction.
  */
void SVC_Handler(void)
{
 8002e36:	b480      	push	{r7}
 8002e38:	af00      	add	r7, sp, #0

  /* USER CODE END SVCall_IRQn 0 */
  /* USER CODE BEGIN SVCall_IRQn 1 */

  /* USER CODE END SVCall_IRQn 1 */
}
 8002e3a:	bf00      	nop
 8002e3c:	46bd      	mov	sp, r7
 8002e3e:	f85d 7b04 	ldr.w	r7, [sp], #4
 8002e42:	4770      	bx	lr

08002e44 <DebugMon_Handler>:

/**
  * @brief This function handles Debug monitor.
  */
void DebugMon_Handler(void)
{
 8002e44:	b480      	push	{r7}
 8002e46:	af00      	add	r7, sp, #0

  /* USER CODE END DebugMonitor_IRQn 0 */
  /* USER CODE BEGIN DebugMonitor_IRQn 1 */

  /* USER CODE END DebugMonitor_IRQn 1 */
}
 8002e48:	bf00      	nop
 8002e4a:	46bd      	mov	sp, r7
 8002e4c:	f85d 7b04 	ldr.w	r7, [sp], #4
 8002e50:	4770      	bx	lr

08002e52 <PendSV_Handler>:

/**
  * @brief This function handles Pendable request for system service.
  */
void PendSV_Handler(void)
{
 8002e52:	b480      	push	{r7}
 8002e54:	af00      	add	r7, sp, #0

  /* USER CODE END PendSV_IRQn 0 */
  /* USER CODE BEGIN PendSV_IRQn 1 */

  /* USER CODE END PendSV_IRQn 1 */
}
 8002e56:	bf00      	nop
 8002e58:	46bd      	mov	sp, r7
 8002e5a:	f85d 7b04 	ldr.w	r7, [sp], #4
 8002e5e:	4770      	bx	lr

08002e60 <SysTick_Handler>:

/**
  * @brief This function handles System tick timer.
  */
void SysTick_Handler(void)
{
 8002e60:	b580      	push	{r7, lr}
 8002e62:	af00      	add	r7, sp, #0
  /* USER CODE BEGIN SysTick_IRQn 0 */

  /* USER CODE END SysTick_IRQn 0 */
  HAL_IncTick();
 8002e64:	f000 f8ae 	bl	8002fc4 <HAL_IncTick>
  /* USER CODE BEGIN SysTick_IRQn 1 */

  /* USER CODE END SysTick_IRQn 1 */
}
 8002e68:	bf00      	nop
 8002e6a:	bd80      	pop	{r7, pc}

08002e6c <USB_LP_IRQHandler>:

/**
  * @brief This function handles USB low priority interrupt remap.
  */
void USB_LP_IRQHandler(void)
{
 8002e6c:	b580      	push	{r7, lr}
 8002e6e:	af00      	add	r7, sp, #0
  /* USER CODE BEGIN USB_LP_IRQn 0 */

  /* USER CODE END USB_LP_IRQn 0 */
  HAL_PCD_IRQHandler(&hpcd_USB_FS);
 8002e70:	4802      	ldr	r0, [pc, #8]	; (8002e7c <USB_LP_IRQHandler+0x10>)
 8002e72:	f000 ffbd 	bl	8003df0 <HAL_PCD_IRQHandler>
  /* USER CODE BEGIN USB_LP_IRQn 1 */

  /* USER CODE END USB_LP_IRQn 1 */
}
 8002e76:	bf00      	nop
 8002e78:	bd80      	pop	{r7, pc}
 8002e7a:	bf00      	nop
 8002e7c:	200011d0 	.word	0x200011d0

08002e80 <USART2_IRQHandler>:

/**
  * @brief This function handles USART2 global interrupt / USART2 wake-up interrupt through EXTI line 26.
  */
void USART2_IRQHandler(void)
{
 8002e80:	b580      	push	{r7, lr}
 8002e82:	af00      	add	r7, sp, #0
  /* USER CODE BEGIN USART2_IRQn 0 */

  /* USER CODE END USART2_IRQn 0 */
  HAL_UART_IRQHandler(&huart2);
 8002e84:	4802      	ldr	r0, [pc, #8]	; (8002e90 <USART2_IRQHandler+0x10>)
 8002e86:	f004 fb4f 	bl	8007528 <HAL_UART_IRQHandler>
  /* USER CODE BEGIN USART2_IRQn 1 */

  /* USER CODE END USART2_IRQn 1 */
}
 8002e8a:	bf00      	nop
 8002e8c:	bd80      	pop	{r7, pc}
 8002e8e:	bf00      	nop
 8002e90:	20000260 	.word	0x20000260

08002e94 <LPUART1_IRQHandler>:

/**
  * @brief This function handles LPUART1 global interrupt.
  */
void LPUART1_IRQHandler(void)
{
 8002e94:	b580      	push	{r7, lr}
 8002e96:	af00      	add	r7, sp, #0
  /* USER CODE BEGIN LPUART1_IRQn 0 */

  /* USER CODE END LPUART1_IRQn 0 */
  HAL_UART_IRQHandler(&hlpuart1);
 8002e98:	4802      	ldr	r0, [pc, #8]	; (8002ea4 <LPUART1_IRQHandler+0x10>)
 8002e9a:	f004 fb45 	bl	8007528 <HAL_UART_IRQHandler>
  /* USER CODE BEGIN LPUART1_IRQn 1 */

  /* USER CODE END LPUART1_IRQn 1 */
}
 8002e9e:	bf00      	nop
 8002ea0:	bd80      	pop	{r7, pc}
 8002ea2:	bf00      	nop
 8002ea4:	200001cc 	.word	0x200001cc

08002ea8 <SystemInit>:
  * @param  None
  * @retval None
  */

void SystemInit(void)
{
 8002ea8:	b480      	push	{r7}
 8002eaa:	af00      	add	r7, sp, #0
  /* FPU settings ------------------------------------------------------------*/
  #if (__FPU_PRESENT == 1) && (__FPU_USED == 1)
    SCB->CPACR |= ((3UL << (10*2))|(3UL << (11*2)));  /* set CP10 and CP11 Full Access */
 8002eac:	4b06      	ldr	r3, [pc, #24]	; (8002ec8 <SystemInit+0x20>)
 8002eae:	f8d3 3088 	ldr.w	r3, [r3, #136]	; 0x88
 8002eb2:	4a05      	ldr	r2, [pc, #20]	; (8002ec8 <SystemInit+0x20>)
 8002eb4:	f443 0370 	orr.w	r3, r3, #15728640	; 0xf00000
 8002eb8:	f8c2 3088 	str.w	r3, [r2, #136]	; 0x88

  /* Configure the Vector Table location add offset address ------------------*/
#if defined(USER_VECT_TAB_ADDRESS)
  SCB->VTOR = VECT_TAB_BASE_ADDRESS | VECT_TAB_OFFSET; /* Vector Table Relocation in Internal SRAM */
#endif /* USER_VECT_TAB_ADDRESS */
}
 8002ebc:	bf00      	nop
 8002ebe:	46bd      	mov	sp, r7
 8002ec0:	f85d 7b04 	ldr.w	r7, [sp], #4
 8002ec4:	4770      	bx	lr
 8002ec6:	bf00      	nop
 8002ec8:	e000ed00 	.word	0xe000ed00

08002ecc <Reset_Handler>:
 8002ecc:	480d      	ldr	r0, [pc, #52]	; (8002f04 <LoopForever+0x2>)
 8002ece:	4685      	mov	sp, r0
 8002ed0:	f7ff ffea 	bl	8002ea8 <SystemInit>
 8002ed4:	480c      	ldr	r0, [pc, #48]	; (8002f08 <LoopForever+0x6>)
 8002ed6:	490d      	ldr	r1, [pc, #52]	; (8002f0c <LoopForever+0xa>)
 8002ed8:	4a0d      	ldr	r2, [pc, #52]	; (8002f10 <LoopForever+0xe>)
 8002eda:	2300      	movs	r3, #0
 8002edc:	e002      	b.n	8002ee4 <LoopCopyDataInit>

08002ede <CopyDataInit>:
 8002ede:	58d4      	ldr	r4, [r2, r3]
 8002ee0:	50c4      	str	r4, [r0, r3]
 8002ee2:	3304      	adds	r3, #4

08002ee4 <LoopCopyDataInit>:
 8002ee4:	18c4      	adds	r4, r0, r3
 8002ee6:	428c      	cmp	r4, r1
 8002ee8:	d3f9      	bcc.n	8002ede <CopyDataInit>
 8002eea:	4a0a      	ldr	r2, [pc, #40]	; (8002f14 <LoopForever+0x12>)
 8002eec:	4c0a      	ldr	r4, [pc, #40]	; (8002f18 <LoopForever+0x16>)
 8002eee:	2300      	movs	r3, #0
 8002ef0:	e001      	b.n	8002ef6 <LoopFillZerobss>

08002ef2 <FillZerobss>:
 8002ef2:	6013      	str	r3, [r2, #0]
 8002ef4:	3204      	adds	r2, #4

08002ef6 <LoopFillZerobss>:
 8002ef6:	42a2      	cmp	r2, r4
 8002ef8:	d3fb      	bcc.n	8002ef2 <FillZerobss>
 8002efa:	f00a f91b 	bl	800d134 <__libc_init_array>
 8002efe:	f7fe fd7f 	bl	8001a00 <main>

08002f02 <LoopForever>:
 8002f02:	e7fe      	b.n	8002f02 <LoopForever>
 8002f04:	20008000 	.word	0x20008000
 8002f08:	20000000 	.word	0x20000000
 8002f0c:	200001ac 	.word	0x200001ac
 8002f10:	0800d258 	.word	0x0800d258
 8002f14:	200001ac 	.word	0x200001ac
 8002f18:	200016cc 	.word	0x200016cc

08002f1c <ADC1_2_IRQHandler>:
 8002f1c:	e7fe      	b.n	8002f1c <ADC1_2_IRQHandler>

08002f1e <HAL_Init>:
 8002f1e:	b580      	push	{r7, lr}
 8002f20:	b082      	sub	sp, #8
 8002f22:	af00      	add	r7, sp, #0
 8002f24:	2300      	movs	r3, #0
 8002f26:	71fb      	strb	r3, [r7, #7]
 8002f28:	2003      	movs	r0, #3
 8002f2a:	f000 f95b 	bl	80031e4 <HAL_NVIC_SetPriorityGrouping>
 8002f2e:	200f      	movs	r0, #15
 8002f30:	f000 f80e 	bl	8002f50 <HAL_InitTick>
 8002f34:	4603      	mov	r3, r0
 8002f36:	2b00      	cmp	r3, #0
 8002f38:	d002      	beq.n	8002f40 <HAL_Init+0x22>
 8002f3a:	2301      	movs	r3, #1
 8002f3c:	71fb      	strb	r3, [r7, #7]
 8002f3e:	e001      	b.n	8002f44 <HAL_Init+0x26>
 8002f40:	f7ff fe3e 	bl	8002bc0 <HAL_MspInit>
 8002f44:	79fb      	ldrb	r3, [r7, #7]
 8002f46:	4618      	mov	r0, r3
 8002f48:	3708      	adds	r7, #8
 8002f4a:	46bd      	mov	sp, r7
 8002f4c:	bd80      	pop	{r7, pc}
	...

08002f50 <HAL_InitTick>:
 8002f50:	b580      	push	{r7, lr}
 8002f52:	b084      	sub	sp, #16
 8002f54:	af00      	add	r7, sp, #0
 8002f56:	6078      	str	r0, [r7, #4]
 8002f58:	2300      	movs	r3, #0
 8002f5a:	73fb      	strb	r3, [r7, #15]
 8002f5c:	4b16      	ldr	r3, [pc, #88]	; (8002fb8 <HAL_InitTick+0x68>)
 8002f5e:	681b      	ldr	r3, [r3, #0]
 8002f60:	2b00      	cmp	r3, #0
 8002f62:	d022      	beq.n	8002faa <HAL_InitTick+0x5a>
 8002f64:	4b15      	ldr	r3, [pc, #84]	; (8002fbc <HAL_InitTick+0x6c>)
 8002f66:	681a      	ldr	r2, [r3, #0]
 8002f68:	4b13      	ldr	r3, [pc, #76]	; (8002fb8 <HAL_InitTick+0x68>)
 8002f6a:	681b      	ldr	r3, [r3, #0]
 8002f6c:	f44f 717a 	mov.w	r1, #1000	; 0x3e8
 8002f70:	fbb1 f3f3 	udiv	r3, r1, r3
 8002f74:	fbb2 f3f3 	udiv	r3, r2, r3
 8002f78:	4618      	mov	r0, r3
 8002f7a:	f000 f966 	bl	800324a <HAL_SYSTICK_Config>
 8002f7e:	4603      	mov	r3, r0
 8002f80:	2b00      	cmp	r3, #0
 8002f82:	d10f      	bne.n	8002fa4 <HAL_InitTick+0x54>
 8002f84:	687b      	ldr	r3, [r7, #4]
 8002f86:	2b0f      	cmp	r3, #15
 8002f88:	d809      	bhi.n	8002f9e <HAL_InitTick+0x4e>
 8002f8a:	2200      	movs	r2, #0
 8002f8c:	6879      	ldr	r1, [r7, #4]
 8002f8e:	f04f 30ff 	mov.w	r0, #4294967295
 8002f92:	f000 f932 	bl	80031fa <HAL_NVIC_SetPriority>
 8002f96:	4a0a      	ldr	r2, [pc, #40]	; (8002fc0 <HAL_InitTick+0x70>)
 8002f98:	687b      	ldr	r3, [r7, #4]
 8002f9a:	6013      	str	r3, [r2, #0]
 8002f9c:	e007      	b.n	8002fae <HAL_InitTick+0x5e>
 8002f9e:	2301      	movs	r3, #1
 8002fa0:	73fb      	strb	r3, [r7, #15]
 8002fa2:	e004      	b.n	8002fae <HAL_InitTick+0x5e>
 8002fa4:	2301      	movs	r3, #1
 8002fa6:	73fb      	strb	r3, [r7, #15]
 8002fa8:	e001      	b.n	8002fae <HAL_InitTick+0x5e>
 8002faa:	2301      	movs	r3, #1
 8002fac:	73fb      	strb	r3, [r7, #15]
 8002fae:	7bfb      	ldrb	r3, [r7, #15]
 8002fb0:	4618      	mov	r0, r3
 8002fb2:	3710      	adds	r7, #16
 8002fb4:	46bd      	mov	sp, r7
 8002fb6:	bd80      	pop	{r7, pc}
 8002fb8:	20000010 	.word	0x20000010
 8002fbc:	20000008 	.word	0x20000008
 8002fc0:	2000000c 	.word	0x2000000c

08002fc4 <HAL_IncTick>:
 8002fc4:	b480      	push	{r7}
 8002fc6:	af00      	add	r7, sp, #0
 8002fc8:	4b05      	ldr	r3, [pc, #20]	; (8002fe0 <HAL_IncTick+0x1c>)
 8002fca:	681a      	ldr	r2, [r3, #0]
 8002fcc:	4b05      	ldr	r3, [pc, #20]	; (8002fe4 <HAL_IncTick+0x20>)
 8002fce:	681b      	ldr	r3, [r3, #0]
 8002fd0:	4413      	add	r3, r2
 8002fd2:	4a03      	ldr	r2, [pc, #12]	; (8002fe0 <HAL_IncTick+0x1c>)
 8002fd4:	6013      	str	r3, [r2, #0]
 8002fd6:	bf00      	nop
 8002fd8:	46bd      	mov	sp, r7
 8002fda:	f85d 7b04 	ldr.w	r7, [sp], #4
 8002fde:	4770      	bx	lr
 8002fe0:	20000528 	.word	0x20000528
 8002fe4:	20000010 	.word	0x20000010

08002fe8 <HAL_GetTick>:
 8002fe8:	b480      	push	{r7}
 8002fea:	af00      	add	r7, sp, #0
 8002fec:	4b03      	ldr	r3, [pc, #12]	; (8002ffc <HAL_GetTick+0x14>)
 8002fee:	681b      	ldr	r3, [r3, #0]
 8002ff0:	4618      	mov	r0, r3
 8002ff2:	46bd      	mov	sp, r7
 8002ff4:	f85d 7b04 	ldr.w	r7, [sp], #4
 8002ff8:	4770      	bx	lr
 8002ffa:	bf00      	nop
 8002ffc:	20000528 	.word	0x20000528

08003000 <HAL_Delay>:
 8003000:	b580      	push	{r7, lr}
 8003002:	b084      	sub	sp, #16
 8003004:	af00      	add	r7, sp, #0
 8003006:	6078      	str	r0, [r7, #4]
 8003008:	f7ff ffee 	bl	8002fe8 <HAL_GetTick>
 800300c:	60b8      	str	r0, [r7, #8]
 800300e:	687b      	ldr	r3, [r7, #4]
 8003010:	60fb      	str	r3, [r7, #12]
 8003012:	68fb      	ldr	r3, [r7, #12]
 8003014:	f1b3 3fff 	cmp.w	r3, #4294967295
 8003018:	d004      	beq.n	8003024 <HAL_Delay+0x24>
 800301a:	4b09      	ldr	r3, [pc, #36]	; (8003040 <HAL_Delay+0x40>)
 800301c:	681b      	ldr	r3, [r3, #0]
 800301e:	68fa      	ldr	r2, [r7, #12]
 8003020:	4413      	add	r3, r2
 8003022:	60fb      	str	r3, [r7, #12]
 8003024:	bf00      	nop
 8003026:	f7ff ffdf 	bl	8002fe8 <HAL_GetTick>
 800302a:	4602      	mov	r2, r0
 800302c:	68bb      	ldr	r3, [r7, #8]
 800302e:	1ad3      	subs	r3, r2, r3
 8003030:	68fa      	ldr	r2, [r7, #12]
 8003032:	429a      	cmp	r2, r3
 8003034:	d8f7      	bhi.n	8003026 <HAL_Delay+0x26>
 8003036:	bf00      	nop
 8003038:	bf00      	nop
 800303a:	3710      	adds	r7, #16
 800303c:	46bd      	mov	sp, r7
 800303e:	bd80      	pop	{r7, pc}
 8003040:	20000010 	.word	0x20000010

08003044 <__NVIC_SetPriorityGrouping>:
 8003044:	b480      	push	{r7}
 8003046:	b085      	sub	sp, #20
 8003048:	af00      	add	r7, sp, #0
 800304a:	6078      	str	r0, [r7, #4]
 800304c:	687b      	ldr	r3, [r7, #4]
 800304e:	f003 0307 	and.w	r3, r3, #7
 8003052:	60fb      	str	r3, [r7, #12]
 8003054:	4b0c      	ldr	r3, [pc, #48]	; (8003088 <__NVIC_SetPriorityGrouping+0x44>)
 8003056:	68db      	ldr	r3, [r3, #12]
 8003058:	60bb      	str	r3, [r7, #8]
 800305a:	68ba      	ldr	r2, [r7, #8]
 800305c:	f64f 03ff 	movw	r3, #63743	; 0xf8ff
 8003060:	4013      	ands	r3, r2
 8003062:	60bb      	str	r3, [r7, #8]
 8003064:	68fb      	ldr	r3, [r7, #12]
 8003066:	021a      	lsls	r2, r3, #8
 8003068:	68bb      	ldr	r3, [r7, #8]
 800306a:	4313      	orrs	r3, r2
 800306c:	f043 63bf 	orr.w	r3, r3, #100139008	; 0x5f80000
 8003070:	f443 3300 	orr.w	r3, r3, #131072	; 0x20000
 8003074:	60bb      	str	r3, [r7, #8]
 8003076:	4a04      	ldr	r2, [pc, #16]	; (8003088 <__NVIC_SetPriorityGrouping+0x44>)
 8003078:	68bb      	ldr	r3, [r7, #8]
 800307a:	60d3      	str	r3, [r2, #12]
 800307c:	bf00      	nop
 800307e:	3714      	adds	r7, #20
 8003080:	46bd      	mov	sp, r7
 8003082:	f85d 7b04 	ldr.w	r7, [sp], #4
 8003086:	4770      	bx	lr
 8003088:	e000ed00 	.word	0xe000ed00

0800308c <__NVIC_GetPriorityGrouping>:
 800308c:	b480      	push	{r7}
 800308e:	af00      	add	r7, sp, #0
 8003090:	4b04      	ldr	r3, [pc, #16]	; (80030a4 <__NVIC_GetPriorityGrouping+0x18>)
 8003092:	68db      	ldr	r3, [r3, #12]
 8003094:	0a1b      	lsrs	r3, r3, #8
 8003096:	f003 0307 	and.w	r3, r3, #7
 800309a:	4618      	mov	r0, r3
 800309c:	46bd      	mov	sp, r7
 800309e:	f85d 7b04 	ldr.w	r7, [sp], #4
 80030a2:	4770      	bx	lr
 80030a4:	e000ed00 	.word	0xe000ed00

080030a8 <__NVIC_EnableIRQ>:
 80030a8:	b480      	push	{r7}
 80030aa:	b083      	sub	sp, #12
 80030ac:	af00      	add	r7, sp, #0
 80030ae:	4603      	mov	r3, r0
 80030b0:	71fb      	strb	r3, [r7, #7]
 80030b2:	f997 3007 	ldrsb.w	r3, [r7, #7]
 80030b6:	2b00      	cmp	r3, #0
 80030b8:	db0b      	blt.n	80030d2 <__NVIC_EnableIRQ+0x2a>
 80030ba:	79fb      	ldrb	r3, [r7, #7]
 80030bc:	f003 021f 	and.w	r2, r3, #31
 80030c0:	4907      	ldr	r1, [pc, #28]	; (80030e0 <__NVIC_EnableIRQ+0x38>)
 80030c2:	f997 3007 	ldrsb.w	r3, [r7, #7]
 80030c6:	095b      	lsrs	r3, r3, #5
 80030c8:	2001      	movs	r0, #1
 80030ca:	fa00 f202 	lsl.w	r2, r0, r2
 80030ce:	f841 2023 	str.w	r2, [r1, r3, lsl #2]
 80030d2:	bf00      	nop
 80030d4:	370c      	adds	r7, #12
 80030d6:	46bd      	mov	sp, r7
 80030d8:	f85d 7b04 	ldr.w	r7, [sp], #4
 80030dc:	4770      	bx	lr
 80030de:	bf00      	nop
 80030e0:	e000e100 	.word	0xe000e100

080030e4 <__NVIC_SetPriority>:
 80030e4:	b480      	push	{r7}
 80030e6:	b083      	sub	sp, #12
 80030e8:	af00      	add	r7, sp, #0
 80030ea:	4603      	mov	r3, r0
 80030ec:	6039      	str	r1, [r7, #0]
 80030ee:	71fb      	strb	r3, [r7, #7]
 80030f0:	f997 3007 	ldrsb.w	r3, [r7, #7]
 80030f4:	2b00      	cmp	r3, #0
 80030f6:	db0a      	blt.n	800310e <__NVIC_SetPriority+0x2a>
 80030f8:	683b      	ldr	r3, [r7, #0]
 80030fa:	b2da      	uxtb	r2, r3
 80030fc:	490c      	ldr	r1, [pc, #48]	; (8003130 <__NVIC_SetPriority+0x4c>)
 80030fe:	f997 3007 	ldrsb.w	r3, [r7, #7]
 8003102:	0112      	lsls	r2, r2, #4
 8003104:	b2d2      	uxtb	r2, r2
 8003106:	440b      	add	r3, r1
 8003108:	f883 2300 	strb.w	r2, [r3, #768]	; 0x300
 800310c:	e00a      	b.n	8003124 <__NVIC_SetPriority+0x40>
 800310e:	683b      	ldr	r3, [r7, #0]
 8003110:	b2da      	uxtb	r2, r3
 8003112:	4908      	ldr	r1, [pc, #32]	; (8003134 <__NVIC_SetPriority+0x50>)
 8003114:	79fb      	ldrb	r3, [r7, #7]
 8003116:	f003 030f 	and.w	r3, r3, #15
 800311a:	3b04      	subs	r3, #4
 800311c:	0112      	lsls	r2, r2, #4
 800311e:	b2d2      	uxtb	r2, r2
 8003120:	440b      	add	r3, r1
 8003122:	761a      	strb	r2, [r3, #24]
 8003124:	bf00      	nop
 8003126:	370c      	adds	r7, #12
 8003128:	46bd      	mov	sp, r7
 800312a:	f85d 7b04 	ldr.w	r7, [sp], #4
 800312e:	4770      	bx	lr
 8003130:	e000e100 	.word	0xe000e100
 8003134:	e000ed00 	.word	0xe000ed00

08003138 <NVIC_EncodePriority>:
 8003138:	b480      	push	{r7}
 800313a:	b089      	sub	sp, #36	; 0x24
 800313c:	af00      	add	r7, sp, #0
 800313e:	60f8      	str	r0, [r7, #12]
 8003140:	60b9      	str	r1, [r7, #8]
 8003142:	607a      	str	r2, [r7, #4]
 8003144:	68fb      	ldr	r3, [r7, #12]
 8003146:	f003 0307 	and.w	r3, r3, #7
 800314a:	61fb      	str	r3, [r7, #28]
 800314c:	69fb      	ldr	r3, [r7, #28]
 800314e:	f1c3 0307 	rsb	r3, r3, #7
 8003152:	2b04      	cmp	r3, #4
 8003154:	bf28      	it	cs
 8003156:	2304      	movcs	r3, #4
 8003158:	61bb      	str	r3, [r7, #24]
 800315a:	69fb      	ldr	r3, [r7, #28]
 800315c:	3304      	adds	r3, #4
 800315e:	2b06      	cmp	r3, #6
 8003160:	d902      	bls.n	8003168 <NVIC_EncodePriority+0x30>
 8003162:	69fb      	ldr	r3, [r7, #28]
 8003164:	3b03      	subs	r3, #3
 8003166:	e000      	b.n	800316a <NVIC_EncodePriority+0x32>
 8003168:	2300      	movs	r3, #0
 800316a:	617b      	str	r3, [r7, #20]
 800316c:	f04f 32ff 	mov.w	r2, #4294967295
 8003170:	69bb      	ldr	r3, [r7, #24]
 8003172:	fa02 f303 	lsl.w	r3, r2, r3
 8003176:	43da      	mvns	r2, r3
 8003178:	68bb      	ldr	r3, [r7, #8]
 800317a:	401a      	ands	r2, r3
 800317c:	697b      	ldr	r3, [r7, #20]
 800317e:	409a      	lsls	r2, r3
 8003180:	f04f 31ff 	mov.w	r1, #4294967295
 8003184:	697b      	ldr	r3, [r7, #20]
 8003186:	fa01 f303 	lsl.w	r3, r1, r3
 800318a:	43d9      	mvns	r1, r3
 800318c:	687b      	ldr	r3, [r7, #4]
 800318e:	400b      	ands	r3, r1
 8003190:	4313      	orrs	r3, r2
 8003192:	4618      	mov	r0, r3
 8003194:	3724      	adds	r7, #36	; 0x24
 8003196:	46bd      	mov	sp, r7
 8003198:	f85d 7b04 	ldr.w	r7, [sp], #4
 800319c:	4770      	bx	lr
	...

080031a0 <SysTick_Config>:
 80031a0:	b580      	push	{r7, lr}
 80031a2:	b082      	sub	sp, #8
 80031a4:	af00      	add	r7, sp, #0
 80031a6:	6078      	str	r0, [r7, #4]
 80031a8:	687b      	ldr	r3, [r7, #4]
 80031aa:	3b01      	subs	r3, #1
 80031ac:	f1b3 7f80 	cmp.w	r3, #16777216	; 0x1000000
 80031b0:	d301      	bcc.n	80031b6 <SysTick_Config+0x16>
 80031b2:	2301      	movs	r3, #1
 80031b4:	e00f      	b.n	80031d6 <SysTick_Config+0x36>
 80031b6:	4a0a      	ldr	r2, [pc, #40]	; (80031e0 <SysTick_Config+0x40>)
 80031b8:	687b      	ldr	r3, [r7, #4]
 80031ba:	3b01      	subs	r3, #1
 80031bc:	6053      	str	r3, [r2, #4]
 80031be:	210f      	movs	r1, #15
 80031c0:	f04f 30ff 	mov.w	r0, #4294967295
 80031c4:	f7ff ff8e 	bl	80030e4 <__NVIC_SetPriority>
 80031c8:	4b05      	ldr	r3, [pc, #20]	; (80031e0 <SysTick_Config+0x40>)
 80031ca:	2200      	movs	r2, #0
 80031cc:	609a      	str	r2, [r3, #8]
 80031ce:	4b04      	ldr	r3, [pc, #16]	; (80031e0 <SysTick_Config+0x40>)
 80031d0:	2207      	movs	r2, #7
 80031d2:	601a      	str	r2, [r3, #0]
 80031d4:	2300      	movs	r3, #0
 80031d6:	4618      	mov	r0, r3
 80031d8:	3708      	adds	r7, #8
 80031da:	46bd      	mov	sp, r7
 80031dc:	bd80      	pop	{r7, pc}
 80031de:	bf00      	nop
 80031e0:	e000e010 	.word	0xe000e010

080031e4 <HAL_NVIC_SetPriorityGrouping>:
 80031e4:	b580      	push	{r7, lr}
 80031e6:	b082      	sub	sp, #8
 80031e8:	af00      	add	r7, sp, #0
 80031ea:	6078      	str	r0, [r7, #4]
 80031ec:	6878      	ldr	r0, [r7, #4]
 80031ee:	f7ff ff29 	bl	8003044 <__NVIC_SetPriorityGrouping>
 80031f2:	bf00      	nop
 80031f4:	3708      	adds	r7, #8
 80031f6:	46bd      	mov	sp, r7
 80031f8:	bd80      	pop	{r7, pc}

080031fa <HAL_NVIC_SetPriority>:
 80031fa:	b580      	push	{r7, lr}
 80031fc:	b086      	sub	sp, #24
 80031fe:	af00      	add	r7, sp, #0
 8003200:	4603      	mov	r3, r0
 8003202:	60b9      	str	r1, [r7, #8]
 8003204:	607a      	str	r2, [r7, #4]
 8003206:	73fb      	strb	r3, [r7, #15]
 8003208:	f7ff ff40 	bl	800308c <__NVIC_GetPriorityGrouping>
 800320c:	6178      	str	r0, [r7, #20]
 800320e:	687a      	ldr	r2, [r7, #4]
 8003210:	68b9      	ldr	r1, [r7, #8]
 8003212:	6978      	ldr	r0, [r7, #20]
 8003214:	f7ff ff90 	bl	8003138 <NVIC_EncodePriority>
 8003218:	4602      	mov	r2, r0
 800321a:	f997 300f 	ldrsb.w	r3, [r7, #15]
 800321e:	4611      	mov	r1, r2
 8003220:	4618      	mov	r0, r3
 8003222:	f7ff ff5f 	bl	80030e4 <__NVIC_SetPriority>
 8003226:	bf00      	nop
 8003228:	3718      	adds	r7, #24
 800322a:	46bd      	mov	sp, r7
 800322c:	bd80      	pop	{r7, pc}

0800322e <HAL_NVIC_EnableIRQ>:
 800322e:	b580      	push	{r7, lr}
 8003230:	b082      	sub	sp, #8
 8003232:	af00      	add	r7, sp, #0
 8003234:	4603      	mov	r3, r0
 8003236:	71fb      	strb	r3, [r7, #7]
 8003238:	f997 3007 	ldrsb.w	r3, [r7, #7]
 800323c:	4618      	mov	r0, r3
 800323e:	f7ff ff33 	bl	80030a8 <__NVIC_EnableIRQ>
 8003242:	bf00      	nop
 8003244:	3708      	adds	r7, #8
 8003246:	46bd      	mov	sp, r7
 8003248:	bd80      	pop	{r7, pc}

0800324a <HAL_SYSTICK_Config>:
 800324a:	b580      	push	{r7, lr}
 800324c:	b082      	sub	sp, #8
 800324e:	af00      	add	r7, sp, #0
 8003250:	6078      	str	r0, [r7, #4]
 8003252:	6878      	ldr	r0, [r7, #4]
 8003254:	f7ff ffa4 	bl	80031a0 <SysTick_Config>
 8003258:	4603      	mov	r3, r0
 800325a:	4618      	mov	r0, r3
 800325c:	3708      	adds	r7, #8
 800325e:	46bd      	mov	sp, r7
 8003260:	bd80      	pop	{r7, pc}

08003262 <HAL_DMA_Abort>:
 8003262:	b480      	push	{r7}
 8003264:	b085      	sub	sp, #20
 8003266:	af00      	add	r7, sp, #0
 8003268:	6078      	str	r0, [r7, #4]
 800326a:	2300      	movs	r3, #0
 800326c:	73fb      	strb	r3, [r7, #15]
 800326e:	687b      	ldr	r3, [r7, #4]
 8003270:	f893 3025 	ldrb.w	r3, [r3, #37]	; 0x25
 8003274:	b2db      	uxtb	r3, r3
 8003276:	2b02      	cmp	r3, #2
 8003278:	d005      	beq.n	8003286 <HAL_DMA_Abort+0x24>
 800327a:	687b      	ldr	r3, [r7, #4]
 800327c:	2204      	movs	r2, #4
 800327e:	63da      	str	r2, [r3, #60]	; 0x3c
 8003280:	2301      	movs	r3, #1
 8003282:	73fb      	strb	r3, [r7, #15]
 8003284:	e037      	b.n	80032f6 <HAL_DMA_Abort+0x94>
 8003286:	687b      	ldr	r3, [r7, #4]
 8003288:	681b      	ldr	r3, [r3, #0]
 800328a:	681a      	ldr	r2, [r3, #0]
 800328c:	687b      	ldr	r3, [r7, #4]
 800328e:	681b      	ldr	r3, [r3, #0]
 8003290:	f022 020e 	bic.w	r2, r2, #14
 8003294:	601a      	str	r2, [r3, #0]
 8003296:	687b      	ldr	r3, [r7, #4]
 8003298:	6c9b      	ldr	r3, [r3, #72]	; 0x48
 800329a:	681a      	ldr	r2, [r3, #0]
 800329c:	687b      	ldr	r3, [r7, #4]
 800329e:	6c9b      	ldr	r3, [r3, #72]	; 0x48
 80032a0:	f422 7280 	bic.w	r2, r2, #256	; 0x100
 80032a4:	601a      	str	r2, [r3, #0]
 80032a6:	687b      	ldr	r3, [r7, #4]
 80032a8:	681b      	ldr	r3, [r3, #0]
 80032aa:	681a      	ldr	r2, [r3, #0]
 80032ac:	687b      	ldr	r3, [r7, #4]
 80032ae:	681b      	ldr	r3, [r3, #0]
 80032b0:	f022 0201 	bic.w	r2, r2, #1
 80032b4:	601a      	str	r2, [r3, #0]
 80032b6:	687b      	ldr	r3, [r7, #4]
 80032b8:	6c5b      	ldr	r3, [r3, #68]	; 0x44
 80032ba:	f003 021f 	and.w	r2, r3, #31
 80032be:	687b      	ldr	r3, [r7, #4]
 80032c0:	6c1b      	ldr	r3, [r3, #64]	; 0x40
 80032c2:	2101      	movs	r1, #1
 80032c4:	fa01 f202 	lsl.w	r2, r1, r2
 80032c8:	605a      	str	r2, [r3, #4]
 80032ca:	687b      	ldr	r3, [r7, #4]
 80032cc:	6cdb      	ldr	r3, [r3, #76]	; 0x4c
 80032ce:	687a      	ldr	r2, [r7, #4]
 80032d0:	6d12      	ldr	r2, [r2, #80]	; 0x50
 80032d2:	605a      	str	r2, [r3, #4]
 80032d4:	687b      	ldr	r3, [r7, #4]
 80032d6:	6d5b      	ldr	r3, [r3, #84]	; 0x54
 80032d8:	2b00      	cmp	r3, #0
 80032da:	d00c      	beq.n	80032f6 <HAL_DMA_Abort+0x94>
 80032dc:	687b      	ldr	r3, [r7, #4]
 80032de:	6d5b      	ldr	r3, [r3, #84]	; 0x54
 80032e0:	681a      	ldr	r2, [r3, #0]
 80032e2:	687b      	ldr	r3, [r7, #4]
 80032e4:	6d5b      	ldr	r3, [r3, #84]	; 0x54
 80032e6:	f422 7280 	bic.w	r2, r2, #256	; 0x100
 80032ea:	601a      	str	r2, [r3, #0]
 80032ec:	687b      	ldr	r3, [r7, #4]
 80032ee:	6d9b      	ldr	r3, [r3, #88]	; 0x58
 80032f0:	687a      	ldr	r2, [r7, #4]
 80032f2:	6dd2      	ldr	r2, [r2, #92]	; 0x5c
 80032f4:	605a      	str	r2, [r3, #4]
 80032f6:	687b      	ldr	r3, [r7, #4]
 80032f8:	2201      	movs	r2, #1
 80032fa:	f883 2025 	strb.w	r2, [r3, #37]	; 0x25
 80032fe:	687b      	ldr	r3, [r7, #4]
 8003300:	2200      	movs	r2, #0
 8003302:	f883 2024 	strb.w	r2, [r3, #36]	; 0x24
 8003306:	7bfb      	ldrb	r3, [r7, #15]
 8003308:	4618      	mov	r0, r3
 800330a:	3714      	adds	r7, #20
 800330c:	46bd      	mov	sp, r7
 800330e:	f85d 7b04 	ldr.w	r7, [sp], #4
 8003312:	4770      	bx	lr

08003314 <HAL_DMA_Abort_IT>:
 8003314:	b580      	push	{r7, lr}
 8003316:	b084      	sub	sp, #16
 8003318:	af00      	add	r7, sp, #0
 800331a:	6078      	str	r0, [r7, #4]
 800331c:	2300      	movs	r3, #0
 800331e:	73fb      	strb	r3, [r7, #15]
 8003320:	687b      	ldr	r3, [r7, #4]
 8003322:	f893 3025 	ldrb.w	r3, [r3, #37]	; 0x25
 8003326:	b2db      	uxtb	r3, r3
 8003328:	2b02      	cmp	r3, #2
 800332a:	d00d      	beq.n	8003348 <HAL_DMA_Abort_IT+0x34>
 800332c:	687b      	ldr	r3, [r7, #4]
 800332e:	2204      	movs	r2, #4
 8003330:	63da      	str	r2, [r3, #60]	; 0x3c
 8003332:	687b      	ldr	r3, [r7, #4]
 8003334:	2201      	movs	r2, #1
 8003336:	f883 2025 	strb.w	r2, [r3, #37]	; 0x25
 800333a:	687b      	ldr	r3, [r7, #4]
 800333c:	2200      	movs	r2, #0
 800333e:	f883 2024 	strb.w	r2, [r3, #36]	; 0x24
 8003342:	2301      	movs	r3, #1
 8003344:	73fb      	strb	r3, [r7, #15]
 8003346:	e047      	b.n	80033d8 <HAL_DMA_Abort_IT+0xc4>
 8003348:	687b      	ldr	r3, [r7, #4]
 800334a:	681b      	ldr	r3, [r3, #0]
 800334c:	681a      	ldr	r2, [r3, #0]
 800334e:	687b      	ldr	r3, [r7, #4]
 8003350:	681b      	ldr	r3, [r3, #0]
 8003352:	f022 020e 	bic.w	r2, r2, #14
 8003356:	601a      	str	r2, [r3, #0]
 8003358:	687b      	ldr	r3, [r7, #4]
 800335a:	681b      	ldr	r3, [r3, #0]
 800335c:	681a      	ldr	r2, [r3, #0]
 800335e:	687b      	ldr	r3, [r7, #4]
 8003360:	681b      	ldr	r3, [r3, #0]
 8003362:	f022 0201 	bic.w	r2, r2, #1
 8003366:	601a      	str	r2, [r3, #0]
 8003368:	687b      	ldr	r3, [r7, #4]
 800336a:	6c9b      	ldr	r3, [r3, #72]	; 0x48
 800336c:	681a      	ldr	r2, [r3, #0]
 800336e:	687b      	ldr	r3, [r7, #4]
 8003370:	6c9b      	ldr	r3, [r3, #72]	; 0x48
 8003372:	f422 7280 	bic.w	r2, r2, #256	; 0x100
 8003376:	601a      	str	r2, [r3, #0]
 8003378:	687b      	ldr	r3, [r7, #4]
 800337a:	6c5b      	ldr	r3, [r3, #68]	; 0x44
 800337c:	f003 021f 	and.w	r2, r3, #31
 8003380:	687b      	ldr	r3, [r7, #4]
 8003382:	6c1b      	ldr	r3, [r3, #64]	; 0x40
 8003384:	2101      	movs	r1, #1
 8003386:	fa01 f202 	lsl.w	r2, r1, r2
 800338a:	605a      	str	r2, [r3, #4]
 800338c:	687b      	ldr	r3, [r7, #4]
 800338e:	6cdb      	ldr	r3, [r3, #76]	; 0x4c
 8003390:	687a      	ldr	r2, [r7, #4]
 8003392:	6d12      	ldr	r2, [r2, #80]	; 0x50
 8003394:	605a      	str	r2, [r3, #4]
 8003396:	687b      	ldr	r3, [r7, #4]
 8003398:	6d5b      	ldr	r3, [r3, #84]	; 0x54
 800339a:	2b00      	cmp	r3, #0
 800339c:	d00c      	beq.n	80033b8 <HAL_DMA_Abort_IT+0xa4>
 800339e:	687b      	ldr	r3, [r7, #4]
 80033a0:	6d5b      	ldr	r3, [r3, #84]	; 0x54
 80033a2:	681a      	ldr	r2, [r3, #0]
 80033a4:	687b      	ldr	r3, [r7, #4]
 80033a6:	6d5b      	ldr	r3, [r3, #84]	; 0x54
 80033a8:	f422 7280 	bic.w	r2, r2, #256	; 0x100
 80033ac:	601a      	str	r2, [r3, #0]
 80033ae:	687b      	ldr	r3, [r7, #4]
 80033b0:	6d9b      	ldr	r3, [r3, #88]	; 0x58
 80033b2:	687a      	ldr	r2, [r7, #4]
 80033b4:	6dd2      	ldr	r2, [r2, #92]	; 0x5c
 80033b6:	605a      	str	r2, [r3, #4]
 80033b8:	687b      	ldr	r3, [r7, #4]
 80033ba:	2201      	movs	r2, #1
 80033bc:	f883 2025 	strb.w	r2, [r3, #37]	; 0x25
 80033c0:	687b      	ldr	r3, [r7, #4]
 80033c2:	2200      	movs	r2, #0
 80033c4:	f883 2024 	strb.w	r2, [r3, #36]	; 0x24
 80033c8:	687b      	ldr	r3, [r7, #4]
 80033ca:	6b9b      	ldr	r3, [r3, #56]	; 0x38
 80033cc:	2b00      	cmp	r3, #0
 80033ce:	d003      	beq.n	80033d8 <HAL_DMA_Abort_IT+0xc4>
 80033d0:	687b      	ldr	r3, [r7, #4]
 80033d2:	6b9b      	ldr	r3, [r3, #56]	; 0x38
 80033d4:	6878      	ldr	r0, [r7, #4]
 80033d6:	4798      	blx	r3
 80033d8:	7bfb      	ldrb	r3, [r7, #15]
 80033da:	4618      	mov	r0, r3
 80033dc:	3710      	adds	r7, #16
 80033de:	46bd      	mov	sp, r7
 80033e0:	bd80      	pop	{r7, pc}
	...

080033e4 <HAL_FLASH_Program>:
 80033e4:	b580      	push	{r7, lr}
 80033e6:	b086      	sub	sp, #24
 80033e8:	af00      	add	r7, sp, #0
 80033ea:	60f8      	str	r0, [r7, #12]
 80033ec:	60b9      	str	r1, [r7, #8]
 80033ee:	e9c7 2300 	strd	r2, r3, [r7]
 80033f2:	2300      	movs	r3, #0
 80033f4:	613b      	str	r3, [r7, #16]
 80033f6:	4b2f      	ldr	r3, [pc, #188]	; (80034b4 <HAL_FLASH_Program+0xd0>)
 80033f8:	781b      	ldrb	r3, [r3, #0]
 80033fa:	2b01      	cmp	r3, #1
 80033fc:	d101      	bne.n	8003402 <HAL_FLASH_Program+0x1e>
 80033fe:	2302      	movs	r3, #2
 8003400:	e053      	b.n	80034aa <HAL_FLASH_Program+0xc6>
 8003402:	4b2c      	ldr	r3, [pc, #176]	; (80034b4 <HAL_FLASH_Program+0xd0>)
 8003404:	2201      	movs	r2, #1
 8003406:	701a      	strb	r2, [r3, #0]
 8003408:	f44f 707a 	mov.w	r0, #1000	; 0x3e8
 800340c:	f000 f892 	bl	8003534 <FLASH_WaitForLastOperation>
 8003410:	4603      	mov	r3, r0
 8003412:	75fb      	strb	r3, [r7, #23]
 8003414:	7dfb      	ldrb	r3, [r7, #23]
 8003416:	2b00      	cmp	r3, #0
 8003418:	d143      	bne.n	80034a2 <HAL_FLASH_Program+0xbe>
 800341a:	4b26      	ldr	r3, [pc, #152]	; (80034b4 <HAL_FLASH_Program+0xd0>)
 800341c:	2200      	movs	r2, #0
 800341e:	605a      	str	r2, [r3, #4]
 8003420:	4b25      	ldr	r3, [pc, #148]	; (80034b8 <HAL_FLASH_Program+0xd4>)
 8003422:	681b      	ldr	r3, [r3, #0]
 8003424:	f403 6380 	and.w	r3, r3, #1024	; 0x400
 8003428:	2b00      	cmp	r3, #0
 800342a:	d009      	beq.n	8003440 <HAL_FLASH_Program+0x5c>
 800342c:	4b22      	ldr	r3, [pc, #136]	; (80034b8 <HAL_FLASH_Program+0xd4>)
 800342e:	681b      	ldr	r3, [r3, #0]
 8003430:	4a21      	ldr	r2, [pc, #132]	; (80034b8 <HAL_FLASH_Program+0xd4>)
 8003432:	f423 6380 	bic.w	r3, r3, #1024	; 0x400
 8003436:	6013      	str	r3, [r2, #0]
 8003438:	4b1e      	ldr	r3, [pc, #120]	; (80034b4 <HAL_FLASH_Program+0xd0>)
 800343a:	2202      	movs	r2, #2
 800343c:	771a      	strb	r2, [r3, #28]
 800343e:	e002      	b.n	8003446 <HAL_FLASH_Program+0x62>
 8003440:	4b1c      	ldr	r3, [pc, #112]	; (80034b4 <HAL_FLASH_Program+0xd0>)
 8003442:	2200      	movs	r2, #0
 8003444:	771a      	strb	r2, [r3, #28]
 8003446:	68fb      	ldr	r3, [r7, #12]
 8003448:	2b00      	cmp	r3, #0
 800344a:	d107      	bne.n	800345c <HAL_FLASH_Program+0x78>
 800344c:	e9d7 2300 	ldrd	r2, r3, [r7]
 8003450:	68b8      	ldr	r0, [r7, #8]
 8003452:	f000 f8c3 	bl	80035dc <FLASH_Program_DoubleWord>
 8003456:	2301      	movs	r3, #1
 8003458:	613b      	str	r3, [r7, #16]
 800345a:	e010      	b.n	800347e <HAL_FLASH_Program+0x9a>
 800345c:	68fb      	ldr	r3, [r7, #12]
 800345e:	2b01      	cmp	r3, #1
 8003460:	d002      	beq.n	8003468 <HAL_FLASH_Program+0x84>
 8003462:	68fb      	ldr	r3, [r7, #12]
 8003464:	2b02      	cmp	r3, #2
 8003466:	d10a      	bne.n	800347e <HAL_FLASH_Program+0x9a>
 8003468:	683b      	ldr	r3, [r7, #0]
 800346a:	4619      	mov	r1, r3
 800346c:	68b8      	ldr	r0, [r7, #8]
 800346e:	f000 f8db 	bl	8003628 <FLASH_Program_Fast>
 8003472:	68fb      	ldr	r3, [r7, #12]
 8003474:	2b02      	cmp	r3, #2
 8003476:	d102      	bne.n	800347e <HAL_FLASH_Program+0x9a>
 8003478:	f44f 2380 	mov.w	r3, #262144	; 0x40000
 800347c:	613b      	str	r3, [r7, #16]
 800347e:	f44f 707a 	mov.w	r0, #1000	; 0x3e8
 8003482:	f000 f857 	bl	8003534 <FLASH_WaitForLastOperation>
 8003486:	4603      	mov	r3, r0
 8003488:	75fb      	strb	r3, [r7, #23]
 800348a:	693b      	ldr	r3, [r7, #16]
 800348c:	2b00      	cmp	r3, #0
 800348e:	d006      	beq.n	800349e <HAL_FLASH_Program+0xba>
 8003490:	4b09      	ldr	r3, [pc, #36]	; (80034b8 <HAL_FLASH_Program+0xd4>)
 8003492:	695a      	ldr	r2, [r3, #20]
 8003494:	693b      	ldr	r3, [r7, #16]
 8003496:	43db      	mvns	r3, r3
 8003498:	4907      	ldr	r1, [pc, #28]	; (80034b8 <HAL_FLASH_Program+0xd4>)
 800349a:	4013      	ands	r3, r2
 800349c:	614b      	str	r3, [r1, #20]
 800349e:	f000 f9d3 	bl	8003848 <FLASH_FlushCaches>
 80034a2:	4b04      	ldr	r3, [pc, #16]	; (80034b4 <HAL_FLASH_Program+0xd0>)
 80034a4:	2200      	movs	r2, #0
 80034a6:	701a      	strb	r2, [r3, #0]
 80034a8:	7dfb      	ldrb	r3, [r7, #23]
 80034aa:	4618      	mov	r0, r3
 80034ac:	3718      	adds	r7, #24
 80034ae:	46bd      	mov	sp, r7
 80034b0:	bd80      	pop	{r7, pc}
 80034b2:	bf00      	nop
 80034b4:	20000014 	.word	0x20000014
 80034b8:	40022000 	.word	0x40022000

080034bc <HAL_FLASH_Unlock>:
 80034bc:	b480      	push	{r7}
 80034be:	b083      	sub	sp, #12
 80034c0:	af00      	add	r7, sp, #0
 80034c2:	2300      	movs	r3, #0
 80034c4:	71fb      	strb	r3, [r7, #7]
 80034c6:	4b0b      	ldr	r3, [pc, #44]	; (80034f4 <HAL_FLASH_Unlock+0x38>)
 80034c8:	695b      	ldr	r3, [r3, #20]
 80034ca:	2b00      	cmp	r3, #0
 80034cc:	da0b      	bge.n	80034e6 <HAL_FLASH_Unlock+0x2a>
 80034ce:	4b09      	ldr	r3, [pc, #36]	; (80034f4 <HAL_FLASH_Unlock+0x38>)
 80034d0:	4a09      	ldr	r2, [pc, #36]	; (80034f8 <HAL_FLASH_Unlock+0x3c>)
 80034d2:	609a      	str	r2, [r3, #8]
 80034d4:	4b07      	ldr	r3, [pc, #28]	; (80034f4 <HAL_FLASH_Unlock+0x38>)
 80034d6:	4a09      	ldr	r2, [pc, #36]	; (80034fc <HAL_FLASH_Unlock+0x40>)
 80034d8:	609a      	str	r2, [r3, #8]
 80034da:	4b06      	ldr	r3, [pc, #24]	; (80034f4 <HAL_FLASH_Unlock+0x38>)
 80034dc:	695b      	ldr	r3, [r3, #20]
 80034de:	2b00      	cmp	r3, #0
 80034e0:	da01      	bge.n	80034e6 <HAL_FLASH_Unlock+0x2a>
 80034e2:	2301      	movs	r3, #1
 80034e4:	71fb      	strb	r3, [r7, #7]
 80034e6:	79fb      	ldrb	r3, [r7, #7]
 80034e8:	4618      	mov	r0, r3
 80034ea:	370c      	adds	r7, #12
 80034ec:	46bd      	mov	sp, r7
 80034ee:	f85d 7b04 	ldr.w	r7, [sp], #4
 80034f2:	4770      	bx	lr
 80034f4:	40022000 	.word	0x40022000
 80034f8:	45670123 	.word	0x45670123
 80034fc:	cdef89ab 	.word	0xcdef89ab

08003500 <HAL_FLASH_Lock>:
 8003500:	b480      	push	{r7}
 8003502:	b083      	sub	sp, #12
 8003504:	af00      	add	r7, sp, #0
 8003506:	2301      	movs	r3, #1
 8003508:	71fb      	strb	r3, [r7, #7]
 800350a:	4b09      	ldr	r3, [pc, #36]	; (8003530 <HAL_FLASH_Lock+0x30>)
 800350c:	695b      	ldr	r3, [r3, #20]
 800350e:	4a08      	ldr	r2, [pc, #32]	; (8003530 <HAL_FLASH_Lock+0x30>)
 8003510:	f043 4300 	orr.w	r3, r3, #2147483648	; 0x80000000
 8003514:	6153      	str	r3, [r2, #20]
 8003516:	4b06      	ldr	r3, [pc, #24]	; (8003530 <HAL_FLASH_Lock+0x30>)
 8003518:	695b      	ldr	r3, [r3, #20]
 800351a:	2b00      	cmp	r3, #0
 800351c:	da01      	bge.n	8003522 <HAL_FLASH_Lock+0x22>
 800351e:	2300      	movs	r3, #0
 8003520:	71fb      	strb	r3, [r7, #7]
 8003522:	79fb      	ldrb	r3, [r7, #7]
 8003524:	4618      	mov	r0, r3
 8003526:	370c      	adds	r7, #12
 8003528:	46bd      	mov	sp, r7
 800352a:	f85d 7b04 	ldr.w	r7, [sp], #4
 800352e:	4770      	bx	lr
 8003530:	40022000 	.word	0x40022000

08003534 <FLASH_WaitForLastOperation>:
 8003534:	b580      	push	{r7, lr}
 8003536:	b084      	sub	sp, #16
 8003538:	af00      	add	r7, sp, #0
 800353a:	6078      	str	r0, [r7, #4]
 800353c:	f7ff fd54 	bl	8002fe8 <HAL_GetTick>
 8003540:	60f8      	str	r0, [r7, #12]
 8003542:	e009      	b.n	8003558 <FLASH_WaitForLastOperation+0x24>
 8003544:	f7ff fd50 	bl	8002fe8 <HAL_GetTick>
 8003548:	4602      	mov	r2, r0
 800354a:	68fb      	ldr	r3, [r7, #12]
 800354c:	1ad3      	subs	r3, r2, r3
 800354e:	687a      	ldr	r2, [r7, #4]
 8003550:	429a      	cmp	r2, r3
 8003552:	d201      	bcs.n	8003558 <FLASH_WaitForLastOperation+0x24>
 8003554:	2303      	movs	r3, #3
 8003556:	e038      	b.n	80035ca <FLASH_WaitForLastOperation+0x96>
 8003558:	4b1e      	ldr	r3, [pc, #120]	; (80035d4 <FLASH_WaitForLastOperation+0xa0>)
 800355a:	691b      	ldr	r3, [r3, #16]
 800355c:	f403 3380 	and.w	r3, r3, #65536	; 0x10000
 8003560:	f5b3 3f80 	cmp.w	r3, #65536	; 0x10000
 8003564:	d0ee      	beq.n	8003544 <FLASH_WaitForLastOperation+0x10>
 8003566:	4b1b      	ldr	r3, [pc, #108]	; (80035d4 <FLASH_WaitForLastOperation+0xa0>)
 8003568:	691a      	ldr	r2, [r3, #16]
 800356a:	f24c 33fa 	movw	r3, #50170	; 0xc3fa
 800356e:	4013      	ands	r3, r2
 8003570:	60bb      	str	r3, [r7, #8]
 8003572:	68bb      	ldr	r3, [r7, #8]
 8003574:	2b00      	cmp	r3, #0
 8003576:	d01e      	beq.n	80035b6 <FLASH_WaitForLastOperation+0x82>
 8003578:	4b17      	ldr	r3, [pc, #92]	; (80035d8 <FLASH_WaitForLastOperation+0xa4>)
 800357a:	685a      	ldr	r2, [r3, #4]
 800357c:	68bb      	ldr	r3, [r7, #8]
 800357e:	4313      	orrs	r3, r2
 8003580:	4a15      	ldr	r2, [pc, #84]	; (80035d8 <FLASH_WaitForLastOperation+0xa4>)
 8003582:	6053      	str	r3, [r2, #4]
 8003584:	68bb      	ldr	r3, [r7, #8]
 8003586:	f003 4340 	and.w	r3, r3, #3221225472	; 0xc0000000
 800358a:	2b00      	cmp	r3, #0
 800358c:	d007      	beq.n	800359e <FLASH_WaitForLastOperation+0x6a>
 800358e:	4b11      	ldr	r3, [pc, #68]	; (80035d4 <FLASH_WaitForLastOperation+0xa0>)
 8003590:	699a      	ldr	r2, [r3, #24]
 8003592:	68bb      	ldr	r3, [r7, #8]
 8003594:	f003 4340 	and.w	r3, r3, #3221225472	; 0xc0000000
 8003598:	490e      	ldr	r1, [pc, #56]	; (80035d4 <FLASH_WaitForLastOperation+0xa0>)
 800359a:	4313      	orrs	r3, r2
 800359c:	618b      	str	r3, [r1, #24]
 800359e:	68bb      	ldr	r3, [r7, #8]
 80035a0:	f023 4340 	bic.w	r3, r3, #3221225472	; 0xc0000000
 80035a4:	2b00      	cmp	r3, #0
 80035a6:	d004      	beq.n	80035b2 <FLASH_WaitForLastOperation+0x7e>
 80035a8:	4a0a      	ldr	r2, [pc, #40]	; (80035d4 <FLASH_WaitForLastOperation+0xa0>)
 80035aa:	68bb      	ldr	r3, [r7, #8]
 80035ac:	f023 4340 	bic.w	r3, r3, #3221225472	; 0xc0000000
 80035b0:	6113      	str	r3, [r2, #16]
 80035b2:	2301      	movs	r3, #1
 80035b4:	e009      	b.n	80035ca <FLASH_WaitForLastOperation+0x96>
 80035b6:	4b07      	ldr	r3, [pc, #28]	; (80035d4 <FLASH_WaitForLastOperation+0xa0>)
 80035b8:	691b      	ldr	r3, [r3, #16]
 80035ba:	f003 0301 	and.w	r3, r3, #1
 80035be:	2b01      	cmp	r3, #1
 80035c0:	d102      	bne.n	80035c8 <FLASH_WaitForLastOperation+0x94>
 80035c2:	4b04      	ldr	r3, [pc, #16]	; (80035d4 <FLASH_WaitForLastOperation+0xa0>)
 80035c4:	2201      	movs	r2, #1
 80035c6:	611a      	str	r2, [r3, #16]
 80035c8:	2300      	movs	r3, #0
 80035ca:	4618      	mov	r0, r3
 80035cc:	3710      	adds	r7, #16
 80035ce:	46bd      	mov	sp, r7
 80035d0:	bd80      	pop	{r7, pc}
 80035d2:	bf00      	nop
 80035d4:	40022000 	.word	0x40022000
 80035d8:	20000014 	.word	0x20000014

080035dc <FLASH_Program_DoubleWord>:
 80035dc:	b480      	push	{r7}
 80035de:	b085      	sub	sp, #20
 80035e0:	af00      	add	r7, sp, #0
 80035e2:	60f8      	str	r0, [r7, #12]
 80035e4:	e9c7 2300 	strd	r2, r3, [r7]
 80035e8:	4b0e      	ldr	r3, [pc, #56]	; (8003624 <FLASH_Program_DoubleWord+0x48>)
 80035ea:	695b      	ldr	r3, [r3, #20]
 80035ec:	4a0d      	ldr	r2, [pc, #52]	; (8003624 <FLASH_Program_DoubleWord+0x48>)
 80035ee:	f043 0301 	orr.w	r3, r3, #1
 80035f2:	6153      	str	r3, [r2, #20]
 80035f4:	68fb      	ldr	r3, [r7, #12]
 80035f6:	683a      	ldr	r2, [r7, #0]
 80035f8:	601a      	str	r2, [r3, #0]
 80035fa:	f3bf 8f6f 	isb	sy
 80035fe:	bf00      	nop
 8003600:	e9d7 0100 	ldrd	r0, r1, [r7]
 8003604:	f04f 0200 	mov.w	r2, #0
 8003608:	f04f 0300 	mov.w	r3, #0
 800360c:	000a      	movs	r2, r1
 800360e:	2300      	movs	r3, #0
 8003610:	68f9      	ldr	r1, [r7, #12]
 8003612:	3104      	adds	r1, #4
 8003614:	4613      	mov	r3, r2
 8003616:	600b      	str	r3, [r1, #0]
 8003618:	bf00      	nop
 800361a:	3714      	adds	r7, #20
 800361c:	46bd      	mov	sp, r7
 800361e:	f85d 7b04 	ldr.w	r7, [sp], #4
 8003622:	4770      	bx	lr
 8003624:	40022000 	.word	0x40022000

08003628 <FLASH_Program_Fast>:
 8003628:	b480      	push	{r7}
 800362a:	b089      	sub	sp, #36	; 0x24
 800362c:	af00      	add	r7, sp, #0
 800362e:	6078      	str	r0, [r7, #4]
 8003630:	6039      	str	r1, [r7, #0]
 8003632:	2340      	movs	r3, #64	; 0x40
 8003634:	77fb      	strb	r3, [r7, #31]
 8003636:	687b      	ldr	r3, [r7, #4]
 8003638:	61bb      	str	r3, [r7, #24]
 800363a:	683b      	ldr	r3, [r7, #0]
 800363c:	617b      	str	r3, [r7, #20]
 800363e:	4b14      	ldr	r3, [pc, #80]	; (8003690 <FLASH_Program_Fast+0x68>)
 8003640:	695b      	ldr	r3, [r3, #20]
 8003642:	4a13      	ldr	r2, [pc, #76]	; (8003690 <FLASH_Program_Fast+0x68>)
 8003644:	f443 2380 	orr.w	r3, r3, #262144	; 0x40000
 8003648:	6153      	str	r3, [r2, #20]
 800364a:	f3ef 8310 	mrs	r3, PRIMASK
 800364e:	60fb      	str	r3, [r7, #12]
 8003650:	68fb      	ldr	r3, [r7, #12]
 8003652:	613b      	str	r3, [r7, #16]
 8003654:	b672      	cpsid	i
 8003656:	bf00      	nop
 8003658:	697b      	ldr	r3, [r7, #20]
 800365a:	681a      	ldr	r2, [r3, #0]
 800365c:	69bb      	ldr	r3, [r7, #24]
 800365e:	601a      	str	r2, [r3, #0]
 8003660:	69bb      	ldr	r3, [r7, #24]
 8003662:	3304      	adds	r3, #4
 8003664:	61bb      	str	r3, [r7, #24]
 8003666:	697b      	ldr	r3, [r7, #20]
 8003668:	3304      	adds	r3, #4
 800366a:	617b      	str	r3, [r7, #20]
 800366c:	7ffb      	ldrb	r3, [r7, #31]
 800366e:	3b01      	subs	r3, #1
 8003670:	77fb      	strb	r3, [r7, #31]
 8003672:	7ffb      	ldrb	r3, [r7, #31]
 8003674:	2b00      	cmp	r3, #0
 8003676:	d1ef      	bne.n	8003658 <FLASH_Program_Fast+0x30>
 8003678:	693b      	ldr	r3, [r7, #16]
 800367a:	60bb      	str	r3, [r7, #8]
 800367c:	68bb      	ldr	r3, [r7, #8]
 800367e:	f383 8810 	msr	PRIMASK, r3
 8003682:	bf00      	nop
 8003684:	bf00      	nop
 8003686:	3724      	adds	r7, #36	; 0x24
 8003688:	46bd      	mov	sp, r7
 800368a:	f85d 7b04 	ldr.w	r7, [sp], #4
 800368e:	4770      	bx	lr
 8003690:	40022000 	.word	0x40022000

08003694 <HAL_FLASHEx_Erase>:
 8003694:	b580      	push	{r7, lr}
 8003696:	b084      	sub	sp, #16
 8003698:	af00      	add	r7, sp, #0
 800369a:	6078      	str	r0, [r7, #4]
 800369c:	6039      	str	r1, [r7, #0]
 800369e:	4b47      	ldr	r3, [pc, #284]	; (80037bc <HAL_FLASHEx_Erase+0x128>)
 80036a0:	781b      	ldrb	r3, [r3, #0]
 80036a2:	2b01      	cmp	r3, #1
 80036a4:	d101      	bne.n	80036aa <HAL_FLASHEx_Erase+0x16>
 80036a6:	2302      	movs	r3, #2
 80036a8:	e083      	b.n	80037b2 <HAL_FLASHEx_Erase+0x11e>
 80036aa:	4b44      	ldr	r3, [pc, #272]	; (80037bc <HAL_FLASHEx_Erase+0x128>)
 80036ac:	2201      	movs	r2, #1
 80036ae:	701a      	strb	r2, [r3, #0]
 80036b0:	f44f 707a 	mov.w	r0, #1000	; 0x3e8
 80036b4:	f7ff ff3e 	bl	8003534 <FLASH_WaitForLastOperation>
 80036b8:	4603      	mov	r3, r0
 80036ba:	73fb      	strb	r3, [r7, #15]
 80036bc:	7bfb      	ldrb	r3, [r7, #15]
 80036be:	2b00      	cmp	r3, #0
 80036c0:	d173      	bne.n	80037aa <HAL_FLASHEx_Erase+0x116>
 80036c2:	4b3e      	ldr	r3, [pc, #248]	; (80037bc <HAL_FLASHEx_Erase+0x128>)
 80036c4:	2200      	movs	r2, #0
 80036c6:	605a      	str	r2, [r3, #4]
 80036c8:	4b3d      	ldr	r3, [pc, #244]	; (80037c0 <HAL_FLASHEx_Erase+0x12c>)
 80036ca:	681b      	ldr	r3, [r3, #0]
 80036cc:	f403 7300 	and.w	r3, r3, #512	; 0x200
 80036d0:	2b00      	cmp	r3, #0
 80036d2:	d013      	beq.n	80036fc <HAL_FLASHEx_Erase+0x68>
 80036d4:	4b3a      	ldr	r3, [pc, #232]	; (80037c0 <HAL_FLASHEx_Erase+0x12c>)
 80036d6:	681b      	ldr	r3, [r3, #0]
 80036d8:	f403 6380 	and.w	r3, r3, #1024	; 0x400
 80036dc:	2b00      	cmp	r3, #0
 80036de:	d009      	beq.n	80036f4 <HAL_FLASHEx_Erase+0x60>
 80036e0:	4b37      	ldr	r3, [pc, #220]	; (80037c0 <HAL_FLASHEx_Erase+0x12c>)
 80036e2:	681b      	ldr	r3, [r3, #0]
 80036e4:	4a36      	ldr	r2, [pc, #216]	; (80037c0 <HAL_FLASHEx_Erase+0x12c>)
 80036e6:	f423 6380 	bic.w	r3, r3, #1024	; 0x400
 80036ea:	6013      	str	r3, [r2, #0]
 80036ec:	4b33      	ldr	r3, [pc, #204]	; (80037bc <HAL_FLASHEx_Erase+0x128>)
 80036ee:	2203      	movs	r2, #3
 80036f0:	771a      	strb	r2, [r3, #28]
 80036f2:	e016      	b.n	8003722 <HAL_FLASHEx_Erase+0x8e>
 80036f4:	4b31      	ldr	r3, [pc, #196]	; (80037bc <HAL_FLASHEx_Erase+0x128>)
 80036f6:	2201      	movs	r2, #1
 80036f8:	771a      	strb	r2, [r3, #28]
 80036fa:	e012      	b.n	8003722 <HAL_FLASHEx_Erase+0x8e>
 80036fc:	4b30      	ldr	r3, [pc, #192]	; (80037c0 <HAL_FLASHEx_Erase+0x12c>)
 80036fe:	681b      	ldr	r3, [r3, #0]
 8003700:	f403 6380 	and.w	r3, r3, #1024	; 0x400
 8003704:	2b00      	cmp	r3, #0
 8003706:	d009      	beq.n	800371c <HAL_FLASHEx_Erase+0x88>
 8003708:	4b2d      	ldr	r3, [pc, #180]	; (80037c0 <HAL_FLASHEx_Erase+0x12c>)
 800370a:	681b      	ldr	r3, [r3, #0]
 800370c:	4a2c      	ldr	r2, [pc, #176]	; (80037c0 <HAL_FLASHEx_Erase+0x12c>)
 800370e:	f423 6380 	bic.w	r3, r3, #1024	; 0x400
 8003712:	6013      	str	r3, [r2, #0]
 8003714:	4b29      	ldr	r3, [pc, #164]	; (80037bc <HAL_FLASHEx_Erase+0x128>)
 8003716:	2202      	movs	r2, #2
 8003718:	771a      	strb	r2, [r3, #28]
 800371a:	e002      	b.n	8003722 <HAL_FLASHEx_Erase+0x8e>
 800371c:	4b27      	ldr	r3, [pc, #156]	; (80037bc <HAL_FLASHEx_Erase+0x128>)
 800371e:	2200      	movs	r2, #0
 8003720:	771a      	strb	r2, [r3, #28]
 8003722:	687b      	ldr	r3, [r7, #4]
 8003724:	681b      	ldr	r3, [r3, #0]
 8003726:	2b01      	cmp	r3, #1
 8003728:	d111      	bne.n	800374e <HAL_FLASHEx_Erase+0xba>
 800372a:	687b      	ldr	r3, [r7, #4]
 800372c:	685b      	ldr	r3, [r3, #4]
 800372e:	4618      	mov	r0, r3
 8003730:	f000 f848 	bl	80037c4 <FLASH_MassErase>
 8003734:	f44f 707a 	mov.w	r0, #1000	; 0x3e8
 8003738:	f7ff fefc 	bl	8003534 <FLASH_WaitForLastOperation>
 800373c:	4603      	mov	r3, r0
 800373e:	73fb      	strb	r3, [r7, #15]
 8003740:	4b1f      	ldr	r3, [pc, #124]	; (80037c0 <HAL_FLASHEx_Erase+0x12c>)
 8003742:	695b      	ldr	r3, [r3, #20]
 8003744:	4a1e      	ldr	r2, [pc, #120]	; (80037c0 <HAL_FLASHEx_Erase+0x12c>)
 8003746:	f023 0304 	bic.w	r3, r3, #4
 800374a:	6153      	str	r3, [r2, #20]
 800374c:	e02b      	b.n	80037a6 <HAL_FLASHEx_Erase+0x112>
 800374e:	683b      	ldr	r3, [r7, #0]
 8003750:	f04f 32ff 	mov.w	r2, #4294967295
 8003754:	601a      	str	r2, [r3, #0]
 8003756:	687b      	ldr	r3, [r7, #4]
 8003758:	689b      	ldr	r3, [r3, #8]
 800375a:	60bb      	str	r3, [r7, #8]
 800375c:	e01b      	b.n	8003796 <HAL_FLASHEx_Erase+0x102>
 800375e:	687b      	ldr	r3, [r7, #4]
 8003760:	685b      	ldr	r3, [r3, #4]
 8003762:	4619      	mov	r1, r3
 8003764:	68b8      	ldr	r0, [r7, #8]
 8003766:	f000 f84b 	bl	8003800 <FLASH_PageErase>
 800376a:	f44f 707a 	mov.w	r0, #1000	; 0x3e8
 800376e:	f7ff fee1 	bl	8003534 <FLASH_WaitForLastOperation>
 8003772:	4603      	mov	r3, r0
 8003774:	73fb      	strb	r3, [r7, #15]
 8003776:	4b12      	ldr	r3, [pc, #72]	; (80037c0 <HAL_FLASHEx_Erase+0x12c>)
 8003778:	695b      	ldr	r3, [r3, #20]
 800377a:	4a11      	ldr	r2, [pc, #68]	; (80037c0 <HAL_FLASHEx_Erase+0x12c>)
 800377c:	f423 73fd 	bic.w	r3, r3, #506	; 0x1fa
 8003780:	6153      	str	r3, [r2, #20]
 8003782:	7bfb      	ldrb	r3, [r7, #15]
 8003784:	2b00      	cmp	r3, #0
 8003786:	d003      	beq.n	8003790 <HAL_FLASHEx_Erase+0xfc>
 8003788:	683b      	ldr	r3, [r7, #0]
 800378a:	68ba      	ldr	r2, [r7, #8]
 800378c:	601a      	str	r2, [r3, #0]
 800378e:	e00a      	b.n	80037a6 <HAL_FLASHEx_Erase+0x112>
 8003790:	68bb      	ldr	r3, [r7, #8]
 8003792:	3301      	adds	r3, #1
 8003794:	60bb      	str	r3, [r7, #8]
 8003796:	687b      	ldr	r3, [r7, #4]
 8003798:	689a      	ldr	r2, [r3, #8]
 800379a:	687b      	ldr	r3, [r7, #4]
 800379c:	68db      	ldr	r3, [r3, #12]
 800379e:	4413      	add	r3, r2
 80037a0:	68ba      	ldr	r2, [r7, #8]
 80037a2:	429a      	cmp	r2, r3
 80037a4:	d3db      	bcc.n	800375e <HAL_FLASHEx_Erase+0xca>
 80037a6:	f000 f84f 	bl	8003848 <FLASH_FlushCaches>
 80037aa:	4b04      	ldr	r3, [pc, #16]	; (80037bc <HAL_FLASHEx_Erase+0x128>)
 80037ac:	2200      	movs	r2, #0
 80037ae:	701a      	strb	r2, [r3, #0]
 80037b0:	7bfb      	ldrb	r3, [r7, #15]
 80037b2:	4618      	mov	r0, r3
 80037b4:	3710      	adds	r7, #16
 80037b6:	46bd      	mov	sp, r7
 80037b8:	bd80      	pop	{r7, pc}
 80037ba:	bf00      	nop
 80037bc:	20000014 	.word	0x20000014
 80037c0:	40022000 	.word	0x40022000

080037c4 <FLASH_MassErase>:
 80037c4:	b480      	push	{r7}
 80037c6:	b083      	sub	sp, #12
 80037c8:	af00      	add	r7, sp, #0
 80037ca:	6078      	str	r0, [r7, #4]
 80037cc:	687b      	ldr	r3, [r7, #4]
 80037ce:	f003 0301 	and.w	r3, r3, #1
 80037d2:	2b00      	cmp	r3, #0
 80037d4:	d005      	beq.n	80037e2 <FLASH_MassErase+0x1e>
 80037d6:	4b09      	ldr	r3, [pc, #36]	; (80037fc <FLASH_MassErase+0x38>)
 80037d8:	695b      	ldr	r3, [r3, #20]
 80037da:	4a08      	ldr	r2, [pc, #32]	; (80037fc <FLASH_MassErase+0x38>)
 80037dc:	f043 0304 	orr.w	r3, r3, #4
 80037e0:	6153      	str	r3, [r2, #20]
 80037e2:	4b06      	ldr	r3, [pc, #24]	; (80037fc <FLASH_MassErase+0x38>)
 80037e4:	695b      	ldr	r3, [r3, #20]
 80037e6:	4a05      	ldr	r2, [pc, #20]	; (80037fc <FLASH_MassErase+0x38>)
 80037e8:	f443 3380 	orr.w	r3, r3, #65536	; 0x10000
 80037ec:	6153      	str	r3, [r2, #20]
 80037ee:	bf00      	nop
 80037f0:	370c      	adds	r7, #12
 80037f2:	46bd      	mov	sp, r7
 80037f4:	f85d 7b04 	ldr.w	r7, [sp], #4
 80037f8:	4770      	bx	lr
 80037fa:	bf00      	nop
 80037fc:	40022000 	.word	0x40022000

08003800 <FLASH_PageErase>:
 8003800:	b480      	push	{r7}
 8003802:	b083      	sub	sp, #12
 8003804:	af00      	add	r7, sp, #0
 8003806:	6078      	str	r0, [r7, #4]
 8003808:	6039      	str	r1, [r7, #0]
 800380a:	4b0e      	ldr	r3, [pc, #56]	; (8003844 <FLASH_PageErase+0x44>)
 800380c:	695b      	ldr	r3, [r3, #20]
 800380e:	f423 72fc 	bic.w	r2, r3, #504	; 0x1f8
 8003812:	687b      	ldr	r3, [r7, #4]
 8003814:	00db      	lsls	r3, r3, #3
 8003816:	f403 63ff 	and.w	r3, r3, #2040	; 0x7f8
 800381a:	490a      	ldr	r1, [pc, #40]	; (8003844 <FLASH_PageErase+0x44>)
 800381c:	4313      	orrs	r3, r2
 800381e:	614b      	str	r3, [r1, #20]
 8003820:	4b08      	ldr	r3, [pc, #32]	; (8003844 <FLASH_PageErase+0x44>)
 8003822:	695b      	ldr	r3, [r3, #20]
 8003824:	4a07      	ldr	r2, [pc, #28]	; (8003844 <FLASH_PageErase+0x44>)
 8003826:	f043 0302 	orr.w	r3, r3, #2
 800382a:	6153      	str	r3, [r2, #20]
 800382c:	4b05      	ldr	r3, [pc, #20]	; (8003844 <FLASH_PageErase+0x44>)
 800382e:	695b      	ldr	r3, [r3, #20]
 8003830:	4a04      	ldr	r2, [pc, #16]	; (8003844 <FLASH_PageErase+0x44>)
 8003832:	f443 3380 	orr.w	r3, r3, #65536	; 0x10000
 8003836:	6153      	str	r3, [r2, #20]
 8003838:	bf00      	nop
 800383a:	370c      	adds	r7, #12
 800383c:	46bd      	mov	sp, r7
 800383e:	f85d 7b04 	ldr.w	r7, [sp], #4
 8003842:	4770      	bx	lr
 8003844:	40022000 	.word	0x40022000

08003848 <FLASH_FlushCaches>:
 8003848:	b480      	push	{r7}
 800384a:	b083      	sub	sp, #12
 800384c:	af00      	add	r7, sp, #0
 800384e:	4b21      	ldr	r3, [pc, #132]	; (80038d4 <FLASH_FlushCaches+0x8c>)
 8003850:	7f1b      	ldrb	r3, [r3, #28]
 8003852:	71fb      	strb	r3, [r7, #7]
 8003854:	79fb      	ldrb	r3, [r7, #7]
 8003856:	2b01      	cmp	r3, #1
 8003858:	d002      	beq.n	8003860 <FLASH_FlushCaches+0x18>
 800385a:	79fb      	ldrb	r3, [r7, #7]
 800385c:	2b03      	cmp	r3, #3
 800385e:	d117      	bne.n	8003890 <FLASH_FlushCaches+0x48>
 8003860:	4b1d      	ldr	r3, [pc, #116]	; (80038d8 <FLASH_FlushCaches+0x90>)
 8003862:	681b      	ldr	r3, [r3, #0]
 8003864:	4a1c      	ldr	r2, [pc, #112]	; (80038d8 <FLASH_FlushCaches+0x90>)
 8003866:	f423 7300 	bic.w	r3, r3, #512	; 0x200
 800386a:	6013      	str	r3, [r2, #0]
 800386c:	4b1a      	ldr	r3, [pc, #104]	; (80038d8 <FLASH_FlushCaches+0x90>)
 800386e:	681b      	ldr	r3, [r3, #0]
 8003870:	4a19      	ldr	r2, [pc, #100]	; (80038d8 <FLASH_FlushCaches+0x90>)
 8003872:	f443 6300 	orr.w	r3, r3, #2048	; 0x800
 8003876:	6013      	str	r3, [r2, #0]
 8003878:	4b17      	ldr	r3, [pc, #92]	; (80038d8 <FLASH_FlushCaches+0x90>)
 800387a:	681b      	ldr	r3, [r3, #0]
 800387c:	4a16      	ldr	r2, [pc, #88]	; (80038d8 <FLASH_FlushCaches+0x90>)
 800387e:	f423 6300 	bic.w	r3, r3, #2048	; 0x800
 8003882:	6013      	str	r3, [r2, #0]
 8003884:	4b14      	ldr	r3, [pc, #80]	; (80038d8 <FLASH_FlushCaches+0x90>)
 8003886:	681b      	ldr	r3, [r3, #0]
 8003888:	4a13      	ldr	r2, [pc, #76]	; (80038d8 <FLASH_FlushCaches+0x90>)
 800388a:	f443 7300 	orr.w	r3, r3, #512	; 0x200
 800388e:	6013      	str	r3, [r2, #0]
 8003890:	79fb      	ldrb	r3, [r7, #7]
 8003892:	2b02      	cmp	r3, #2
 8003894:	d002      	beq.n	800389c <FLASH_FlushCaches+0x54>
 8003896:	79fb      	ldrb	r3, [r7, #7]
 8003898:	2b03      	cmp	r3, #3
 800389a:	d111      	bne.n	80038c0 <FLASH_FlushCaches+0x78>
 800389c:	4b0e      	ldr	r3, [pc, #56]	; (80038d8 <FLASH_FlushCaches+0x90>)
 800389e:	681b      	ldr	r3, [r3, #0]
 80038a0:	4a0d      	ldr	r2, [pc, #52]	; (80038d8 <FLASH_FlushCaches+0x90>)
 80038a2:	f443 5380 	orr.w	r3, r3, #4096	; 0x1000
 80038a6:	6013      	str	r3, [r2, #0]
 80038a8:	4b0b      	ldr	r3, [pc, #44]	; (80038d8 <FLASH_FlushCaches+0x90>)
 80038aa:	681b      	ldr	r3, [r3, #0]
 80038ac:	4a0a      	ldr	r2, [pc, #40]	; (80038d8 <FLASH_FlushCaches+0x90>)
 80038ae:	f423 5380 	bic.w	r3, r3, #4096	; 0x1000
 80038b2:	6013      	str	r3, [r2, #0]
 80038b4:	4b08      	ldr	r3, [pc, #32]	; (80038d8 <FLASH_FlushCaches+0x90>)
 80038b6:	681b      	ldr	r3, [r3, #0]
 80038b8:	4a07      	ldr	r2, [pc, #28]	; (80038d8 <FLASH_FlushCaches+0x90>)
 80038ba:	f443 6380 	orr.w	r3, r3, #1024	; 0x400
 80038be:	6013      	str	r3, [r2, #0]
 80038c0:	4b04      	ldr	r3, [pc, #16]	; (80038d4 <FLASH_FlushCaches+0x8c>)
 80038c2:	2200      	movs	r2, #0
 80038c4:	771a      	strb	r2, [r3, #28]
 80038c6:	bf00      	nop
 80038c8:	370c      	adds	r7, #12
 80038ca:	46bd      	mov	sp, r7
 80038cc:	f85d 7b04 	ldr.w	r7, [sp], #4
 80038d0:	4770      	bx	lr
 80038d2:	bf00      	nop
 80038d4:	20000014 	.word	0x20000014
 80038d8:	40022000 	.word	0x40022000

080038dc <HAL_GPIO_Init>:
 80038dc:	b480      	push	{r7}
 80038de:	b087      	sub	sp, #28
 80038e0:	af00      	add	r7, sp, #0
 80038e2:	6078      	str	r0, [r7, #4]
 80038e4:	6039      	str	r1, [r7, #0]
 80038e6:	2300      	movs	r3, #0
 80038e8:	617b      	str	r3, [r7, #20]
 80038ea:	e15a      	b.n	8003ba2 <HAL_GPIO_Init+0x2c6>
 80038ec:	683b      	ldr	r3, [r7, #0]
 80038ee:	681a      	ldr	r2, [r3, #0]
 80038f0:	2101      	movs	r1, #1
 80038f2:	697b      	ldr	r3, [r7, #20]
 80038f4:	fa01 f303 	lsl.w	r3, r1, r3
 80038f8:	4013      	ands	r3, r2
 80038fa:	60fb      	str	r3, [r7, #12]
 80038fc:	68fb      	ldr	r3, [r7, #12]
 80038fe:	2b00      	cmp	r3, #0
 8003900:	f000 814c 	beq.w	8003b9c <HAL_GPIO_Init+0x2c0>
 8003904:	683b      	ldr	r3, [r7, #0]
 8003906:	685b      	ldr	r3, [r3, #4]
 8003908:	f003 0303 	and.w	r3, r3, #3
 800390c:	2b01      	cmp	r3, #1
 800390e:	d005      	beq.n	800391c <HAL_GPIO_Init+0x40>
 8003910:	683b      	ldr	r3, [r7, #0]
 8003912:	685b      	ldr	r3, [r3, #4]
 8003914:	f003 0303 	and.w	r3, r3, #3
 8003918:	2b02      	cmp	r3, #2
 800391a:	d130      	bne.n	800397e <HAL_GPIO_Init+0xa2>
 800391c:	687b      	ldr	r3, [r7, #4]
 800391e:	689b      	ldr	r3, [r3, #8]
 8003920:	613b      	str	r3, [r7, #16]
 8003922:	697b      	ldr	r3, [r7, #20]
 8003924:	005b      	lsls	r3, r3, #1
 8003926:	2203      	movs	r2, #3
 8003928:	fa02 f303 	lsl.w	r3, r2, r3
 800392c:	43db      	mvns	r3, r3
 800392e:	693a      	ldr	r2, [r7, #16]
 8003930:	4013      	ands	r3, r2
 8003932:	613b      	str	r3, [r7, #16]
 8003934:	683b      	ldr	r3, [r7, #0]
 8003936:	68da      	ldr	r2, [r3, #12]
 8003938:	697b      	ldr	r3, [r7, #20]
 800393a:	005b      	lsls	r3, r3, #1
 800393c:	fa02 f303 	lsl.w	r3, r2, r3
 8003940:	693a      	ldr	r2, [r7, #16]
 8003942:	4313      	orrs	r3, r2
 8003944:	613b      	str	r3, [r7, #16]
 8003946:	687b      	ldr	r3, [r7, #4]
 8003948:	693a      	ldr	r2, [r7, #16]
 800394a:	609a      	str	r2, [r3, #8]
 800394c:	687b      	ldr	r3, [r7, #4]
 800394e:	685b      	ldr	r3, [r3, #4]
 8003950:	613b      	str	r3, [r7, #16]
 8003952:	2201      	movs	r2, #1
 8003954:	697b      	ldr	r3, [r7, #20]
 8003956:	fa02 f303 	lsl.w	r3, r2, r3
 800395a:	43db      	mvns	r3, r3
 800395c:	693a      	ldr	r2, [r7, #16]
 800395e:	4013      	ands	r3, r2
 8003960:	613b      	str	r3, [r7, #16]
 8003962:	683b      	ldr	r3, [r7, #0]
 8003964:	685b      	ldr	r3, [r3, #4]
 8003966:	091b      	lsrs	r3, r3, #4
 8003968:	f003 0201 	and.w	r2, r3, #1
 800396c:	697b      	ldr	r3, [r7, #20]
 800396e:	fa02 f303 	lsl.w	r3, r2, r3
 8003972:	693a      	ldr	r2, [r7, #16]
 8003974:	4313      	orrs	r3, r2
 8003976:	613b      	str	r3, [r7, #16]
 8003978:	687b      	ldr	r3, [r7, #4]
 800397a:	693a      	ldr	r2, [r7, #16]
 800397c:	605a      	str	r2, [r3, #4]
 800397e:	683b      	ldr	r3, [r7, #0]
 8003980:	685b      	ldr	r3, [r3, #4]
 8003982:	f003 0303 	and.w	r3, r3, #3
 8003986:	2b03      	cmp	r3, #3
 8003988:	d017      	beq.n	80039ba <HAL_GPIO_Init+0xde>
 800398a:	687b      	ldr	r3, [r7, #4]
 800398c:	68db      	ldr	r3, [r3, #12]
 800398e:	613b      	str	r3, [r7, #16]
 8003990:	697b      	ldr	r3, [r7, #20]
 8003992:	005b      	lsls	r3, r3, #1
 8003994:	2203      	movs	r2, #3
 8003996:	fa02 f303 	lsl.w	r3, r2, r3
 800399a:	43db      	mvns	r3, r3
 800399c:	693a      	ldr	r2, [r7, #16]
 800399e:	4013      	ands	r3, r2
 80039a0:	613b      	str	r3, [r7, #16]
 80039a2:	683b      	ldr	r3, [r7, #0]
 80039a4:	689a      	ldr	r2, [r3, #8]
 80039a6:	697b      	ldr	r3, [r7, #20]
 80039a8:	005b      	lsls	r3, r3, #1
 80039aa:	fa02 f303 	lsl.w	r3, r2, r3
 80039ae:	693a      	ldr	r2, [r7, #16]
 80039b0:	4313      	orrs	r3, r2
 80039b2:	613b      	str	r3, [r7, #16]
 80039b4:	687b      	ldr	r3, [r7, #4]
 80039b6:	693a      	ldr	r2, [r7, #16]
 80039b8:	60da      	str	r2, [r3, #12]
 80039ba:	683b      	ldr	r3, [r7, #0]
 80039bc:	685b      	ldr	r3, [r3, #4]
 80039be:	f003 0303 	and.w	r3, r3, #3
 80039c2:	2b02      	cmp	r3, #2
 80039c4:	d123      	bne.n	8003a0e <HAL_GPIO_Init+0x132>
 80039c6:	697b      	ldr	r3, [r7, #20]
 80039c8:	08da      	lsrs	r2, r3, #3
 80039ca:	687b      	ldr	r3, [r7, #4]
 80039cc:	3208      	adds	r2, #8
 80039ce:	f853 3022 	ldr.w	r3, [r3, r2, lsl #2]
 80039d2:	613b      	str	r3, [r7, #16]
 80039d4:	697b      	ldr	r3, [r7, #20]
 80039d6:	f003 0307 	and.w	r3, r3, #7
 80039da:	009b      	lsls	r3, r3, #2
 80039dc:	220f      	movs	r2, #15
 80039de:	fa02 f303 	lsl.w	r3, r2, r3
 80039e2:	43db      	mvns	r3, r3
 80039e4:	693a      	ldr	r2, [r7, #16]
 80039e6:	4013      	ands	r3, r2
 80039e8:	613b      	str	r3, [r7, #16]
 80039ea:	683b      	ldr	r3, [r7, #0]
 80039ec:	691a      	ldr	r2, [r3, #16]
 80039ee:	697b      	ldr	r3, [r7, #20]
 80039f0:	f003 0307 	and.w	r3, r3, #7
 80039f4:	009b      	lsls	r3, r3, #2
 80039f6:	fa02 f303 	lsl.w	r3, r2, r3
 80039fa:	693a      	ldr	r2, [r7, #16]
 80039fc:	4313      	orrs	r3, r2
 80039fe:	613b      	str	r3, [r7, #16]
 8003a00:	697b      	ldr	r3, [r7, #20]
 8003a02:	08da      	lsrs	r2, r3, #3
 8003a04:	687b      	ldr	r3, [r7, #4]
 8003a06:	3208      	adds	r2, #8
 8003a08:	6939      	ldr	r1, [r7, #16]
 8003a0a:	f843 1022 	str.w	r1, [r3, r2, lsl #2]
 8003a0e:	687b      	ldr	r3, [r7, #4]
 8003a10:	681b      	ldr	r3, [r3, #0]
 8003a12:	613b      	str	r3, [r7, #16]
 8003a14:	697b      	ldr	r3, [r7, #20]
 8003a16:	005b      	lsls	r3, r3, #1
 8003a18:	2203      	movs	r2, #3
 8003a1a:	fa02 f303 	lsl.w	r3, r2, r3
 8003a1e:	43db      	mvns	r3, r3
 8003a20:	693a      	ldr	r2, [r7, #16]
 8003a22:	4013      	ands	r3, r2
 8003a24:	613b      	str	r3, [r7, #16]
 8003a26:	683b      	ldr	r3, [r7, #0]
 8003a28:	685b      	ldr	r3, [r3, #4]
 8003a2a:	f003 0203 	and.w	r2, r3, #3
 8003a2e:	697b      	ldr	r3, [r7, #20]
 8003a30:	005b      	lsls	r3, r3, #1
 8003a32:	fa02 f303 	lsl.w	r3, r2, r3
 8003a36:	693a      	ldr	r2, [r7, #16]
 8003a38:	4313      	orrs	r3, r2
 8003a3a:	613b      	str	r3, [r7, #16]
 8003a3c:	687b      	ldr	r3, [r7, #4]
 8003a3e:	693a      	ldr	r2, [r7, #16]
 8003a40:	601a      	str	r2, [r3, #0]
 8003a42:	683b      	ldr	r3, [r7, #0]
 8003a44:	685b      	ldr	r3, [r3, #4]
 8003a46:	f403 3340 	and.w	r3, r3, #196608	; 0x30000
 8003a4a:	2b00      	cmp	r3, #0
 8003a4c:	f000 80a6 	beq.w	8003b9c <HAL_GPIO_Init+0x2c0>
 8003a50:	4b5b      	ldr	r3, [pc, #364]	; (8003bc0 <HAL_GPIO_Init+0x2e4>)
 8003a52:	6e1b      	ldr	r3, [r3, #96]	; 0x60
 8003a54:	4a5a      	ldr	r2, [pc, #360]	; (8003bc0 <HAL_GPIO_Init+0x2e4>)
 8003a56:	f043 0301 	orr.w	r3, r3, #1
 8003a5a:	6613      	str	r3, [r2, #96]	; 0x60
 8003a5c:	4b58      	ldr	r3, [pc, #352]	; (8003bc0 <HAL_GPIO_Init+0x2e4>)
 8003a5e:	6e1b      	ldr	r3, [r3, #96]	; 0x60
 8003a60:	f003 0301 	and.w	r3, r3, #1
 8003a64:	60bb      	str	r3, [r7, #8]
 8003a66:	68bb      	ldr	r3, [r7, #8]
 8003a68:	4a56      	ldr	r2, [pc, #344]	; (8003bc4 <HAL_GPIO_Init+0x2e8>)
 8003a6a:	697b      	ldr	r3, [r7, #20]
 8003a6c:	089b      	lsrs	r3, r3, #2
 8003a6e:	3302      	adds	r3, #2
 8003a70:	f852 3023 	ldr.w	r3, [r2, r3, lsl #2]
 8003a74:	613b      	str	r3, [r7, #16]
 8003a76:	697b      	ldr	r3, [r7, #20]
 8003a78:	f003 0303 	and.w	r3, r3, #3
 8003a7c:	009b      	lsls	r3, r3, #2
 8003a7e:	220f      	movs	r2, #15
 8003a80:	fa02 f303 	lsl.w	r3, r2, r3
 8003a84:	43db      	mvns	r3, r3
 8003a86:	693a      	ldr	r2, [r7, #16]
 8003a88:	4013      	ands	r3, r2
 8003a8a:	613b      	str	r3, [r7, #16]
 8003a8c:	687b      	ldr	r3, [r7, #4]
 8003a8e:	f1b3 4f90 	cmp.w	r3, #1207959552	; 0x48000000
 8003a92:	d01f      	beq.n	8003ad4 <HAL_GPIO_Init+0x1f8>
 8003a94:	687b      	ldr	r3, [r7, #4]
 8003a96:	4a4c      	ldr	r2, [pc, #304]	; (8003bc8 <HAL_GPIO_Init+0x2ec>)
 8003a98:	4293      	cmp	r3, r2
 8003a9a:	d019      	beq.n	8003ad0 <HAL_GPIO_Init+0x1f4>
 8003a9c:	687b      	ldr	r3, [r7, #4]
 8003a9e:	4a4b      	ldr	r2, [pc, #300]	; (8003bcc <HAL_GPIO_Init+0x2f0>)
 8003aa0:	4293      	cmp	r3, r2
 8003aa2:	d013      	beq.n	8003acc <HAL_GPIO_Init+0x1f0>
 8003aa4:	687b      	ldr	r3, [r7, #4]
 8003aa6:	4a4a      	ldr	r2, [pc, #296]	; (8003bd0 <HAL_GPIO_Init+0x2f4>)
 8003aa8:	4293      	cmp	r3, r2
 8003aaa:	d00d      	beq.n	8003ac8 <HAL_GPIO_Init+0x1ec>
 8003aac:	687b      	ldr	r3, [r7, #4]
 8003aae:	4a49      	ldr	r2, [pc, #292]	; (8003bd4 <HAL_GPIO_Init+0x2f8>)
 8003ab0:	4293      	cmp	r3, r2
 8003ab2:	d007      	beq.n	8003ac4 <HAL_GPIO_Init+0x1e8>
 8003ab4:	687b      	ldr	r3, [r7, #4]
 8003ab6:	4a48      	ldr	r2, [pc, #288]	; (8003bd8 <HAL_GPIO_Init+0x2fc>)
 8003ab8:	4293      	cmp	r3, r2
 8003aba:	d101      	bne.n	8003ac0 <HAL_GPIO_Init+0x1e4>
 8003abc:	2305      	movs	r3, #5
 8003abe:	e00a      	b.n	8003ad6 <HAL_GPIO_Init+0x1fa>
 8003ac0:	2306      	movs	r3, #6
 8003ac2:	e008      	b.n	8003ad6 <HAL_GPIO_Init+0x1fa>
 8003ac4:	2304      	movs	r3, #4
 8003ac6:	e006      	b.n	8003ad6 <HAL_GPIO_Init+0x1fa>
 8003ac8:	2303      	movs	r3, #3
 8003aca:	e004      	b.n	8003ad6 <HAL_GPIO_Init+0x1fa>
 8003acc:	2302      	movs	r3, #2
 8003ace:	e002      	b.n	8003ad6 <HAL_GPIO_Init+0x1fa>
 8003ad0:	2301      	movs	r3, #1
 8003ad2:	e000      	b.n	8003ad6 <HAL_GPIO_Init+0x1fa>
 8003ad4:	2300      	movs	r3, #0
 8003ad6:	697a      	ldr	r2, [r7, #20]
 8003ad8:	f002 0203 	and.w	r2, r2, #3
 8003adc:	0092      	lsls	r2, r2, #2
 8003ade:	4093      	lsls	r3, r2
 8003ae0:	693a      	ldr	r2, [r7, #16]
 8003ae2:	4313      	orrs	r3, r2
 8003ae4:	613b      	str	r3, [r7, #16]
 8003ae6:	4937      	ldr	r1, [pc, #220]	; (8003bc4 <HAL_GPIO_Init+0x2e8>)
 8003ae8:	697b      	ldr	r3, [r7, #20]
 8003aea:	089b      	lsrs	r3, r3, #2
 8003aec:	3302      	adds	r3, #2
 8003aee:	693a      	ldr	r2, [r7, #16]
 8003af0:	f841 2023 	str.w	r2, [r1, r3, lsl #2]
 8003af4:	4b39      	ldr	r3, [pc, #228]	; (8003bdc <HAL_GPIO_Init+0x300>)
 8003af6:	689b      	ldr	r3, [r3, #8]
 8003af8:	613b      	str	r3, [r7, #16]
 8003afa:	68fb      	ldr	r3, [r7, #12]
 8003afc:	43db      	mvns	r3, r3
 8003afe:	693a      	ldr	r2, [r7, #16]
 8003b00:	4013      	ands	r3, r2
 8003b02:	613b      	str	r3, [r7, #16]
 8003b04:	683b      	ldr	r3, [r7, #0]
 8003b06:	685b      	ldr	r3, [r3, #4]
 8003b08:	f403 1380 	and.w	r3, r3, #1048576	; 0x100000
 8003b0c:	2b00      	cmp	r3, #0
 8003b0e:	d003      	beq.n	8003b18 <HAL_GPIO_Init+0x23c>
 8003b10:	693a      	ldr	r2, [r7, #16]
 8003b12:	68fb      	ldr	r3, [r7, #12]
 8003b14:	4313      	orrs	r3, r2
 8003b16:	613b      	str	r3, [r7, #16]
 8003b18:	4a30      	ldr	r2, [pc, #192]	; (8003bdc <HAL_GPIO_Init+0x300>)
 8003b1a:	693b      	ldr	r3, [r7, #16]
 8003b1c:	6093      	str	r3, [r2, #8]
 8003b1e:	4b2f      	ldr	r3, [pc, #188]	; (8003bdc <HAL_GPIO_Init+0x300>)
 8003b20:	68db      	ldr	r3, [r3, #12]
 8003b22:	613b      	str	r3, [r7, #16]
 8003b24:	68fb      	ldr	r3, [r7, #12]
 8003b26:	43db      	mvns	r3, r3
 8003b28:	693a      	ldr	r2, [r7, #16]
 8003b2a:	4013      	ands	r3, r2
 8003b2c:	613b      	str	r3, [r7, #16]
 8003b2e:	683b      	ldr	r3, [r7, #0]
 8003b30:	685b      	ldr	r3, [r3, #4]
 8003b32:	f403 1300 	and.w	r3, r3, #2097152	; 0x200000
 8003b36:	2b00      	cmp	r3, #0
 8003b38:	d003      	beq.n	8003b42 <HAL_GPIO_Init+0x266>
 8003b3a:	693a      	ldr	r2, [r7, #16]
 8003b3c:	68fb      	ldr	r3, [r7, #12]
 8003b3e:	4313      	orrs	r3, r2
 8003b40:	613b      	str	r3, [r7, #16]
 8003b42:	4a26      	ldr	r2, [pc, #152]	; (8003bdc <HAL_GPIO_Init+0x300>)
 8003b44:	693b      	ldr	r3, [r7, #16]
 8003b46:	60d3      	str	r3, [r2, #12]
 8003b48:	4b24      	ldr	r3, [pc, #144]	; (8003bdc <HAL_GPIO_Init+0x300>)
 8003b4a:	685b      	ldr	r3, [r3, #4]
 8003b4c:	613b      	str	r3, [r7, #16]
 8003b4e:	68fb      	ldr	r3, [r7, #12]
 8003b50:	43db      	mvns	r3, r3
 8003b52:	693a      	ldr	r2, [r7, #16]
 8003b54:	4013      	ands	r3, r2
 8003b56:	613b      	str	r3, [r7, #16]
 8003b58:	683b      	ldr	r3, [r7, #0]
 8003b5a:	685b      	ldr	r3, [r3, #4]
 8003b5c:	f403 3300 	and.w	r3, r3, #131072	; 0x20000
 8003b60:	2b00      	cmp	r3, #0
 8003b62:	d003      	beq.n	8003b6c <HAL_GPIO_Init+0x290>
 8003b64:	693a      	ldr	r2, [r7, #16]
 8003b66:	68fb      	ldr	r3, [r7, #12]
 8003b68:	4313      	orrs	r3, r2
 8003b6a:	613b      	str	r3, [r7, #16]
 8003b6c:	4a1b      	ldr	r2, [pc, #108]	; (8003bdc <HAL_GPIO_Init+0x300>)
 8003b6e:	693b      	ldr	r3, [r7, #16]
 8003b70:	6053      	str	r3, [r2, #4]
 8003b72:	4b1a      	ldr	r3, [pc, #104]	; (8003bdc <HAL_GPIO_Init+0x300>)
 8003b74:	681b      	ldr	r3, [r3, #0]
 8003b76:	613b      	str	r3, [r7, #16]
 8003b78:	68fb      	ldr	r3, [r7, #12]
 8003b7a:	43db      	mvns	r3, r3
 8003b7c:	693a      	ldr	r2, [r7, #16]
 8003b7e:	4013      	ands	r3, r2
 8003b80:	613b      	str	r3, [r7, #16]
 8003b82:	683b      	ldr	r3, [r7, #0]
 8003b84:	685b      	ldr	r3, [r3, #4]
 8003b86:	f403 3380 	and.w	r3, r3, #65536	; 0x10000
 8003b8a:	2b00      	cmp	r3, #0
 8003b8c:	d003      	beq.n	8003b96 <HAL_GPIO_Init+0x2ba>
 8003b8e:	693a      	ldr	r2, [r7, #16]
 8003b90:	68fb      	ldr	r3, [r7, #12]
 8003b92:	4313      	orrs	r3, r2
 8003b94:	613b      	str	r3, [r7, #16]
 8003b96:	4a11      	ldr	r2, [pc, #68]	; (8003bdc <HAL_GPIO_Init+0x300>)
 8003b98:	693b      	ldr	r3, [r7, #16]
 8003b9a:	6013      	str	r3, [r2, #0]
 8003b9c:	697b      	ldr	r3, [r7, #20]
 8003b9e:	3301      	adds	r3, #1
 8003ba0:	617b      	str	r3, [r7, #20]
 8003ba2:	683b      	ldr	r3, [r7, #0]
 8003ba4:	681a      	ldr	r2, [r3, #0]
 8003ba6:	697b      	ldr	r3, [r7, #20]
 8003ba8:	fa22 f303 	lsr.w	r3, r2, r3
 8003bac:	2b00      	cmp	r3, #0
 8003bae:	f47f ae9d 	bne.w	80038ec <HAL_GPIO_Init+0x10>
 8003bb2:	bf00      	nop
 8003bb4:	bf00      	nop
 8003bb6:	371c      	adds	r7, #28
 8003bb8:	46bd      	mov	sp, r7
 8003bba:	f85d 7b04 	ldr.w	r7, [sp], #4
 8003bbe:	4770      	bx	lr
 8003bc0:	40021000 	.word	0x40021000
 8003bc4:	40010000 	.word	0x40010000
 8003bc8:	48000400 	.word	0x48000400
 8003bcc:	48000800 	.word	0x48000800
 8003bd0:	48000c00 	.word	0x48000c00
 8003bd4:	48001000 	.word	0x48001000
 8003bd8:	48001400 	.word	0x48001400
 8003bdc:	40010400 	.word	0x40010400

08003be0 <HAL_GPIO_WritePin>:
 8003be0:	b480      	push	{r7}
 8003be2:	b083      	sub	sp, #12
 8003be4:	af00      	add	r7, sp, #0
 8003be6:	6078      	str	r0, [r7, #4]
 8003be8:	460b      	mov	r3, r1
 8003bea:	807b      	strh	r3, [r7, #2]
 8003bec:	4613      	mov	r3, r2
 8003bee:	707b      	strb	r3, [r7, #1]
 8003bf0:	787b      	ldrb	r3, [r7, #1]
 8003bf2:	2b00      	cmp	r3, #0
 8003bf4:	d003      	beq.n	8003bfe <HAL_GPIO_WritePin+0x1e>
 8003bf6:	887a      	ldrh	r2, [r7, #2]
 8003bf8:	687b      	ldr	r3, [r7, #4]
 8003bfa:	619a      	str	r2, [r3, #24]
 8003bfc:	e002      	b.n	8003c04 <HAL_GPIO_WritePin+0x24>
 8003bfe:	887a      	ldrh	r2, [r7, #2]
 8003c00:	687b      	ldr	r3, [r7, #4]
 8003c02:	629a      	str	r2, [r3, #40]	; 0x28
 8003c04:	bf00      	nop
 8003c06:	370c      	adds	r7, #12
 8003c08:	46bd      	mov	sp, r7
 8003c0a:	f85d 7b04 	ldr.w	r7, [sp], #4
 8003c0e:	4770      	bx	lr

08003c10 <HAL_PCD_Init>:
 8003c10:	b580      	push	{r7, lr}
 8003c12:	b084      	sub	sp, #16
 8003c14:	af00      	add	r7, sp, #0
 8003c16:	6078      	str	r0, [r7, #4]
 8003c18:	687b      	ldr	r3, [r7, #4]
 8003c1a:	2b00      	cmp	r3, #0
 8003c1c:	d101      	bne.n	8003c22 <HAL_PCD_Init+0x12>
 8003c1e:	2301      	movs	r3, #1
 8003c20:	e0c0      	b.n	8003da4 <HAL_PCD_Init+0x194>
 8003c22:	687b      	ldr	r3, [r7, #4]
 8003c24:	f893 3291 	ldrb.w	r3, [r3, #657]	; 0x291
 8003c28:	b2db      	uxtb	r3, r3
 8003c2a:	2b00      	cmp	r3, #0
 8003c2c:	d106      	bne.n	8003c3c <HAL_PCD_Init+0x2c>
 8003c2e:	687b      	ldr	r3, [r7, #4]
 8003c30:	2200      	movs	r2, #0
 8003c32:	f883 2290 	strb.w	r2, [r3, #656]	; 0x290
 8003c36:	6878      	ldr	r0, [r7, #4]
 8003c38:	f008 ff78 	bl	800cb2c <HAL_PCD_MspInit>
 8003c3c:	687b      	ldr	r3, [r7, #4]
 8003c3e:	2203      	movs	r2, #3
 8003c40:	f883 2291 	strb.w	r2, [r3, #657]	; 0x291
 8003c44:	687b      	ldr	r3, [r7, #4]
 8003c46:	681b      	ldr	r3, [r3, #0]
 8003c48:	4618      	mov	r0, r3
 8003c4a:	f004 fe16 	bl	800887a <USB_DisableGlobalInt>
 8003c4e:	2300      	movs	r3, #0
 8003c50:	73fb      	strb	r3, [r7, #15]
 8003c52:	e03e      	b.n	8003cd2 <HAL_PCD_Init+0xc2>
 8003c54:	7bfa      	ldrb	r2, [r7, #15]
 8003c56:	6879      	ldr	r1, [r7, #4]
 8003c58:	4613      	mov	r3, r2
 8003c5a:	009b      	lsls	r3, r3, #2
 8003c5c:	4413      	add	r3, r2
 8003c5e:	00db      	lsls	r3, r3, #3
 8003c60:	440b      	add	r3, r1
 8003c62:	3311      	adds	r3, #17
 8003c64:	2201      	movs	r2, #1
 8003c66:	701a      	strb	r2, [r3, #0]
 8003c68:	7bfa      	ldrb	r2, [r7, #15]
 8003c6a:	6879      	ldr	r1, [r7, #4]
 8003c6c:	4613      	mov	r3, r2
 8003c6e:	009b      	lsls	r3, r3, #2
 8003c70:	4413      	add	r3, r2
 8003c72:	00db      	lsls	r3, r3, #3
 8003c74:	440b      	add	r3, r1
 8003c76:	3310      	adds	r3, #16
 8003c78:	7bfa      	ldrb	r2, [r7, #15]
 8003c7a:	701a      	strb	r2, [r3, #0]
 8003c7c:	7bfa      	ldrb	r2, [r7, #15]
 8003c7e:	6879      	ldr	r1, [r7, #4]
 8003c80:	4613      	mov	r3, r2
 8003c82:	009b      	lsls	r3, r3, #2
 8003c84:	4413      	add	r3, r2
 8003c86:	00db      	lsls	r3, r3, #3
 8003c88:	440b      	add	r3, r1
 8003c8a:	3313      	adds	r3, #19
 8003c8c:	2200      	movs	r2, #0
 8003c8e:	701a      	strb	r2, [r3, #0]
 8003c90:	7bfa      	ldrb	r2, [r7, #15]
 8003c92:	6879      	ldr	r1, [r7, #4]
 8003c94:	4613      	mov	r3, r2
 8003c96:	009b      	lsls	r3, r3, #2
 8003c98:	4413      	add	r3, r2
 8003c9a:	00db      	lsls	r3, r3, #3
 8003c9c:	440b      	add	r3, r1
 8003c9e:	3320      	adds	r3, #32
 8003ca0:	2200      	movs	r2, #0
 8003ca2:	601a      	str	r2, [r3, #0]
 8003ca4:	7bfa      	ldrb	r2, [r7, #15]
 8003ca6:	6879      	ldr	r1, [r7, #4]
 8003ca8:	4613      	mov	r3, r2
 8003caa:	009b      	lsls	r3, r3, #2
 8003cac:	4413      	add	r3, r2
 8003cae:	00db      	lsls	r3, r3, #3
 8003cb0:	440b      	add	r3, r1
 8003cb2:	3324      	adds	r3, #36	; 0x24
 8003cb4:	2200      	movs	r2, #0
 8003cb6:	601a      	str	r2, [r3, #0]
 8003cb8:	7bfb      	ldrb	r3, [r7, #15]
 8003cba:	6879      	ldr	r1, [r7, #4]
 8003cbc:	1c5a      	adds	r2, r3, #1
 8003cbe:	4613      	mov	r3, r2
 8003cc0:	009b      	lsls	r3, r3, #2
 8003cc2:	4413      	add	r3, r2
 8003cc4:	00db      	lsls	r3, r3, #3
 8003cc6:	440b      	add	r3, r1
 8003cc8:	2200      	movs	r2, #0
 8003cca:	601a      	str	r2, [r3, #0]
 8003ccc:	7bfb      	ldrb	r3, [r7, #15]
 8003cce:	3301      	adds	r3, #1
 8003cd0:	73fb      	strb	r3, [r7, #15]
 8003cd2:	687b      	ldr	r3, [r7, #4]
 8003cd4:	791b      	ldrb	r3, [r3, #4]
 8003cd6:	7bfa      	ldrb	r2, [r7, #15]
 8003cd8:	429a      	cmp	r2, r3
 8003cda:	d3bb      	bcc.n	8003c54 <HAL_PCD_Init+0x44>
 8003cdc:	2300      	movs	r3, #0
 8003cde:	73fb      	strb	r3, [r7, #15]
 8003ce0:	e044      	b.n	8003d6c <HAL_PCD_Init+0x15c>
 8003ce2:	7bfa      	ldrb	r2, [r7, #15]
 8003ce4:	6879      	ldr	r1, [r7, #4]
 8003ce6:	4613      	mov	r3, r2
 8003ce8:	009b      	lsls	r3, r3, #2
 8003cea:	4413      	add	r3, r2
 8003cec:	00db      	lsls	r3, r3, #3
 8003cee:	440b      	add	r3, r1
 8003cf0:	f203 1351 	addw	r3, r3, #337	; 0x151
 8003cf4:	2200      	movs	r2, #0
 8003cf6:	701a      	strb	r2, [r3, #0]
 8003cf8:	7bfa      	ldrb	r2, [r7, #15]
 8003cfa:	6879      	ldr	r1, [r7, #4]
 8003cfc:	4613      	mov	r3, r2
 8003cfe:	009b      	lsls	r3, r3, #2
 8003d00:	4413      	add	r3, r2
 8003d02:	00db      	lsls	r3, r3, #3
 8003d04:	440b      	add	r3, r1
 8003d06:	f503 73a8 	add.w	r3, r3, #336	; 0x150
 8003d0a:	7bfa      	ldrb	r2, [r7, #15]
 8003d0c:	701a      	strb	r2, [r3, #0]
 8003d0e:	7bfa      	ldrb	r2, [r7, #15]
 8003d10:	6879      	ldr	r1, [r7, #4]
 8003d12:	4613      	mov	r3, r2
 8003d14:	009b      	lsls	r3, r3, #2
 8003d16:	4413      	add	r3, r2
 8003d18:	00db      	lsls	r3, r3, #3
 8003d1a:	440b      	add	r3, r1
 8003d1c:	f203 1353 	addw	r3, r3, #339	; 0x153
 8003d20:	2200      	movs	r2, #0
 8003d22:	701a      	strb	r2, [r3, #0]
 8003d24:	7bfa      	ldrb	r2, [r7, #15]
 8003d26:	6879      	ldr	r1, [r7, #4]
 8003d28:	4613      	mov	r3, r2
 8003d2a:	009b      	lsls	r3, r3, #2
 8003d2c:	4413      	add	r3, r2
 8003d2e:	00db      	lsls	r3, r3, #3
 8003d30:	440b      	add	r3, r1
 8003d32:	f503 73b0 	add.w	r3, r3, #352	; 0x160
 8003d36:	2200      	movs	r2, #0
 8003d38:	601a      	str	r2, [r3, #0]
 8003d3a:	7bfa      	ldrb	r2, [r7, #15]
 8003d3c:	6879      	ldr	r1, [r7, #4]
 8003d3e:	4613      	mov	r3, r2
 8003d40:	009b      	lsls	r3, r3, #2
 8003d42:	4413      	add	r3, r2
 8003d44:	00db      	lsls	r3, r3, #3
 8003d46:	440b      	add	r3, r1
 8003d48:	f503 73b2 	add.w	r3, r3, #356	; 0x164
 8003d4c:	2200      	movs	r2, #0
 8003d4e:	601a      	str	r2, [r3, #0]
 8003d50:	7bfa      	ldrb	r2, [r7, #15]
 8003d52:	6879      	ldr	r1, [r7, #4]
 8003d54:	4613      	mov	r3, r2
 8003d56:	009b      	lsls	r3, r3, #2
 8003d58:	4413      	add	r3, r2
 8003d5a:	00db      	lsls	r3, r3, #3
 8003d5c:	440b      	add	r3, r1
 8003d5e:	f503 73b4 	add.w	r3, r3, #360	; 0x168
 8003d62:	2200      	movs	r2, #0
 8003d64:	601a      	str	r2, [r3, #0]
 8003d66:	7bfb      	ldrb	r3, [r7, #15]
 8003d68:	3301      	adds	r3, #1
 8003d6a:	73fb      	strb	r3, [r7, #15]
 8003d6c:	687b      	ldr	r3, [r7, #4]
 8003d6e:	791b      	ldrb	r3, [r3, #4]
 8003d70:	7bfa      	ldrb	r2, [r7, #15]
 8003d72:	429a      	cmp	r2, r3
 8003d74:	d3b5      	bcc.n	8003ce2 <HAL_PCD_Init+0xd2>
 8003d76:	687b      	ldr	r3, [r7, #4]
 8003d78:	6818      	ldr	r0, [r3, #0]
 8003d7a:	687b      	ldr	r3, [r7, #4]
 8003d7c:	3304      	adds	r3, #4
 8003d7e:	e893 0006 	ldmia.w	r3, {r1, r2}
 8003d82:	f004 fd95 	bl	80088b0 <USB_DevInit>
 8003d86:	687b      	ldr	r3, [r7, #4]
 8003d88:	2200      	movs	r2, #0
 8003d8a:	731a      	strb	r2, [r3, #12]
 8003d8c:	687b      	ldr	r3, [r7, #4]
 8003d8e:	2201      	movs	r2, #1
 8003d90:	f883 2291 	strb.w	r2, [r3, #657]	; 0x291
 8003d94:	687b      	ldr	r3, [r7, #4]
 8003d96:	7a9b      	ldrb	r3, [r3, #10]
 8003d98:	2b01      	cmp	r3, #1
 8003d9a:	d102      	bne.n	8003da2 <HAL_PCD_Init+0x192>
 8003d9c:	6878      	ldr	r0, [r7, #4]
 8003d9e:	f001 fc41 	bl	8005624 <HAL_PCDEx_ActivateLPM>
 8003da2:	2300      	movs	r3, #0
 8003da4:	4618      	mov	r0, r3
 8003da6:	3710      	adds	r7, #16
 8003da8:	46bd      	mov	sp, r7
 8003daa:	bd80      	pop	{r7, pc}

08003dac <HAL_PCD_Start>:
 8003dac:	b580      	push	{r7, lr}
 8003dae:	b082      	sub	sp, #8
 8003db0:	af00      	add	r7, sp, #0
 8003db2:	6078      	str	r0, [r7, #4]
 8003db4:	687b      	ldr	r3, [r7, #4]
 8003db6:	f893 3290 	ldrb.w	r3, [r3, #656]	; 0x290
 8003dba:	2b01      	cmp	r3, #1
 8003dbc:	d101      	bne.n	8003dc2 <HAL_PCD_Start+0x16>
 8003dbe:	2302      	movs	r3, #2
 8003dc0:	e012      	b.n	8003de8 <HAL_PCD_Start+0x3c>
 8003dc2:	687b      	ldr	r3, [r7, #4]
 8003dc4:	2201      	movs	r2, #1
 8003dc6:	f883 2290 	strb.w	r2, [r3, #656]	; 0x290
 8003dca:	687b      	ldr	r3, [r7, #4]
 8003dcc:	681b      	ldr	r3, [r3, #0]
 8003dce:	4618      	mov	r0, r3
 8003dd0:	f004 fd3c 	bl	800884c <USB_EnableGlobalInt>
 8003dd4:	687b      	ldr	r3, [r7, #4]
 8003dd6:	681b      	ldr	r3, [r3, #0]
 8003dd8:	4618      	mov	r0, r3
 8003dda:	f006 fffc 	bl	800add6 <USB_DevConnect>
 8003dde:	687b      	ldr	r3, [r7, #4]
 8003de0:	2200      	movs	r2, #0
 8003de2:	f883 2290 	strb.w	r2, [r3, #656]	; 0x290
 8003de6:	2300      	movs	r3, #0
 8003de8:	4618      	mov	r0, r3
 8003dea:	3708      	adds	r7, #8
 8003dec:	46bd      	mov	sp, r7
 8003dee:	bd80      	pop	{r7, pc}

08003df0 <HAL_PCD_IRQHandler>:
 8003df0:	b580      	push	{r7, lr}
 8003df2:	b084      	sub	sp, #16
 8003df4:	af00      	add	r7, sp, #0
 8003df6:	6078      	str	r0, [r7, #4]
 8003df8:	687b      	ldr	r3, [r7, #4]
 8003dfa:	681b      	ldr	r3, [r3, #0]
 8003dfc:	4618      	mov	r0, r3
 8003dfe:	f007 f801 	bl	800ae04 <USB_ReadInterrupts>
 8003e02:	60f8      	str	r0, [r7, #12]
 8003e04:	68fb      	ldr	r3, [r7, #12]
 8003e06:	f403 4300 	and.w	r3, r3, #32768	; 0x8000
 8003e0a:	2b00      	cmp	r3, #0
 8003e0c:	d003      	beq.n	8003e16 <HAL_PCD_IRQHandler+0x26>
 8003e0e:	6878      	ldr	r0, [r7, #4]
 8003e10:	f000 fb04 	bl	800441c <PCD_EP_ISR_Handler>
 8003e14:	e110      	b.n	8004038 <HAL_PCD_IRQHandler+0x248>
 8003e16:	68fb      	ldr	r3, [r7, #12]
 8003e18:	f403 6380 	and.w	r3, r3, #1024	; 0x400
 8003e1c:	2b00      	cmp	r3, #0
 8003e1e:	d013      	beq.n	8003e48 <HAL_PCD_IRQHandler+0x58>
 8003e20:	687b      	ldr	r3, [r7, #4]
 8003e22:	681b      	ldr	r3, [r3, #0]
 8003e24:	f8b3 3044 	ldrh.w	r3, [r3, #68]	; 0x44
 8003e28:	b29a      	uxth	r2, r3
 8003e2a:	687b      	ldr	r3, [r7, #4]
 8003e2c:	681b      	ldr	r3, [r3, #0]
 8003e2e:	f422 6280 	bic.w	r2, r2, #1024	; 0x400
 8003e32:	b292      	uxth	r2, r2
 8003e34:	f8a3 2044 	strh.w	r2, [r3, #68]	; 0x44
 8003e38:	6878      	ldr	r0, [r7, #4]
 8003e3a:	f008 ff08 	bl	800cc4e <HAL_PCD_ResetCallback>
 8003e3e:	2100      	movs	r1, #0
 8003e40:	6878      	ldr	r0, [r7, #4]
 8003e42:	f000 f8fc 	bl	800403e <HAL_PCD_SetAddress>
 8003e46:	e0f7      	b.n	8004038 <HAL_PCD_IRQHandler+0x248>
 8003e48:	68fb      	ldr	r3, [r7, #12]
 8003e4a:	f403 4380 	and.w	r3, r3, #16384	; 0x4000
 8003e4e:	2b00      	cmp	r3, #0
 8003e50:	d00c      	beq.n	8003e6c <HAL_PCD_IRQHandler+0x7c>
 8003e52:	687b      	ldr	r3, [r7, #4]
 8003e54:	681b      	ldr	r3, [r3, #0]
 8003e56:	f8b3 3044 	ldrh.w	r3, [r3, #68]	; 0x44
 8003e5a:	b29a      	uxth	r2, r3
 8003e5c:	687b      	ldr	r3, [r7, #4]
 8003e5e:	681b      	ldr	r3, [r3, #0]
 8003e60:	f422 4280 	bic.w	r2, r2, #16384	; 0x4000
 8003e64:	b292      	uxth	r2, r2
 8003e66:	f8a3 2044 	strh.w	r2, [r3, #68]	; 0x44
 8003e6a:	e0e5      	b.n	8004038 <HAL_PCD_IRQHandler+0x248>
 8003e6c:	68fb      	ldr	r3, [r7, #12]
 8003e6e:	f403 5300 	and.w	r3, r3, #8192	; 0x2000
 8003e72:	2b00      	cmp	r3, #0
 8003e74:	d00c      	beq.n	8003e90 <HAL_PCD_IRQHandler+0xa0>
 8003e76:	687b      	ldr	r3, [r7, #4]
 8003e78:	681b      	ldr	r3, [r3, #0]
 8003e7a:	f8b3 3044 	ldrh.w	r3, [r3, #68]	; 0x44
 8003e7e:	b29a      	uxth	r2, r3
 8003e80:	687b      	ldr	r3, [r7, #4]
 8003e82:	681b      	ldr	r3, [r3, #0]
 8003e84:	f422 5200 	bic.w	r2, r2, #8192	; 0x2000
 8003e88:	b292      	uxth	r2, r2
 8003e8a:	f8a3 2044 	strh.w	r2, [r3, #68]	; 0x44
 8003e8e:	e0d3      	b.n	8004038 <HAL_PCD_IRQHandler+0x248>
 8003e90:	68fb      	ldr	r3, [r7, #12]
 8003e92:	f403 5380 	and.w	r3, r3, #4096	; 0x1000
 8003e96:	2b00      	cmp	r3, #0
 8003e98:	d034      	beq.n	8003f04 <HAL_PCD_IRQHandler+0x114>
 8003e9a:	687b      	ldr	r3, [r7, #4]
 8003e9c:	681b      	ldr	r3, [r3, #0]
 8003e9e:	f8b3 3040 	ldrh.w	r3, [r3, #64]	; 0x40
 8003ea2:	b29a      	uxth	r2, r3
 8003ea4:	687b      	ldr	r3, [r7, #4]
 8003ea6:	681b      	ldr	r3, [r3, #0]
 8003ea8:	f022 0204 	bic.w	r2, r2, #4
 8003eac:	b292      	uxth	r2, r2
 8003eae:	f8a3 2040 	strh.w	r2, [r3, #64]	; 0x40
 8003eb2:	687b      	ldr	r3, [r7, #4]
 8003eb4:	681b      	ldr	r3, [r3, #0]
 8003eb6:	f8b3 3040 	ldrh.w	r3, [r3, #64]	; 0x40
 8003eba:	b29a      	uxth	r2, r3
 8003ebc:	687b      	ldr	r3, [r7, #4]
 8003ebe:	681b      	ldr	r3, [r3, #0]
 8003ec0:	f022 0208 	bic.w	r2, r2, #8
 8003ec4:	b292      	uxth	r2, r2
 8003ec6:	f8a3 2040 	strh.w	r2, [r3, #64]	; 0x40
 8003eca:	687b      	ldr	r3, [r7, #4]
 8003ecc:	f893 32c8 	ldrb.w	r3, [r3, #712]	; 0x2c8
 8003ed0:	2b01      	cmp	r3, #1
 8003ed2:	d107      	bne.n	8003ee4 <HAL_PCD_IRQHandler+0xf4>
 8003ed4:	687b      	ldr	r3, [r7, #4]
 8003ed6:	2200      	movs	r2, #0
 8003ed8:	f883 22c8 	strb.w	r2, [r3, #712]	; 0x2c8
 8003edc:	2100      	movs	r1, #0
 8003ede:	6878      	ldr	r0, [r7, #4]
 8003ee0:	f009 f8a8 	bl	800d034 <HAL_PCDEx_LPM_Callback>
 8003ee4:	6878      	ldr	r0, [r7, #4]
 8003ee6:	f008 feeb 	bl	800ccc0 <HAL_PCD_ResumeCallback>
 8003eea:	687b      	ldr	r3, [r7, #4]
 8003eec:	681b      	ldr	r3, [r3, #0]
 8003eee:	f8b3 3044 	ldrh.w	r3, [r3, #68]	; 0x44
 8003ef2:	b29a      	uxth	r2, r3
 8003ef4:	687b      	ldr	r3, [r7, #4]
 8003ef6:	681b      	ldr	r3, [r3, #0]
 8003ef8:	f422 5280 	bic.w	r2, r2, #4096	; 0x1000
 8003efc:	b292      	uxth	r2, r2
 8003efe:	f8a3 2044 	strh.w	r2, [r3, #68]	; 0x44
 8003f02:	e099      	b.n	8004038 <HAL_PCD_IRQHandler+0x248>
 8003f04:	68fb      	ldr	r3, [r7, #12]
 8003f06:	f403 6300 	and.w	r3, r3, #2048	; 0x800
 8003f0a:	2b00      	cmp	r3, #0
 8003f0c:	d027      	beq.n	8003f5e <HAL_PCD_IRQHandler+0x16e>
 8003f0e:	687b      	ldr	r3, [r7, #4]
 8003f10:	681b      	ldr	r3, [r3, #0]
 8003f12:	f8b3 3040 	ldrh.w	r3, [r3, #64]	; 0x40
 8003f16:	b29a      	uxth	r2, r3
 8003f18:	687b      	ldr	r3, [r7, #4]
 8003f1a:	681b      	ldr	r3, [r3, #0]
 8003f1c:	f042 0208 	orr.w	r2, r2, #8
 8003f20:	b292      	uxth	r2, r2
 8003f22:	f8a3 2040 	strh.w	r2, [r3, #64]	; 0x40
 8003f26:	687b      	ldr	r3, [r7, #4]
 8003f28:	681b      	ldr	r3, [r3, #0]
 8003f2a:	f8b3 3044 	ldrh.w	r3, [r3, #68]	; 0x44
 8003f2e:	b29a      	uxth	r2, r3
 8003f30:	687b      	ldr	r3, [r7, #4]
 8003f32:	681b      	ldr	r3, [r3, #0]
 8003f34:	f422 6200 	bic.w	r2, r2, #2048	; 0x800
 8003f38:	b292      	uxth	r2, r2
 8003f3a:	f8a3 2044 	strh.w	r2, [r3, #68]	; 0x44
 8003f3e:	687b      	ldr	r3, [r7, #4]
 8003f40:	681b      	ldr	r3, [r3, #0]
 8003f42:	f8b3 3040 	ldrh.w	r3, [r3, #64]	; 0x40
 8003f46:	b29a      	uxth	r2, r3
 8003f48:	687b      	ldr	r3, [r7, #4]
 8003f4a:	681b      	ldr	r3, [r3, #0]
 8003f4c:	f042 0204 	orr.w	r2, r2, #4
 8003f50:	b292      	uxth	r2, r2
 8003f52:	f8a3 2040 	strh.w	r2, [r3, #64]	; 0x40
 8003f56:	6878      	ldr	r0, [r7, #4]
 8003f58:	f008 fe98 	bl	800cc8c <HAL_PCD_SuspendCallback>
 8003f5c:	e06c      	b.n	8004038 <HAL_PCD_IRQHandler+0x248>
 8003f5e:	68fb      	ldr	r3, [r7, #12]
 8003f60:	f003 0380 	and.w	r3, r3, #128	; 0x80
 8003f64:	2b00      	cmp	r3, #0
 8003f66:	d040      	beq.n	8003fea <HAL_PCD_IRQHandler+0x1fa>
 8003f68:	687b      	ldr	r3, [r7, #4]
 8003f6a:	681b      	ldr	r3, [r3, #0]
 8003f6c:	f8b3 3044 	ldrh.w	r3, [r3, #68]	; 0x44
 8003f70:	b29a      	uxth	r2, r3
 8003f72:	687b      	ldr	r3, [r7, #4]
 8003f74:	681b      	ldr	r3, [r3, #0]
 8003f76:	f022 0280 	bic.w	r2, r2, #128	; 0x80
 8003f7a:	b292      	uxth	r2, r2
 8003f7c:	f8a3 2044 	strh.w	r2, [r3, #68]	; 0x44
 8003f80:	687b      	ldr	r3, [r7, #4]
 8003f82:	f893 32c8 	ldrb.w	r3, [r3, #712]	; 0x2c8
 8003f86:	2b00      	cmp	r3, #0
 8003f88:	d12b      	bne.n	8003fe2 <HAL_PCD_IRQHandler+0x1f2>
 8003f8a:	687b      	ldr	r3, [r7, #4]
 8003f8c:	681b      	ldr	r3, [r3, #0]
 8003f8e:	f8b3 3040 	ldrh.w	r3, [r3, #64]	; 0x40
 8003f92:	b29a      	uxth	r2, r3
 8003f94:	687b      	ldr	r3, [r7, #4]
 8003f96:	681b      	ldr	r3, [r3, #0]
 8003f98:	f042 0204 	orr.w	r2, r2, #4
 8003f9c:	b292      	uxth	r2, r2
 8003f9e:	f8a3 2040 	strh.w	r2, [r3, #64]	; 0x40
 8003fa2:	687b      	ldr	r3, [r7, #4]
 8003fa4:	681b      	ldr	r3, [r3, #0]
 8003fa6:	f8b3 3040 	ldrh.w	r3, [r3, #64]	; 0x40
 8003faa:	b29a      	uxth	r2, r3
 8003fac:	687b      	ldr	r3, [r7, #4]
 8003fae:	681b      	ldr	r3, [r3, #0]
 8003fb0:	f042 0208 	orr.w	r2, r2, #8
 8003fb4:	b292      	uxth	r2, r2
 8003fb6:	f8a3 2040 	strh.w	r2, [r3, #64]	; 0x40
 8003fba:	687b      	ldr	r3, [r7, #4]
 8003fbc:	2201      	movs	r2, #1
 8003fbe:	f883 22c8 	strb.w	r2, [r3, #712]	; 0x2c8
 8003fc2:	687b      	ldr	r3, [r7, #4]
 8003fc4:	681b      	ldr	r3, [r3, #0]
 8003fc6:	f8b3 3054 	ldrh.w	r3, [r3, #84]	; 0x54
 8003fca:	b29b      	uxth	r3, r3
 8003fcc:	089b      	lsrs	r3, r3, #2
 8003fce:	f003 023c 	and.w	r2, r3, #60	; 0x3c
 8003fd2:	687b      	ldr	r3, [r7, #4]
 8003fd4:	f8c3 22cc 	str.w	r2, [r3, #716]	; 0x2cc
 8003fd8:	2101      	movs	r1, #1
 8003fda:	6878      	ldr	r0, [r7, #4]
 8003fdc:	f009 f82a 	bl	800d034 <HAL_PCDEx_LPM_Callback>
 8003fe0:	e02a      	b.n	8004038 <HAL_PCD_IRQHandler+0x248>
 8003fe2:	6878      	ldr	r0, [r7, #4]
 8003fe4:	f008 fe52 	bl	800cc8c <HAL_PCD_SuspendCallback>
 8003fe8:	e026      	b.n	8004038 <HAL_PCD_IRQHandler+0x248>
 8003fea:	68fb      	ldr	r3, [r7, #12]
 8003fec:	f403 7300 	and.w	r3, r3, #512	; 0x200
 8003ff0:	2b00      	cmp	r3, #0
 8003ff2:	d00f      	beq.n	8004014 <HAL_PCD_IRQHandler+0x224>
 8003ff4:	687b      	ldr	r3, [r7, #4]
 8003ff6:	681b      	ldr	r3, [r3, #0]
 8003ff8:	f8b3 3044 	ldrh.w	r3, [r3, #68]	; 0x44
 8003ffc:	b29a      	uxth	r2, r3
 8003ffe:	687b      	ldr	r3, [r7, #4]
 8004000:	681b      	ldr	r3, [r3, #0]
 8004002:	f422 7200 	bic.w	r2, r2, #512	; 0x200
 8004006:	b292      	uxth	r2, r2
 8004008:	f8a3 2044 	strh.w	r2, [r3, #68]	; 0x44
 800400c:	6878      	ldr	r0, [r7, #4]
 800400e:	f008 fe10 	bl	800cc32 <HAL_PCD_SOFCallback>
 8004012:	e011      	b.n	8004038 <HAL_PCD_IRQHandler+0x248>
 8004014:	68fb      	ldr	r3, [r7, #12]
 8004016:	f403 7380 	and.w	r3, r3, #256	; 0x100
 800401a:	2b00      	cmp	r3, #0
 800401c:	d00c      	beq.n	8004038 <HAL_PCD_IRQHandler+0x248>
 800401e:	687b      	ldr	r3, [r7, #4]
 8004020:	681b      	ldr	r3, [r3, #0]
 8004022:	f8b3 3044 	ldrh.w	r3, [r3, #68]	; 0x44
 8004026:	b29a      	uxth	r2, r3
 8004028:	687b      	ldr	r3, [r7, #4]
 800402a:	681b      	ldr	r3, [r3, #0]
 800402c:	f422 7280 	bic.w	r2, r2, #256	; 0x100
 8004030:	b292      	uxth	r2, r2
 8004032:	f8a3 2044 	strh.w	r2, [r3, #68]	; 0x44
 8004036:	bf00      	nop
 8004038:	3710      	adds	r7, #16
 800403a:	46bd      	mov	sp, r7
 800403c:	bd80      	pop	{r7, pc}

0800403e <HAL_PCD_SetAddress>:
 800403e:	b580      	push	{r7, lr}
 8004040:	b082      	sub	sp, #8
 8004042:	af00      	add	r7, sp, #0
 8004044:	6078      	str	r0, [r7, #4]
 8004046:	460b      	mov	r3, r1
 8004048:	70fb      	strb	r3, [r7, #3]
 800404a:	687b      	ldr	r3, [r7, #4]
 800404c:	f893 3290 	ldrb.w	r3, [r3, #656]	; 0x290
 8004050:	2b01      	cmp	r3, #1
 8004052:	d101      	bne.n	8004058 <HAL_PCD_SetAddress+0x1a>
 8004054:	2302      	movs	r3, #2
 8004056:	e012      	b.n	800407e <HAL_PCD_SetAddress+0x40>
 8004058:	687b      	ldr	r3, [r7, #4]
 800405a:	2201      	movs	r2, #1
 800405c:	f883 2290 	strb.w	r2, [r3, #656]	; 0x290
 8004060:	687b      	ldr	r3, [r7, #4]
 8004062:	78fa      	ldrb	r2, [r7, #3]
 8004064:	731a      	strb	r2, [r3, #12]
 8004066:	687b      	ldr	r3, [r7, #4]
 8004068:	681b      	ldr	r3, [r3, #0]
 800406a:	78fa      	ldrb	r2, [r7, #3]
 800406c:	4611      	mov	r1, r2
 800406e:	4618      	mov	r0, r3
 8004070:	f006 fe9d 	bl	800adae <USB_SetDevAddress>
 8004074:	687b      	ldr	r3, [r7, #4]
 8004076:	2200      	movs	r2, #0
 8004078:	f883 2290 	strb.w	r2, [r3, #656]	; 0x290
 800407c:	2300      	movs	r3, #0
 800407e:	4618      	mov	r0, r3
 8004080:	3708      	adds	r7, #8
 8004082:	46bd      	mov	sp, r7
 8004084:	bd80      	pop	{r7, pc}

08004086 <HAL_PCD_EP_Open>:
 8004086:	b580      	push	{r7, lr}
 8004088:	b084      	sub	sp, #16
 800408a:	af00      	add	r7, sp, #0
 800408c:	6078      	str	r0, [r7, #4]
 800408e:	4608      	mov	r0, r1
 8004090:	4611      	mov	r1, r2
 8004092:	461a      	mov	r2, r3
 8004094:	4603      	mov	r3, r0
 8004096:	70fb      	strb	r3, [r7, #3]
 8004098:	460b      	mov	r3, r1
 800409a:	803b      	strh	r3, [r7, #0]
 800409c:	4613      	mov	r3, r2
 800409e:	70bb      	strb	r3, [r7, #2]
 80040a0:	2300      	movs	r3, #0
 80040a2:	72fb      	strb	r3, [r7, #11]
 80040a4:	f997 3003 	ldrsb.w	r3, [r7, #3]
 80040a8:	2b00      	cmp	r3, #0
 80040aa:	da0e      	bge.n	80040ca <HAL_PCD_EP_Open+0x44>
 80040ac:	78fb      	ldrb	r3, [r7, #3]
 80040ae:	f003 0207 	and.w	r2, r3, #7
 80040b2:	4613      	mov	r3, r2
 80040b4:	009b      	lsls	r3, r3, #2
 80040b6:	4413      	add	r3, r2
 80040b8:	00db      	lsls	r3, r3, #3
 80040ba:	3310      	adds	r3, #16
 80040bc:	687a      	ldr	r2, [r7, #4]
 80040be:	4413      	add	r3, r2
 80040c0:	60fb      	str	r3, [r7, #12]
 80040c2:	68fb      	ldr	r3, [r7, #12]
 80040c4:	2201      	movs	r2, #1
 80040c6:	705a      	strb	r2, [r3, #1]
 80040c8:	e00e      	b.n	80040e8 <HAL_PCD_EP_Open+0x62>
 80040ca:	78fb      	ldrb	r3, [r7, #3]
 80040cc:	f003 0207 	and.w	r2, r3, #7
 80040d0:	4613      	mov	r3, r2
 80040d2:	009b      	lsls	r3, r3, #2
 80040d4:	4413      	add	r3, r2
 80040d6:	00db      	lsls	r3, r3, #3
 80040d8:	f503 73a8 	add.w	r3, r3, #336	; 0x150
 80040dc:	687a      	ldr	r2, [r7, #4]
 80040de:	4413      	add	r3, r2
 80040e0:	60fb      	str	r3, [r7, #12]
 80040e2:	68fb      	ldr	r3, [r7, #12]
 80040e4:	2200      	movs	r2, #0
 80040e6:	705a      	strb	r2, [r3, #1]
 80040e8:	78fb      	ldrb	r3, [r7, #3]
 80040ea:	f003 0307 	and.w	r3, r3, #7
 80040ee:	b2da      	uxtb	r2, r3
 80040f0:	68fb      	ldr	r3, [r7, #12]
 80040f2:	701a      	strb	r2, [r3, #0]
 80040f4:	883a      	ldrh	r2, [r7, #0]
 80040f6:	68fb      	ldr	r3, [r7, #12]
 80040f8:	611a      	str	r2, [r3, #16]
 80040fa:	68fb      	ldr	r3, [r7, #12]
 80040fc:	78ba      	ldrb	r2, [r7, #2]
 80040fe:	70da      	strb	r2, [r3, #3]
 8004100:	78bb      	ldrb	r3, [r7, #2]
 8004102:	2b02      	cmp	r3, #2
 8004104:	d102      	bne.n	800410c <HAL_PCD_EP_Open+0x86>
 8004106:	68fb      	ldr	r3, [r7, #12]
 8004108:	2200      	movs	r2, #0
 800410a:	711a      	strb	r2, [r3, #4]
 800410c:	687b      	ldr	r3, [r7, #4]
 800410e:	f893 3290 	ldrb.w	r3, [r3, #656]	; 0x290
 8004112:	2b01      	cmp	r3, #1
 8004114:	d101      	bne.n	800411a <HAL_PCD_EP_Open+0x94>
 8004116:	2302      	movs	r3, #2
 8004118:	e00e      	b.n	8004138 <HAL_PCD_EP_Open+0xb2>
 800411a:	687b      	ldr	r3, [r7, #4]
 800411c:	2201      	movs	r2, #1
 800411e:	f883 2290 	strb.w	r2, [r3, #656]	; 0x290
 8004122:	687b      	ldr	r3, [r7, #4]
 8004124:	681b      	ldr	r3, [r3, #0]
 8004126:	68f9      	ldr	r1, [r7, #12]
 8004128:	4618      	mov	r0, r3
 800412a:	f004 fbdf 	bl	80088ec <USB_ActivateEndpoint>
 800412e:	687b      	ldr	r3, [r7, #4]
 8004130:	2200      	movs	r2, #0
 8004132:	f883 2290 	strb.w	r2, [r3, #656]	; 0x290
 8004136:	7afb      	ldrb	r3, [r7, #11]
 8004138:	4618      	mov	r0, r3
 800413a:	3710      	adds	r7, #16
 800413c:	46bd      	mov	sp, r7
 800413e:	bd80      	pop	{r7, pc}

08004140 <HAL_PCD_EP_Close>:
 8004140:	b580      	push	{r7, lr}
 8004142:	b084      	sub	sp, #16
 8004144:	af00      	add	r7, sp, #0
 8004146:	6078      	str	r0, [r7, #4]
 8004148:	460b      	mov	r3, r1
 800414a:	70fb      	strb	r3, [r7, #3]
 800414c:	f997 3003 	ldrsb.w	r3, [r7, #3]
 8004150:	2b00      	cmp	r3, #0
 8004152:	da0e      	bge.n	8004172 <HAL_PCD_EP_Close+0x32>
 8004154:	78fb      	ldrb	r3, [r7, #3]
 8004156:	f003 0207 	and.w	r2, r3, #7
 800415a:	4613      	mov	r3, r2
 800415c:	009b      	lsls	r3, r3, #2
 800415e:	4413      	add	r3, r2
 8004160:	00db      	lsls	r3, r3, #3
 8004162:	3310      	adds	r3, #16
 8004164:	687a      	ldr	r2, [r7, #4]
 8004166:	4413      	add	r3, r2
 8004168:	60fb      	str	r3, [r7, #12]
 800416a:	68fb      	ldr	r3, [r7, #12]
 800416c:	2201      	movs	r2, #1
 800416e:	705a      	strb	r2, [r3, #1]
 8004170:	e00e      	b.n	8004190 <HAL_PCD_EP_Close+0x50>
 8004172:	78fb      	ldrb	r3, [r7, #3]
 8004174:	f003 0207 	and.w	r2, r3, #7
 8004178:	4613      	mov	r3, r2
 800417a:	009b      	lsls	r3, r3, #2
 800417c:	4413      	add	r3, r2
 800417e:	00db      	lsls	r3, r3, #3
 8004180:	f503 73a8 	add.w	r3, r3, #336	; 0x150
 8004184:	687a      	ldr	r2, [r7, #4]
 8004186:	4413      	add	r3, r2
 8004188:	60fb      	str	r3, [r7, #12]
 800418a:	68fb      	ldr	r3, [r7, #12]
 800418c:	2200      	movs	r2, #0
 800418e:	705a      	strb	r2, [r3, #1]
 8004190:	78fb      	ldrb	r3, [r7, #3]
 8004192:	f003 0307 	and.w	r3, r3, #7
 8004196:	b2da      	uxtb	r2, r3
 8004198:	68fb      	ldr	r3, [r7, #12]
 800419a:	701a      	strb	r2, [r3, #0]
 800419c:	687b      	ldr	r3, [r7, #4]
 800419e:	f893 3290 	ldrb.w	r3, [r3, #656]	; 0x290
 80041a2:	2b01      	cmp	r3, #1
 80041a4:	d101      	bne.n	80041aa <HAL_PCD_EP_Close+0x6a>
 80041a6:	2302      	movs	r3, #2
 80041a8:	e00e      	b.n	80041c8 <HAL_PCD_EP_Close+0x88>
 80041aa:	687b      	ldr	r3, [r7, #4]
 80041ac:	2201      	movs	r2, #1
 80041ae:	f883 2290 	strb.w	r2, [r3, #656]	; 0x290
 80041b2:	687b      	ldr	r3, [r7, #4]
 80041b4:	681b      	ldr	r3, [r3, #0]
 80041b6:	68f9      	ldr	r1, [r7, #12]
 80041b8:	4618      	mov	r0, r3
 80041ba:	f004 ff5b 	bl	8009074 <USB_DeactivateEndpoint>
 80041be:	687b      	ldr	r3, [r7, #4]
 80041c0:	2200      	movs	r2, #0
 80041c2:	f883 2290 	strb.w	r2, [r3, #656]	; 0x290
 80041c6:	2300      	movs	r3, #0
 80041c8:	4618      	mov	r0, r3
 80041ca:	3710      	adds	r7, #16
 80041cc:	46bd      	mov	sp, r7
 80041ce:	bd80      	pop	{r7, pc}

080041d0 <HAL_PCD_EP_Receive>:
 80041d0:	b580      	push	{r7, lr}
 80041d2:	b086      	sub	sp, #24
 80041d4:	af00      	add	r7, sp, #0
 80041d6:	60f8      	str	r0, [r7, #12]
 80041d8:	607a      	str	r2, [r7, #4]
 80041da:	603b      	str	r3, [r7, #0]
 80041dc:	460b      	mov	r3, r1
 80041de:	72fb      	strb	r3, [r7, #11]
 80041e0:	7afb      	ldrb	r3, [r7, #11]
 80041e2:	f003 0207 	and.w	r2, r3, #7
 80041e6:	4613      	mov	r3, r2
 80041e8:	009b      	lsls	r3, r3, #2
 80041ea:	4413      	add	r3, r2
 80041ec:	00db      	lsls	r3, r3, #3
 80041ee:	f503 73a8 	add.w	r3, r3, #336	; 0x150
 80041f2:	68fa      	ldr	r2, [r7, #12]
 80041f4:	4413      	add	r3, r2
 80041f6:	617b      	str	r3, [r7, #20]
 80041f8:	697b      	ldr	r3, [r7, #20]
 80041fa:	687a      	ldr	r2, [r7, #4]
 80041fc:	615a      	str	r2, [r3, #20]
 80041fe:	697b      	ldr	r3, [r7, #20]
 8004200:	683a      	ldr	r2, [r7, #0]
 8004202:	619a      	str	r2, [r3, #24]
 8004204:	697b      	ldr	r3, [r7, #20]
 8004206:	2200      	movs	r2, #0
 8004208:	61da      	str	r2, [r3, #28]
 800420a:	697b      	ldr	r3, [r7, #20]
 800420c:	2200      	movs	r2, #0
 800420e:	705a      	strb	r2, [r3, #1]
 8004210:	7afb      	ldrb	r3, [r7, #11]
 8004212:	f003 0307 	and.w	r3, r3, #7
 8004216:	b2da      	uxtb	r2, r3
 8004218:	697b      	ldr	r3, [r7, #20]
 800421a:	701a      	strb	r2, [r3, #0]
 800421c:	68fb      	ldr	r3, [r7, #12]
 800421e:	681b      	ldr	r3, [r3, #0]
 8004220:	6979      	ldr	r1, [r7, #20]
 8004222:	4618      	mov	r0, r3
 8004224:	f005 f913 	bl	800944e <USB_EPStartXfer>
 8004228:	2300      	movs	r3, #0
 800422a:	4618      	mov	r0, r3
 800422c:	3718      	adds	r7, #24
 800422e:	46bd      	mov	sp, r7
 8004230:	bd80      	pop	{r7, pc}

08004232 <HAL_PCD_EP_GetRxCount>:
 8004232:	b480      	push	{r7}
 8004234:	b083      	sub	sp, #12
 8004236:	af00      	add	r7, sp, #0
 8004238:	6078      	str	r0, [r7, #4]
 800423a:	460b      	mov	r3, r1
 800423c:	70fb      	strb	r3, [r7, #3]
 800423e:	78fb      	ldrb	r3, [r7, #3]
 8004240:	f003 0207 	and.w	r2, r3, #7
 8004244:	6879      	ldr	r1, [r7, #4]
 8004246:	4613      	mov	r3, r2
 8004248:	009b      	lsls	r3, r3, #2
 800424a:	4413      	add	r3, r2
 800424c:	00db      	lsls	r3, r3, #3
 800424e:	440b      	add	r3, r1
 8004250:	f503 73b6 	add.w	r3, r3, #364	; 0x16c
 8004254:	681b      	ldr	r3, [r3, #0]
 8004256:	4618      	mov	r0, r3
 8004258:	370c      	adds	r7, #12
 800425a:	46bd      	mov	sp, r7
 800425c:	f85d 7b04 	ldr.w	r7, [sp], #4
 8004260:	4770      	bx	lr

08004262 <HAL_PCD_EP_Transmit>:
 8004262:	b580      	push	{r7, lr}
 8004264:	b086      	sub	sp, #24
 8004266:	af00      	add	r7, sp, #0
 8004268:	60f8      	str	r0, [r7, #12]
 800426a:	607a      	str	r2, [r7, #4]
 800426c:	603b      	str	r3, [r7, #0]
 800426e:	460b      	mov	r3, r1
 8004270:	72fb      	strb	r3, [r7, #11]
 8004272:	7afb      	ldrb	r3, [r7, #11]
 8004274:	f003 0207 	and.w	r2, r3, #7
 8004278:	4613      	mov	r3, r2
 800427a:	009b      	lsls	r3, r3, #2
 800427c:	4413      	add	r3, r2
 800427e:	00db      	lsls	r3, r3, #3
 8004280:	3310      	adds	r3, #16
 8004282:	68fa      	ldr	r2, [r7, #12]
 8004284:	4413      	add	r3, r2
 8004286:	617b      	str	r3, [r7, #20]
 8004288:	697b      	ldr	r3, [r7, #20]
 800428a:	687a      	ldr	r2, [r7, #4]
 800428c:	615a      	str	r2, [r3, #20]
 800428e:	697b      	ldr	r3, [r7, #20]
 8004290:	683a      	ldr	r2, [r7, #0]
 8004292:	619a      	str	r2, [r3, #24]
 8004294:	697b      	ldr	r3, [r7, #20]
 8004296:	2201      	movs	r2, #1
 8004298:	f883 2024 	strb.w	r2, [r3, #36]	; 0x24
 800429c:	697b      	ldr	r3, [r7, #20]
 800429e:	683a      	ldr	r2, [r7, #0]
 80042a0:	621a      	str	r2, [r3, #32]
 80042a2:	697b      	ldr	r3, [r7, #20]
 80042a4:	2200      	movs	r2, #0
 80042a6:	61da      	str	r2, [r3, #28]
 80042a8:	697b      	ldr	r3, [r7, #20]
 80042aa:	2201      	movs	r2, #1
 80042ac:	705a      	strb	r2, [r3, #1]
 80042ae:	7afb      	ldrb	r3, [r7, #11]
 80042b0:	f003 0307 	and.w	r3, r3, #7
 80042b4:	b2da      	uxtb	r2, r3
 80042b6:	697b      	ldr	r3, [r7, #20]
 80042b8:	701a      	strb	r2, [r3, #0]
 80042ba:	68fb      	ldr	r3, [r7, #12]
 80042bc:	681b      	ldr	r3, [r3, #0]
 80042be:	6979      	ldr	r1, [r7, #20]
 80042c0:	4618      	mov	r0, r3
 80042c2:	f005 f8c4 	bl	800944e <USB_EPStartXfer>
 80042c6:	2300      	movs	r3, #0
 80042c8:	4618      	mov	r0, r3
 80042ca:	3718      	adds	r7, #24
 80042cc:	46bd      	mov	sp, r7
 80042ce:	bd80      	pop	{r7, pc}

080042d0 <HAL_PCD_EP_SetStall>:
 80042d0:	b580      	push	{r7, lr}
 80042d2:	b084      	sub	sp, #16
 80042d4:	af00      	add	r7, sp, #0
 80042d6:	6078      	str	r0, [r7, #4]
 80042d8:	460b      	mov	r3, r1
 80042da:	70fb      	strb	r3, [r7, #3]
 80042dc:	78fb      	ldrb	r3, [r7, #3]
 80042de:	f003 0307 	and.w	r3, r3, #7
 80042e2:	687a      	ldr	r2, [r7, #4]
 80042e4:	7912      	ldrb	r2, [r2, #4]
 80042e6:	4293      	cmp	r3, r2
 80042e8:	d901      	bls.n	80042ee <HAL_PCD_EP_SetStall+0x1e>
 80042ea:	2301      	movs	r3, #1
 80042ec:	e03e      	b.n	800436c <HAL_PCD_EP_SetStall+0x9c>
 80042ee:	f997 3003 	ldrsb.w	r3, [r7, #3]
 80042f2:	2b00      	cmp	r3, #0
 80042f4:	da0e      	bge.n	8004314 <HAL_PCD_EP_SetStall+0x44>
 80042f6:	78fb      	ldrb	r3, [r7, #3]
 80042f8:	f003 0207 	and.w	r2, r3, #7
 80042fc:	4613      	mov	r3, r2
 80042fe:	009b      	lsls	r3, r3, #2
 8004300:	4413      	add	r3, r2
 8004302:	00db      	lsls	r3, r3, #3
 8004304:	3310      	adds	r3, #16
 8004306:	687a      	ldr	r2, [r7, #4]
 8004308:	4413      	add	r3, r2
 800430a:	60fb      	str	r3, [r7, #12]
 800430c:	68fb      	ldr	r3, [r7, #12]
 800430e:	2201      	movs	r2, #1
 8004310:	705a      	strb	r2, [r3, #1]
 8004312:	e00c      	b.n	800432e <HAL_PCD_EP_SetStall+0x5e>
 8004314:	78fa      	ldrb	r2, [r7, #3]
 8004316:	4613      	mov	r3, r2
 8004318:	009b      	lsls	r3, r3, #2
 800431a:	4413      	add	r3, r2
 800431c:	00db      	lsls	r3, r3, #3
 800431e:	f503 73a8 	add.w	r3, r3, #336	; 0x150
 8004322:	687a      	ldr	r2, [r7, #4]
 8004324:	4413      	add	r3, r2
 8004326:	60fb      	str	r3, [r7, #12]
 8004328:	68fb      	ldr	r3, [r7, #12]
 800432a:	2200      	movs	r2, #0
 800432c:	705a      	strb	r2, [r3, #1]
 800432e:	68fb      	ldr	r3, [r7, #12]
 8004330:	2201      	movs	r2, #1
 8004332:	709a      	strb	r2, [r3, #2]
 8004334:	78fb      	ldrb	r3, [r7, #3]
 8004336:	f003 0307 	and.w	r3, r3, #7
 800433a:	b2da      	uxtb	r2, r3
 800433c:	68fb      	ldr	r3, [r7, #12]
 800433e:	701a      	strb	r2, [r3, #0]
 8004340:	687b      	ldr	r3, [r7, #4]
 8004342:	f893 3290 	ldrb.w	r3, [r3, #656]	; 0x290
 8004346:	2b01      	cmp	r3, #1
 8004348:	d101      	bne.n	800434e <HAL_PCD_EP_SetStall+0x7e>
 800434a:	2302      	movs	r3, #2
 800434c:	e00e      	b.n	800436c <HAL_PCD_EP_SetStall+0x9c>
 800434e:	687b      	ldr	r3, [r7, #4]
 8004350:	2201      	movs	r2, #1
 8004352:	f883 2290 	strb.w	r2, [r3, #656]	; 0x290
 8004356:	687b      	ldr	r3, [r7, #4]
 8004358:	681b      	ldr	r3, [r3, #0]
 800435a:	68f9      	ldr	r1, [r7, #12]
 800435c:	4618      	mov	r0, r3
 800435e:	f006 fc27 	bl	800abb0 <USB_EPSetStall>
 8004362:	687b      	ldr	r3, [r7, #4]
 8004364:	2200      	movs	r2, #0
 8004366:	f883 2290 	strb.w	r2, [r3, #656]	; 0x290
 800436a:	2300      	movs	r3, #0
 800436c:	4618      	mov	r0, r3
 800436e:	3710      	adds	r7, #16
 8004370:	46bd      	mov	sp, r7
 8004372:	bd80      	pop	{r7, pc}

08004374 <HAL_PCD_EP_ClrStall>:
 8004374:	b580      	push	{r7, lr}
 8004376:	b084      	sub	sp, #16
 8004378:	af00      	add	r7, sp, #0
 800437a:	6078      	str	r0, [r7, #4]
 800437c:	460b      	mov	r3, r1
 800437e:	70fb      	strb	r3, [r7, #3]
 8004380:	78fb      	ldrb	r3, [r7, #3]
 8004382:	f003 030f 	and.w	r3, r3, #15
 8004386:	687a      	ldr	r2, [r7, #4]
 8004388:	7912      	ldrb	r2, [r2, #4]
 800438a:	4293      	cmp	r3, r2
 800438c:	d901      	bls.n	8004392 <HAL_PCD_EP_ClrStall+0x1e>
 800438e:	2301      	movs	r3, #1
 8004390:	e040      	b.n	8004414 <HAL_PCD_EP_ClrStall+0xa0>
 8004392:	f997 3003 	ldrsb.w	r3, [r7, #3]
 8004396:	2b00      	cmp	r3, #0
 8004398:	da0e      	bge.n	80043b8 <HAL_PCD_EP_ClrStall+0x44>
 800439a:	78fb      	ldrb	r3, [r7, #3]
 800439c:	f003 0207 	and.w	r2, r3, #7
 80043a0:	4613      	mov	r3, r2
 80043a2:	009b      	lsls	r3, r3, #2
 80043a4:	4413      	add	r3, r2
 80043a6:	00db      	lsls	r3, r3, #3
 80043a8:	3310      	adds	r3, #16
 80043aa:	687a      	ldr	r2, [r7, #4]
 80043ac:	4413      	add	r3, r2
 80043ae:	60fb      	str	r3, [r7, #12]
 80043b0:	68fb      	ldr	r3, [r7, #12]
 80043b2:	2201      	movs	r2, #1
 80043b4:	705a      	strb	r2, [r3, #1]
 80043b6:	e00e      	b.n	80043d6 <HAL_PCD_EP_ClrStall+0x62>
 80043b8:	78fb      	ldrb	r3, [r7, #3]
 80043ba:	f003 0207 	and.w	r2, r3, #7
 80043be:	4613      	mov	r3, r2
 80043c0:	009b      	lsls	r3, r3, #2
 80043c2:	4413      	add	r3, r2
 80043c4:	00db      	lsls	r3, r3, #3
 80043c6:	f503 73a8 	add.w	r3, r3, #336	; 0x150
 80043ca:	687a      	ldr	r2, [r7, #4]
 80043cc:	4413      	add	r3, r2
 80043ce:	60fb      	str	r3, [r7, #12]
 80043d0:	68fb      	ldr	r3, [r7, #12]
 80043d2:	2200      	movs	r2, #0
 80043d4:	705a      	strb	r2, [r3, #1]
 80043d6:	68fb      	ldr	r3, [r7, #12]
 80043d8:	2200      	movs	r2, #0
 80043da:	709a      	strb	r2, [r3, #2]
 80043dc:	78fb      	ldrb	r3, [r7, #3]
 80043de:	f003 0307 	and.w	r3, r3, #7
 80043e2:	b2da      	uxtb	r2, r3
 80043e4:	68fb      	ldr	r3, [r7, #12]
 80043e6:	701a      	strb	r2, [r3, #0]
 80043e8:	687b      	ldr	r3, [r7, #4]
 80043ea:	f893 3290 	ldrb.w	r3, [r3, #656]	; 0x290
 80043ee:	2b01      	cmp	r3, #1
 80043f0:	d101      	bne.n	80043f6 <HAL_PCD_EP_ClrStall+0x82>
 80043f2:	2302      	movs	r3, #2
 80043f4:	e00e      	b.n	8004414 <HAL_PCD_EP_ClrStall+0xa0>
 80043f6:	687b      	ldr	r3, [r7, #4]
 80043f8:	2201      	movs	r2, #1
 80043fa:	f883 2290 	strb.w	r2, [r3, #656]	; 0x290
 80043fe:	687b      	ldr	r3, [r7, #4]
 8004400:	681b      	ldr	r3, [r3, #0]
 8004402:	68f9      	ldr	r1, [r7, #12]
 8004404:	4618      	mov	r0, r3
 8004406:	f006 fc24 	bl	800ac52 <USB_EPClearStall>
 800440a:	687b      	ldr	r3, [r7, #4]
 800440c:	2200      	movs	r2, #0
 800440e:	f883 2290 	strb.w	r2, [r3, #656]	; 0x290
 8004412:	2300      	movs	r3, #0
 8004414:	4618      	mov	r0, r3
 8004416:	3710      	adds	r7, #16
 8004418:	46bd      	mov	sp, r7
 800441a:	bd80      	pop	{r7, pc}

0800441c <PCD_EP_ISR_Handler>:
 800441c:	b580      	push	{r7, lr}
 800441e:	b096      	sub	sp, #88	; 0x58
 8004420:	af00      	add	r7, sp, #0
 8004422:	6078      	str	r0, [r7, #4]
 8004424:	e3ae      	b.n	8004b84 <PCD_EP_ISR_Handler+0x768>
 8004426:	687b      	ldr	r3, [r7, #4]
 8004428:	681b      	ldr	r3, [r3, #0]
 800442a:	f8b3 3044 	ldrh.w	r3, [r3, #68]	; 0x44
 800442e:	f8a7 304e 	strh.w	r3, [r7, #78]	; 0x4e
 8004432:	f8b7 304e 	ldrh.w	r3, [r7, #78]	; 0x4e
 8004436:	b2db      	uxtb	r3, r3
 8004438:	f003 030f 	and.w	r3, r3, #15
 800443c:	f887 304d 	strb.w	r3, [r7, #77]	; 0x4d
 8004440:	f897 304d 	ldrb.w	r3, [r7, #77]	; 0x4d
 8004444:	2b00      	cmp	r3, #0
 8004446:	f040 8170 	bne.w	800472a <PCD_EP_ISR_Handler+0x30e>
 800444a:	f8b7 304e 	ldrh.w	r3, [r7, #78]	; 0x4e
 800444e:	f003 0310 	and.w	r3, r3, #16
 8004452:	2b00      	cmp	r3, #0
 8004454:	d14d      	bne.n	80044f2 <PCD_EP_ISR_Handler+0xd6>
 8004456:	687b      	ldr	r3, [r7, #4]
 8004458:	681b      	ldr	r3, [r3, #0]
 800445a:	881b      	ldrh	r3, [r3, #0]
 800445c:	b29b      	uxth	r3, r3
 800445e:	f423 43e1 	bic.w	r3, r3, #28800	; 0x7080
 8004462:	f023 0370 	bic.w	r3, r3, #112	; 0x70
 8004466:	81fb      	strh	r3, [r7, #14]
 8004468:	687b      	ldr	r3, [r7, #4]
 800446a:	681a      	ldr	r2, [r3, #0]
 800446c:	89fb      	ldrh	r3, [r7, #14]
 800446e:	ea6f 4343 	mvn.w	r3, r3, lsl #17
 8004472:	ea6f 4353 	mvn.w	r3, r3, lsr #17
 8004476:	b29b      	uxth	r3, r3
 8004478:	8013      	strh	r3, [r2, #0]
 800447a:	687b      	ldr	r3, [r7, #4]
 800447c:	3310      	adds	r3, #16
 800447e:	657b      	str	r3, [r7, #84]	; 0x54
 8004480:	687b      	ldr	r3, [r7, #4]
 8004482:	681b      	ldr	r3, [r3, #0]
 8004484:	f8b3 3050 	ldrh.w	r3, [r3, #80]	; 0x50
 8004488:	b29b      	uxth	r3, r3
 800448a:	461a      	mov	r2, r3
 800448c:	6d7b      	ldr	r3, [r7, #84]	; 0x54
 800448e:	781b      	ldrb	r3, [r3, #0]
 8004490:	00db      	lsls	r3, r3, #3
 8004492:	4413      	add	r3, r2
 8004494:	687a      	ldr	r2, [r7, #4]
 8004496:	6812      	ldr	r2, [r2, #0]
 8004498:	4413      	add	r3, r2
 800449a:	f203 4302 	addw	r3, r3, #1026	; 0x402
 800449e:	881b      	ldrh	r3, [r3, #0]
 80044a0:	f3c3 0209 	ubfx	r2, r3, #0, #10
 80044a4:	6d7b      	ldr	r3, [r7, #84]	; 0x54
 80044a6:	61da      	str	r2, [r3, #28]
 80044a8:	6d7b      	ldr	r3, [r7, #84]	; 0x54
 80044aa:	695a      	ldr	r2, [r3, #20]
 80044ac:	6d7b      	ldr	r3, [r7, #84]	; 0x54
 80044ae:	69db      	ldr	r3, [r3, #28]
 80044b0:	441a      	add	r2, r3
 80044b2:	6d7b      	ldr	r3, [r7, #84]	; 0x54
 80044b4:	615a      	str	r2, [r3, #20]
 80044b6:	2100      	movs	r1, #0
 80044b8:	6878      	ldr	r0, [r7, #4]
 80044ba:	f008 fba0 	bl	800cbfe <HAL_PCD_DataInStageCallback>
 80044be:	687b      	ldr	r3, [r7, #4]
 80044c0:	7b1b      	ldrb	r3, [r3, #12]
 80044c2:	b2db      	uxtb	r3, r3
 80044c4:	2b00      	cmp	r3, #0
 80044c6:	f000 835d 	beq.w	8004b84 <PCD_EP_ISR_Handler+0x768>
 80044ca:	6d7b      	ldr	r3, [r7, #84]	; 0x54
 80044cc:	699b      	ldr	r3, [r3, #24]
 80044ce:	2b00      	cmp	r3, #0
 80044d0:	f040 8358 	bne.w	8004b84 <PCD_EP_ISR_Handler+0x768>
 80044d4:	687b      	ldr	r3, [r7, #4]
 80044d6:	7b1b      	ldrb	r3, [r3, #12]
 80044d8:	b2db      	uxtb	r3, r3
 80044da:	f063 037f 	orn	r3, r3, #127	; 0x7f
 80044de:	b2da      	uxtb	r2, r3
 80044e0:	687b      	ldr	r3, [r7, #4]
 80044e2:	681b      	ldr	r3, [r3, #0]
 80044e4:	b292      	uxth	r2, r2
 80044e6:	f8a3 204c 	strh.w	r2, [r3, #76]	; 0x4c
 80044ea:	687b      	ldr	r3, [r7, #4]
 80044ec:	2200      	movs	r2, #0
 80044ee:	731a      	strb	r2, [r3, #12]
 80044f0:	e348      	b.n	8004b84 <PCD_EP_ISR_Handler+0x768>
 80044f2:	687b      	ldr	r3, [r7, #4]
 80044f4:	f503 73a8 	add.w	r3, r3, #336	; 0x150
 80044f8:	657b      	str	r3, [r7, #84]	; 0x54
 80044fa:	687b      	ldr	r3, [r7, #4]
 80044fc:	681b      	ldr	r3, [r3, #0]
 80044fe:	881b      	ldrh	r3, [r3, #0]
 8004500:	f8a7 304a 	strh.w	r3, [r7, #74]	; 0x4a
 8004504:	f8b7 304a 	ldrh.w	r3, [r7, #74]	; 0x4a
 8004508:	f403 6300 	and.w	r3, r3, #2048	; 0x800
 800450c:	2b00      	cmp	r3, #0
 800450e:	d032      	beq.n	8004576 <PCD_EP_ISR_Handler+0x15a>
 8004510:	687b      	ldr	r3, [r7, #4]
 8004512:	681b      	ldr	r3, [r3, #0]
 8004514:	f8b3 3050 	ldrh.w	r3, [r3, #80]	; 0x50
 8004518:	b29b      	uxth	r3, r3
 800451a:	461a      	mov	r2, r3
 800451c:	6d7b      	ldr	r3, [r7, #84]	; 0x54
 800451e:	781b      	ldrb	r3, [r3, #0]
 8004520:	00db      	lsls	r3, r3, #3
 8004522:	4413      	add	r3, r2
 8004524:	687a      	ldr	r2, [r7, #4]
 8004526:	6812      	ldr	r2, [r2, #0]
 8004528:	4413      	add	r3, r2
 800452a:	f203 4306 	addw	r3, r3, #1030	; 0x406
 800452e:	881b      	ldrh	r3, [r3, #0]
 8004530:	f3c3 0209 	ubfx	r2, r3, #0, #10
 8004534:	6d7b      	ldr	r3, [r7, #84]	; 0x54
 8004536:	61da      	str	r2, [r3, #28]
 8004538:	687b      	ldr	r3, [r7, #4]
 800453a:	6818      	ldr	r0, [r3, #0]
 800453c:	687b      	ldr	r3, [r7, #4]
 800453e:	f503 7126 	add.w	r1, r3, #664	; 0x298
 8004542:	6d7b      	ldr	r3, [r7, #84]	; 0x54
 8004544:	88da      	ldrh	r2, [r3, #6]
 8004546:	6d7b      	ldr	r3, [r7, #84]	; 0x54
 8004548:	69db      	ldr	r3, [r3, #28]
 800454a:	b29b      	uxth	r3, r3
 800454c:	f006 fcac 	bl	800aea8 <USB_ReadPMA>
 8004550:	687b      	ldr	r3, [r7, #4]
 8004552:	681b      	ldr	r3, [r3, #0]
 8004554:	881b      	ldrh	r3, [r3, #0]
 8004556:	b29a      	uxth	r2, r3
 8004558:	f640 738f 	movw	r3, #3983	; 0xf8f
 800455c:	4013      	ands	r3, r2
 800455e:	823b      	strh	r3, [r7, #16]
 8004560:	687b      	ldr	r3, [r7, #4]
 8004562:	681b      	ldr	r3, [r3, #0]
 8004564:	8a3a      	ldrh	r2, [r7, #16]
 8004566:	f042 0280 	orr.w	r2, r2, #128	; 0x80
 800456a:	b292      	uxth	r2, r2
 800456c:	801a      	strh	r2, [r3, #0]
 800456e:	6878      	ldr	r0, [r7, #4]
 8004570:	f008 fb18 	bl	800cba4 <HAL_PCD_SetupStageCallback>
 8004574:	e306      	b.n	8004b84 <PCD_EP_ISR_Handler+0x768>
 8004576:	f9b7 304a 	ldrsh.w	r3, [r7, #74]	; 0x4a
 800457a:	2b00      	cmp	r3, #0
 800457c:	f280 8302 	bge.w	8004b84 <PCD_EP_ISR_Handler+0x768>
 8004580:	687b      	ldr	r3, [r7, #4]
 8004582:	681b      	ldr	r3, [r3, #0]
 8004584:	881b      	ldrh	r3, [r3, #0]
 8004586:	b29a      	uxth	r2, r3
 8004588:	f640 738f 	movw	r3, #3983	; 0xf8f
 800458c:	4013      	ands	r3, r2
 800458e:	83fb      	strh	r3, [r7, #30]
 8004590:	687b      	ldr	r3, [r7, #4]
 8004592:	681b      	ldr	r3, [r3, #0]
 8004594:	8bfa      	ldrh	r2, [r7, #30]
 8004596:	f042 0280 	orr.w	r2, r2, #128	; 0x80
 800459a:	b292      	uxth	r2, r2
 800459c:	801a      	strh	r2, [r3, #0]
 800459e:	687b      	ldr	r3, [r7, #4]
 80045a0:	681b      	ldr	r3, [r3, #0]
 80045a2:	f8b3 3050 	ldrh.w	r3, [r3, #80]	; 0x50
 80045a6:	b29b      	uxth	r3, r3
 80045a8:	461a      	mov	r2, r3
 80045aa:	6d7b      	ldr	r3, [r7, #84]	; 0x54
 80045ac:	781b      	ldrb	r3, [r3, #0]
 80045ae:	00db      	lsls	r3, r3, #3
 80045b0:	4413      	add	r3, r2
 80045b2:	687a      	ldr	r2, [r7, #4]
 80045b4:	6812      	ldr	r2, [r2, #0]
 80045b6:	4413      	add	r3, r2
 80045b8:	f203 4306 	addw	r3, r3, #1030	; 0x406
 80045bc:	881b      	ldrh	r3, [r3, #0]
 80045be:	f3c3 0209 	ubfx	r2, r3, #0, #10
 80045c2:	6d7b      	ldr	r3, [r7, #84]	; 0x54
 80045c4:	61da      	str	r2, [r3, #28]
 80045c6:	6d7b      	ldr	r3, [r7, #84]	; 0x54
 80045c8:	69db      	ldr	r3, [r3, #28]
 80045ca:	2b00      	cmp	r3, #0
 80045cc:	d019      	beq.n	8004602 <PCD_EP_ISR_Handler+0x1e6>
 80045ce:	6d7b      	ldr	r3, [r7, #84]	; 0x54
 80045d0:	695b      	ldr	r3, [r3, #20]
 80045d2:	2b00      	cmp	r3, #0
 80045d4:	d015      	beq.n	8004602 <PCD_EP_ISR_Handler+0x1e6>
 80045d6:	687b      	ldr	r3, [r7, #4]
 80045d8:	6818      	ldr	r0, [r3, #0]
 80045da:	6d7b      	ldr	r3, [r7, #84]	; 0x54
 80045dc:	6959      	ldr	r1, [r3, #20]
 80045de:	6d7b      	ldr	r3, [r7, #84]	; 0x54
 80045e0:	88da      	ldrh	r2, [r3, #6]
 80045e2:	6d7b      	ldr	r3, [r7, #84]	; 0x54
 80045e4:	69db      	ldr	r3, [r3, #28]
 80045e6:	b29b      	uxth	r3, r3
 80045e8:	f006 fc5e 	bl	800aea8 <USB_ReadPMA>
 80045ec:	6d7b      	ldr	r3, [r7, #84]	; 0x54
 80045ee:	695a      	ldr	r2, [r3, #20]
 80045f0:	6d7b      	ldr	r3, [r7, #84]	; 0x54
 80045f2:	69db      	ldr	r3, [r3, #28]
 80045f4:	441a      	add	r2, r3
 80045f6:	6d7b      	ldr	r3, [r7, #84]	; 0x54
 80045f8:	615a      	str	r2, [r3, #20]
 80045fa:	2100      	movs	r1, #0
 80045fc:	6878      	ldr	r0, [r7, #4]
 80045fe:	f008 fae3 	bl	800cbc8 <HAL_PCD_DataOutStageCallback>
 8004602:	687b      	ldr	r3, [r7, #4]
 8004604:	681b      	ldr	r3, [r3, #0]
 8004606:	881b      	ldrh	r3, [r3, #0]
 8004608:	f8a7 304a 	strh.w	r3, [r7, #74]	; 0x4a
 800460c:	f8b7 304a 	ldrh.w	r3, [r7, #74]	; 0x4a
 8004610:	f403 6300 	and.w	r3, r3, #2048	; 0x800
 8004614:	2b00      	cmp	r3, #0
 8004616:	f040 82b5 	bne.w	8004b84 <PCD_EP_ISR_Handler+0x768>
 800461a:	f8b7 304a 	ldrh.w	r3, [r7, #74]	; 0x4a
 800461e:	f403 5340 	and.w	r3, r3, #12288	; 0x3000
 8004622:	f5b3 5f40 	cmp.w	r3, #12288	; 0x3000
 8004626:	f000 82ad 	beq.w	8004b84 <PCD_EP_ISR_Handler+0x768>
 800462a:	687b      	ldr	r3, [r7, #4]
 800462c:	681b      	ldr	r3, [r3, #0]
 800462e:	61bb      	str	r3, [r7, #24]
 8004630:	687b      	ldr	r3, [r7, #4]
 8004632:	681b      	ldr	r3, [r3, #0]
 8004634:	f8b3 3050 	ldrh.w	r3, [r3, #80]	; 0x50
 8004638:	b29b      	uxth	r3, r3
 800463a:	461a      	mov	r2, r3
 800463c:	69bb      	ldr	r3, [r7, #24]
 800463e:	4413      	add	r3, r2
 8004640:	61bb      	str	r3, [r7, #24]
 8004642:	69bb      	ldr	r3, [r7, #24]
 8004644:	f203 4306 	addw	r3, r3, #1030	; 0x406
 8004648:	617b      	str	r3, [r7, #20]
 800464a:	697b      	ldr	r3, [r7, #20]
 800464c:	881b      	ldrh	r3, [r3, #0]
 800464e:	b29b      	uxth	r3, r3
 8004650:	f3c3 0309 	ubfx	r3, r3, #0, #10
 8004654:	b29a      	uxth	r2, r3
 8004656:	697b      	ldr	r3, [r7, #20]
 8004658:	801a      	strh	r2, [r3, #0]
 800465a:	6d7b      	ldr	r3, [r7, #84]	; 0x54
 800465c:	691b      	ldr	r3, [r3, #16]
 800465e:	2b3e      	cmp	r3, #62	; 0x3e
 8004660:	d91d      	bls.n	800469e <PCD_EP_ISR_Handler+0x282>
 8004662:	6d7b      	ldr	r3, [r7, #84]	; 0x54
 8004664:	691b      	ldr	r3, [r3, #16]
 8004666:	095b      	lsrs	r3, r3, #5
 8004668:	647b      	str	r3, [r7, #68]	; 0x44
 800466a:	6d7b      	ldr	r3, [r7, #84]	; 0x54
 800466c:	691b      	ldr	r3, [r3, #16]
 800466e:	f003 031f 	and.w	r3, r3, #31
 8004672:	2b00      	cmp	r3, #0
 8004674:	d102      	bne.n	800467c <PCD_EP_ISR_Handler+0x260>
 8004676:	6c7b      	ldr	r3, [r7, #68]	; 0x44
 8004678:	3b01      	subs	r3, #1
 800467a:	647b      	str	r3, [r7, #68]	; 0x44
 800467c:	697b      	ldr	r3, [r7, #20]
 800467e:	881b      	ldrh	r3, [r3, #0]
 8004680:	b29a      	uxth	r2, r3
 8004682:	6c7b      	ldr	r3, [r7, #68]	; 0x44
 8004684:	b29b      	uxth	r3, r3
 8004686:	029b      	lsls	r3, r3, #10
 8004688:	b29b      	uxth	r3, r3
 800468a:	4313      	orrs	r3, r2
 800468c:	b29b      	uxth	r3, r3
 800468e:	ea6f 4343 	mvn.w	r3, r3, lsl #17
 8004692:	ea6f 4353 	mvn.w	r3, r3, lsr #17
 8004696:	b29a      	uxth	r2, r3
 8004698:	697b      	ldr	r3, [r7, #20]
 800469a:	801a      	strh	r2, [r3, #0]
 800469c:	e026      	b.n	80046ec <PCD_EP_ISR_Handler+0x2d0>
 800469e:	6d7b      	ldr	r3, [r7, #84]	; 0x54
 80046a0:	691b      	ldr	r3, [r3, #16]
 80046a2:	2b00      	cmp	r3, #0
 80046a4:	d10a      	bne.n	80046bc <PCD_EP_ISR_Handler+0x2a0>
 80046a6:	697b      	ldr	r3, [r7, #20]
 80046a8:	881b      	ldrh	r3, [r3, #0]
 80046aa:	b29b      	uxth	r3, r3
 80046ac:	ea6f 4343 	mvn.w	r3, r3, lsl #17
 80046b0:	ea6f 4353 	mvn.w	r3, r3, lsr #17
 80046b4:	b29a      	uxth	r2, r3
 80046b6:	697b      	ldr	r3, [r7, #20]
 80046b8:	801a      	strh	r2, [r3, #0]
 80046ba:	e017      	b.n	80046ec <PCD_EP_ISR_Handler+0x2d0>
 80046bc:	6d7b      	ldr	r3, [r7, #84]	; 0x54
 80046be:	691b      	ldr	r3, [r3, #16]
 80046c0:	085b      	lsrs	r3, r3, #1
 80046c2:	647b      	str	r3, [r7, #68]	; 0x44
 80046c4:	6d7b      	ldr	r3, [r7, #84]	; 0x54
 80046c6:	691b      	ldr	r3, [r3, #16]
 80046c8:	f003 0301 	and.w	r3, r3, #1
 80046cc:	2b00      	cmp	r3, #0
 80046ce:	d002      	beq.n	80046d6 <PCD_EP_ISR_Handler+0x2ba>
 80046d0:	6c7b      	ldr	r3, [r7, #68]	; 0x44
 80046d2:	3301      	adds	r3, #1
 80046d4:	647b      	str	r3, [r7, #68]	; 0x44
 80046d6:	697b      	ldr	r3, [r7, #20]
 80046d8:	881b      	ldrh	r3, [r3, #0]
 80046da:	b29a      	uxth	r2, r3
 80046dc:	6c7b      	ldr	r3, [r7, #68]	; 0x44
 80046de:	b29b      	uxth	r3, r3
 80046e0:	029b      	lsls	r3, r3, #10
 80046e2:	b29b      	uxth	r3, r3
 80046e4:	4313      	orrs	r3, r2
 80046e6:	b29a      	uxth	r2, r3
 80046e8:	697b      	ldr	r3, [r7, #20]
 80046ea:	801a      	strh	r2, [r3, #0]
 80046ec:	687b      	ldr	r3, [r7, #4]
 80046ee:	681b      	ldr	r3, [r3, #0]
 80046f0:	881b      	ldrh	r3, [r3, #0]
 80046f2:	b29b      	uxth	r3, r3
 80046f4:	f423 4380 	bic.w	r3, r3, #16384	; 0x4000
 80046f8:	f023 0370 	bic.w	r3, r3, #112	; 0x70
 80046fc:	827b      	strh	r3, [r7, #18]
 80046fe:	8a7b      	ldrh	r3, [r7, #18]
 8004700:	f483 5380 	eor.w	r3, r3, #4096	; 0x1000
 8004704:	827b      	strh	r3, [r7, #18]
 8004706:	8a7b      	ldrh	r3, [r7, #18]
 8004708:	f483 5300 	eor.w	r3, r3, #8192	; 0x2000
 800470c:	827b      	strh	r3, [r7, #18]
 800470e:	687b      	ldr	r3, [r7, #4]
 8004710:	681a      	ldr	r2, [r3, #0]
 8004712:	8a7b      	ldrh	r3, [r7, #18]
 8004714:	f043 437f 	orr.w	r3, r3, #4278190080	; 0xff000000
 8004718:	f443 037f 	orr.w	r3, r3, #16711680	; 0xff0000
 800471c:	f443 4300 	orr.w	r3, r3, #32768	; 0x8000
 8004720:	f043 0380 	orr.w	r3, r3, #128	; 0x80
 8004724:	b29b      	uxth	r3, r3
 8004726:	8013      	strh	r3, [r2, #0]
 8004728:	e22c      	b.n	8004b84 <PCD_EP_ISR_Handler+0x768>
 800472a:	687b      	ldr	r3, [r7, #4]
 800472c:	681b      	ldr	r3, [r3, #0]
 800472e:	461a      	mov	r2, r3
 8004730:	f897 304d 	ldrb.w	r3, [r7, #77]	; 0x4d
 8004734:	009b      	lsls	r3, r3, #2
 8004736:	4413      	add	r3, r2
 8004738:	881b      	ldrh	r3, [r3, #0]
 800473a:	f8a7 304a 	strh.w	r3, [r7, #74]	; 0x4a
 800473e:	f9b7 304a 	ldrsh.w	r3, [r7, #74]	; 0x4a
 8004742:	2b00      	cmp	r3, #0
 8004744:	f280 80f6 	bge.w	8004934 <PCD_EP_ISR_Handler+0x518>
 8004748:	687b      	ldr	r3, [r7, #4]
 800474a:	681b      	ldr	r3, [r3, #0]
 800474c:	461a      	mov	r2, r3
 800474e:	f897 304d 	ldrb.w	r3, [r7, #77]	; 0x4d
 8004752:	009b      	lsls	r3, r3, #2
 8004754:	4413      	add	r3, r2
 8004756:	881b      	ldrh	r3, [r3, #0]
 8004758:	b29a      	uxth	r2, r3
 800475a:	f640 738f 	movw	r3, #3983	; 0xf8f
 800475e:	4013      	ands	r3, r2
 8004760:	f8a7 3048 	strh.w	r3, [r7, #72]	; 0x48
 8004764:	687b      	ldr	r3, [r7, #4]
 8004766:	681b      	ldr	r3, [r3, #0]
 8004768:	461a      	mov	r2, r3
 800476a:	f897 304d 	ldrb.w	r3, [r7, #77]	; 0x4d
 800476e:	009b      	lsls	r3, r3, #2
 8004770:	4413      	add	r3, r2
 8004772:	f8b7 2048 	ldrh.w	r2, [r7, #72]	; 0x48
 8004776:	f042 0280 	orr.w	r2, r2, #128	; 0x80
 800477a:	b292      	uxth	r2, r2
 800477c:	801a      	strh	r2, [r3, #0]
 800477e:	f897 204d 	ldrb.w	r2, [r7, #77]	; 0x4d
 8004782:	4613      	mov	r3, r2
 8004784:	009b      	lsls	r3, r3, #2
 8004786:	4413      	add	r3, r2
 8004788:	00db      	lsls	r3, r3, #3
 800478a:	f503 73a8 	add.w	r3, r3, #336	; 0x150
 800478e:	687a      	ldr	r2, [r7, #4]
 8004790:	4413      	add	r3, r2
 8004792:	657b      	str	r3, [r7, #84]	; 0x54
 8004794:	6d7b      	ldr	r3, [r7, #84]	; 0x54
 8004796:	7b1b      	ldrb	r3, [r3, #12]
 8004798:	2b00      	cmp	r3, #0
 800479a:	d123      	bne.n	80047e4 <PCD_EP_ISR_Handler+0x3c8>
 800479c:	687b      	ldr	r3, [r7, #4]
 800479e:	681b      	ldr	r3, [r3, #0]
 80047a0:	f8b3 3050 	ldrh.w	r3, [r3, #80]	; 0x50
 80047a4:	b29b      	uxth	r3, r3
 80047a6:	461a      	mov	r2, r3
 80047a8:	6d7b      	ldr	r3, [r7, #84]	; 0x54
 80047aa:	781b      	ldrb	r3, [r3, #0]
 80047ac:	00db      	lsls	r3, r3, #3
 80047ae:	4413      	add	r3, r2
 80047b0:	687a      	ldr	r2, [r7, #4]
 80047b2:	6812      	ldr	r2, [r2, #0]
 80047b4:	4413      	add	r3, r2
 80047b6:	f203 4306 	addw	r3, r3, #1030	; 0x406
 80047ba:	881b      	ldrh	r3, [r3, #0]
 80047bc:	f3c3 0309 	ubfx	r3, r3, #0, #10
 80047c0:	f8a7 3050 	strh.w	r3, [r7, #80]	; 0x50
 80047c4:	f8b7 3050 	ldrh.w	r3, [r7, #80]	; 0x50
 80047c8:	2b00      	cmp	r3, #0
 80047ca:	f000 808e 	beq.w	80048ea <PCD_EP_ISR_Handler+0x4ce>
 80047ce:	687b      	ldr	r3, [r7, #4]
 80047d0:	6818      	ldr	r0, [r3, #0]
 80047d2:	6d7b      	ldr	r3, [r7, #84]	; 0x54
 80047d4:	6959      	ldr	r1, [r3, #20]
 80047d6:	6d7b      	ldr	r3, [r7, #84]	; 0x54
 80047d8:	88da      	ldrh	r2, [r3, #6]
 80047da:	f8b7 3050 	ldrh.w	r3, [r7, #80]	; 0x50
 80047de:	f006 fb63 	bl	800aea8 <USB_ReadPMA>
 80047e2:	e082      	b.n	80048ea <PCD_EP_ISR_Handler+0x4ce>
 80047e4:	6d7b      	ldr	r3, [r7, #84]	; 0x54
 80047e6:	78db      	ldrb	r3, [r3, #3]
 80047e8:	2b02      	cmp	r3, #2
 80047ea:	d10a      	bne.n	8004802 <PCD_EP_ISR_Handler+0x3e6>
 80047ec:	f8b7 304a 	ldrh.w	r3, [r7, #74]	; 0x4a
 80047f0:	461a      	mov	r2, r3
 80047f2:	6d79      	ldr	r1, [r7, #84]	; 0x54
 80047f4:	6878      	ldr	r0, [r7, #4]
 80047f6:	f000 f9d3 	bl	8004ba0 <HAL_PCD_EP_DB_Receive>
 80047fa:	4603      	mov	r3, r0
 80047fc:	f8a7 3050 	strh.w	r3, [r7, #80]	; 0x50
 8004800:	e073      	b.n	80048ea <PCD_EP_ISR_Handler+0x4ce>
 8004802:	687b      	ldr	r3, [r7, #4]
 8004804:	681b      	ldr	r3, [r3, #0]
 8004806:	461a      	mov	r2, r3
 8004808:	6d7b      	ldr	r3, [r7, #84]	; 0x54
 800480a:	781b      	ldrb	r3, [r3, #0]
 800480c:	009b      	lsls	r3, r3, #2
 800480e:	4413      	add	r3, r2
 8004810:	881b      	ldrh	r3, [r3, #0]
 8004812:	b29b      	uxth	r3, r3
 8004814:	f423 43e0 	bic.w	r3, r3, #28672	; 0x7000
 8004818:	f023 0370 	bic.w	r3, r3, #112	; 0x70
 800481c:	f8a7 3052 	strh.w	r3, [r7, #82]	; 0x52
 8004820:	687b      	ldr	r3, [r7, #4]
 8004822:	681b      	ldr	r3, [r3, #0]
 8004824:	461a      	mov	r2, r3
 8004826:	6d7b      	ldr	r3, [r7, #84]	; 0x54
 8004828:	781b      	ldrb	r3, [r3, #0]
 800482a:	009b      	lsls	r3, r3, #2
 800482c:	441a      	add	r2, r3
 800482e:	f8b7 3052 	ldrh.w	r3, [r7, #82]	; 0x52
 8004832:	f043 437f 	orr.w	r3, r3, #4278190080	; 0xff000000
 8004836:	f443 037f 	orr.w	r3, r3, #16711680	; 0xff0000
 800483a:	f443 4300 	orr.w	r3, r3, #32768	; 0x8000
 800483e:	f043 03c0 	orr.w	r3, r3, #192	; 0xc0
 8004842:	b29b      	uxth	r3, r3
 8004844:	8013      	strh	r3, [r2, #0]
 8004846:	687b      	ldr	r3, [r7, #4]
 8004848:	681b      	ldr	r3, [r3, #0]
 800484a:	461a      	mov	r2, r3
 800484c:	6d7b      	ldr	r3, [r7, #84]	; 0x54
 800484e:	781b      	ldrb	r3, [r3, #0]
 8004850:	009b      	lsls	r3, r3, #2
 8004852:	4413      	add	r3, r2
 8004854:	881b      	ldrh	r3, [r3, #0]
 8004856:	b29b      	uxth	r3, r3
 8004858:	f403 4380 	and.w	r3, r3, #16384	; 0x4000
 800485c:	2b00      	cmp	r3, #0
 800485e:	d022      	beq.n	80048a6 <PCD_EP_ISR_Handler+0x48a>
 8004860:	687b      	ldr	r3, [r7, #4]
 8004862:	681b      	ldr	r3, [r3, #0]
 8004864:	f8b3 3050 	ldrh.w	r3, [r3, #80]	; 0x50
 8004868:	b29b      	uxth	r3, r3
 800486a:	461a      	mov	r2, r3
 800486c:	6d7b      	ldr	r3, [r7, #84]	; 0x54
 800486e:	781b      	ldrb	r3, [r3, #0]
 8004870:	00db      	lsls	r3, r3, #3
 8004872:	4413      	add	r3, r2
 8004874:	687a      	ldr	r2, [r7, #4]
 8004876:	6812      	ldr	r2, [r2, #0]
 8004878:	4413      	add	r3, r2
 800487a:	f203 4302 	addw	r3, r3, #1026	; 0x402
 800487e:	881b      	ldrh	r3, [r3, #0]
 8004880:	f3c3 0309 	ubfx	r3, r3, #0, #10
 8004884:	f8a7 3050 	strh.w	r3, [r7, #80]	; 0x50
 8004888:	f8b7 3050 	ldrh.w	r3, [r7, #80]	; 0x50
 800488c:	2b00      	cmp	r3, #0
 800488e:	d02c      	beq.n	80048ea <PCD_EP_ISR_Handler+0x4ce>
 8004890:	687b      	ldr	r3, [r7, #4]
 8004892:	6818      	ldr	r0, [r3, #0]
 8004894:	6d7b      	ldr	r3, [r7, #84]	; 0x54
 8004896:	6959      	ldr	r1, [r3, #20]
 8004898:	6d7b      	ldr	r3, [r7, #84]	; 0x54
 800489a:	891a      	ldrh	r2, [r3, #8]
 800489c:	f8b7 3050 	ldrh.w	r3, [r7, #80]	; 0x50
 80048a0:	f006 fb02 	bl	800aea8 <USB_ReadPMA>
 80048a4:	e021      	b.n	80048ea <PCD_EP_ISR_Handler+0x4ce>
 80048a6:	687b      	ldr	r3, [r7, #4]
 80048a8:	681b      	ldr	r3, [r3, #0]
 80048aa:	f8b3 3050 	ldrh.w	r3, [r3, #80]	; 0x50
 80048ae:	b29b      	uxth	r3, r3
 80048b0:	461a      	mov	r2, r3
 80048b2:	6d7b      	ldr	r3, [r7, #84]	; 0x54
 80048b4:	781b      	ldrb	r3, [r3, #0]
 80048b6:	00db      	lsls	r3, r3, #3
 80048b8:	4413      	add	r3, r2
 80048ba:	687a      	ldr	r2, [r7, #4]
 80048bc:	6812      	ldr	r2, [r2, #0]
 80048be:	4413      	add	r3, r2
 80048c0:	f203 4306 	addw	r3, r3, #1030	; 0x406
 80048c4:	881b      	ldrh	r3, [r3, #0]
 80048c6:	f3c3 0309 	ubfx	r3, r3, #0, #10
 80048ca:	f8a7 3050 	strh.w	r3, [r7, #80]	; 0x50
 80048ce:	f8b7 3050 	ldrh.w	r3, [r7, #80]	; 0x50
 80048d2:	2b00      	cmp	r3, #0
 80048d4:	d009      	beq.n	80048ea <PCD_EP_ISR_Handler+0x4ce>
 80048d6:	687b      	ldr	r3, [r7, #4]
 80048d8:	6818      	ldr	r0, [r3, #0]
 80048da:	6d7b      	ldr	r3, [r7, #84]	; 0x54
 80048dc:	6959      	ldr	r1, [r3, #20]
 80048de:	6d7b      	ldr	r3, [r7, #84]	; 0x54
 80048e0:	895a      	ldrh	r2, [r3, #10]
 80048e2:	f8b7 3050 	ldrh.w	r3, [r7, #80]	; 0x50
 80048e6:	f006 fadf 	bl	800aea8 <USB_ReadPMA>
 80048ea:	6d7b      	ldr	r3, [r7, #84]	; 0x54
 80048ec:	69da      	ldr	r2, [r3, #28]
 80048ee:	f8b7 3050 	ldrh.w	r3, [r7, #80]	; 0x50
 80048f2:	441a      	add	r2, r3
 80048f4:	6d7b      	ldr	r3, [r7, #84]	; 0x54
 80048f6:	61da      	str	r2, [r3, #28]
 80048f8:	6d7b      	ldr	r3, [r7, #84]	; 0x54
 80048fa:	695a      	ldr	r2, [r3, #20]
 80048fc:	f8b7 3050 	ldrh.w	r3, [r7, #80]	; 0x50
 8004900:	441a      	add	r2, r3
 8004902:	6d7b      	ldr	r3, [r7, #84]	; 0x54
 8004904:	615a      	str	r2, [r3, #20]
 8004906:	6d7b      	ldr	r3, [r7, #84]	; 0x54
 8004908:	699b      	ldr	r3, [r3, #24]
 800490a:	2b00      	cmp	r3, #0
 800490c:	d005      	beq.n	800491a <PCD_EP_ISR_Handler+0x4fe>
 800490e:	f8b7 2050 	ldrh.w	r2, [r7, #80]	; 0x50
 8004912:	6d7b      	ldr	r3, [r7, #84]	; 0x54
 8004914:	691b      	ldr	r3, [r3, #16]
 8004916:	429a      	cmp	r2, r3
 8004918:	d206      	bcs.n	8004928 <PCD_EP_ISR_Handler+0x50c>
 800491a:	6d7b      	ldr	r3, [r7, #84]	; 0x54
 800491c:	781b      	ldrb	r3, [r3, #0]
 800491e:	4619      	mov	r1, r3
 8004920:	6878      	ldr	r0, [r7, #4]
 8004922:	f008 f951 	bl	800cbc8 <HAL_PCD_DataOutStageCallback>
 8004926:	e005      	b.n	8004934 <PCD_EP_ISR_Handler+0x518>
 8004928:	687b      	ldr	r3, [r7, #4]
 800492a:	681b      	ldr	r3, [r3, #0]
 800492c:	6d79      	ldr	r1, [r7, #84]	; 0x54
 800492e:	4618      	mov	r0, r3
 8004930:	f004 fd8d 	bl	800944e <USB_EPStartXfer>
 8004934:	f8b7 304a 	ldrh.w	r3, [r7, #74]	; 0x4a
 8004938:	f003 0380 	and.w	r3, r3, #128	; 0x80
 800493c:	2b00      	cmp	r3, #0
 800493e:	f000 8121 	beq.w	8004b84 <PCD_EP_ISR_Handler+0x768>
 8004942:	f897 204d 	ldrb.w	r2, [r7, #77]	; 0x4d
 8004946:	4613      	mov	r3, r2
 8004948:	009b      	lsls	r3, r3, #2
 800494a:	4413      	add	r3, r2
 800494c:	00db      	lsls	r3, r3, #3
 800494e:	3310      	adds	r3, #16
 8004950:	687a      	ldr	r2, [r7, #4]
 8004952:	4413      	add	r3, r2
 8004954:	657b      	str	r3, [r7, #84]	; 0x54
 8004956:	687b      	ldr	r3, [r7, #4]
 8004958:	681b      	ldr	r3, [r3, #0]
 800495a:	461a      	mov	r2, r3
 800495c:	f897 304d 	ldrb.w	r3, [r7, #77]	; 0x4d
 8004960:	009b      	lsls	r3, r3, #2
 8004962:	4413      	add	r3, r2
 8004964:	881b      	ldrh	r3, [r3, #0]
 8004966:	b29b      	uxth	r3, r3
 8004968:	f423 43e1 	bic.w	r3, r3, #28800	; 0x7080
 800496c:	f023 0370 	bic.w	r3, r3, #112	; 0x70
 8004970:	f8a7 3042 	strh.w	r3, [r7, #66]	; 0x42
 8004974:	687b      	ldr	r3, [r7, #4]
 8004976:	681b      	ldr	r3, [r3, #0]
 8004978:	461a      	mov	r2, r3
 800497a:	f897 304d 	ldrb.w	r3, [r7, #77]	; 0x4d
 800497e:	009b      	lsls	r3, r3, #2
 8004980:	441a      	add	r2, r3
 8004982:	f8b7 3042 	ldrh.w	r3, [r7, #66]	; 0x42
 8004986:	ea6f 4343 	mvn.w	r3, r3, lsl #17
 800498a:	ea6f 4353 	mvn.w	r3, r3, lsr #17
 800498e:	b29b      	uxth	r3, r3
 8004990:	8013      	strh	r3, [r2, #0]
 8004992:	6d7b      	ldr	r3, [r7, #84]	; 0x54
 8004994:	78db      	ldrb	r3, [r3, #3]
 8004996:	2b01      	cmp	r3, #1
 8004998:	f040 80a2 	bne.w	8004ae0 <PCD_EP_ISR_Handler+0x6c4>
 800499c:	6d7b      	ldr	r3, [r7, #84]	; 0x54
 800499e:	2200      	movs	r2, #0
 80049a0:	619a      	str	r2, [r3, #24]
 80049a2:	6d7b      	ldr	r3, [r7, #84]	; 0x54
 80049a4:	7b1b      	ldrb	r3, [r3, #12]
 80049a6:	2b00      	cmp	r3, #0
 80049a8:	f000 8093 	beq.w	8004ad2 <PCD_EP_ISR_Handler+0x6b6>
 80049ac:	f8b7 304a 	ldrh.w	r3, [r7, #74]	; 0x4a
 80049b0:	f003 0340 	and.w	r3, r3, #64	; 0x40
 80049b4:	2b00      	cmp	r3, #0
 80049b6:	d046      	beq.n	8004a46 <PCD_EP_ISR_Handler+0x62a>
 80049b8:	6d7b      	ldr	r3, [r7, #84]	; 0x54
 80049ba:	785b      	ldrb	r3, [r3, #1]
 80049bc:	2b00      	cmp	r3, #0
 80049be:	d126      	bne.n	8004a0e <PCD_EP_ISR_Handler+0x5f2>
 80049c0:	687b      	ldr	r3, [r7, #4]
 80049c2:	681b      	ldr	r3, [r3, #0]
 80049c4:	627b      	str	r3, [r7, #36]	; 0x24
 80049c6:	687b      	ldr	r3, [r7, #4]
 80049c8:	681b      	ldr	r3, [r3, #0]
 80049ca:	f8b3 3050 	ldrh.w	r3, [r3, #80]	; 0x50
 80049ce:	b29b      	uxth	r3, r3
 80049d0:	461a      	mov	r2, r3
 80049d2:	6a7b      	ldr	r3, [r7, #36]	; 0x24
 80049d4:	4413      	add	r3, r2
 80049d6:	627b      	str	r3, [r7, #36]	; 0x24
 80049d8:	6d7b      	ldr	r3, [r7, #84]	; 0x54
 80049da:	781b      	ldrb	r3, [r3, #0]
 80049dc:	00da      	lsls	r2, r3, #3
 80049de:	6a7b      	ldr	r3, [r7, #36]	; 0x24
 80049e0:	4413      	add	r3, r2
 80049e2:	f203 4302 	addw	r3, r3, #1026	; 0x402
 80049e6:	623b      	str	r3, [r7, #32]
 80049e8:	6a3b      	ldr	r3, [r7, #32]
 80049ea:	881b      	ldrh	r3, [r3, #0]
 80049ec:	b29b      	uxth	r3, r3
 80049ee:	f3c3 0309 	ubfx	r3, r3, #0, #10
 80049f2:	b29a      	uxth	r2, r3
 80049f4:	6a3b      	ldr	r3, [r7, #32]
 80049f6:	801a      	strh	r2, [r3, #0]
 80049f8:	6a3b      	ldr	r3, [r7, #32]
 80049fa:	881b      	ldrh	r3, [r3, #0]
 80049fc:	b29b      	uxth	r3, r3
 80049fe:	ea6f 4343 	mvn.w	r3, r3, lsl #17
 8004a02:	ea6f 4353 	mvn.w	r3, r3, lsr #17
 8004a06:	b29a      	uxth	r2, r3
 8004a08:	6a3b      	ldr	r3, [r7, #32]
 8004a0a:	801a      	strh	r2, [r3, #0]
 8004a0c:	e061      	b.n	8004ad2 <PCD_EP_ISR_Handler+0x6b6>
 8004a0e:	6d7b      	ldr	r3, [r7, #84]	; 0x54
 8004a10:	785b      	ldrb	r3, [r3, #1]
 8004a12:	2b01      	cmp	r3, #1
 8004a14:	d15d      	bne.n	8004ad2 <PCD_EP_ISR_Handler+0x6b6>
 8004a16:	687b      	ldr	r3, [r7, #4]
 8004a18:	681b      	ldr	r3, [r3, #0]
 8004a1a:	62fb      	str	r3, [r7, #44]	; 0x2c
 8004a1c:	687b      	ldr	r3, [r7, #4]
 8004a1e:	681b      	ldr	r3, [r3, #0]
 8004a20:	f8b3 3050 	ldrh.w	r3, [r3, #80]	; 0x50
 8004a24:	b29b      	uxth	r3, r3
 8004a26:	461a      	mov	r2, r3
 8004a28:	6afb      	ldr	r3, [r7, #44]	; 0x2c
 8004a2a:	4413      	add	r3, r2
 8004a2c:	62fb      	str	r3, [r7, #44]	; 0x2c
 8004a2e:	6d7b      	ldr	r3, [r7, #84]	; 0x54
 8004a30:	781b      	ldrb	r3, [r3, #0]
 8004a32:	00da      	lsls	r2, r3, #3
 8004a34:	6afb      	ldr	r3, [r7, #44]	; 0x2c
 8004a36:	4413      	add	r3, r2
 8004a38:	f203 4302 	addw	r3, r3, #1026	; 0x402
 8004a3c:	62bb      	str	r3, [r7, #40]	; 0x28
 8004a3e:	6abb      	ldr	r3, [r7, #40]	; 0x28
 8004a40:	2200      	movs	r2, #0
 8004a42:	801a      	strh	r2, [r3, #0]
 8004a44:	e045      	b.n	8004ad2 <PCD_EP_ISR_Handler+0x6b6>
 8004a46:	687b      	ldr	r3, [r7, #4]
 8004a48:	681b      	ldr	r3, [r3, #0]
 8004a4a:	63fb      	str	r3, [r7, #60]	; 0x3c
 8004a4c:	6d7b      	ldr	r3, [r7, #84]	; 0x54
 8004a4e:	785b      	ldrb	r3, [r3, #1]
 8004a50:	2b00      	cmp	r3, #0
 8004a52:	d126      	bne.n	8004aa2 <PCD_EP_ISR_Handler+0x686>
 8004a54:	687b      	ldr	r3, [r7, #4]
 8004a56:	681b      	ldr	r3, [r3, #0]
 8004a58:	637b      	str	r3, [r7, #52]	; 0x34
 8004a5a:	687b      	ldr	r3, [r7, #4]
 8004a5c:	681b      	ldr	r3, [r3, #0]
 8004a5e:	f8b3 3050 	ldrh.w	r3, [r3, #80]	; 0x50
 8004a62:	b29b      	uxth	r3, r3
 8004a64:	461a      	mov	r2, r3
 8004a66:	6b7b      	ldr	r3, [r7, #52]	; 0x34
 8004a68:	4413      	add	r3, r2
 8004a6a:	637b      	str	r3, [r7, #52]	; 0x34
 8004a6c:	6d7b      	ldr	r3, [r7, #84]	; 0x54
 8004a6e:	781b      	ldrb	r3, [r3, #0]
 8004a70:	00da      	lsls	r2, r3, #3
 8004a72:	6b7b      	ldr	r3, [r7, #52]	; 0x34
 8004a74:	4413      	add	r3, r2
 8004a76:	f203 4306 	addw	r3, r3, #1030	; 0x406
 8004a7a:	633b      	str	r3, [r7, #48]	; 0x30
 8004a7c:	6b3b      	ldr	r3, [r7, #48]	; 0x30
 8004a7e:	881b      	ldrh	r3, [r3, #0]
 8004a80:	b29b      	uxth	r3, r3
 8004a82:	f3c3 0309 	ubfx	r3, r3, #0, #10
 8004a86:	b29a      	uxth	r2, r3
 8004a88:	6b3b      	ldr	r3, [r7, #48]	; 0x30
 8004a8a:	801a      	strh	r2, [r3, #0]
 8004a8c:	6b3b      	ldr	r3, [r7, #48]	; 0x30
 8004a8e:	881b      	ldrh	r3, [r3, #0]
 8004a90:	b29b      	uxth	r3, r3
 8004a92:	ea6f 4343 	mvn.w	r3, r3, lsl #17
 8004a96:	ea6f 4353 	mvn.w	r3, r3, lsr #17
 8004a9a:	b29a      	uxth	r2, r3
 8004a9c:	6b3b      	ldr	r3, [r7, #48]	; 0x30
 8004a9e:	801a      	strh	r2, [r3, #0]
 8004aa0:	e017      	b.n	8004ad2 <PCD_EP_ISR_Handler+0x6b6>
 8004aa2:	6d7b      	ldr	r3, [r7, #84]	; 0x54
 8004aa4:	785b      	ldrb	r3, [r3, #1]
 8004aa6:	2b01      	cmp	r3, #1
 8004aa8:	d113      	bne.n	8004ad2 <PCD_EP_ISR_Handler+0x6b6>
 8004aaa:	687b      	ldr	r3, [r7, #4]
 8004aac:	681b      	ldr	r3, [r3, #0]
 8004aae:	f8b3 3050 	ldrh.w	r3, [r3, #80]	; 0x50
 8004ab2:	b29b      	uxth	r3, r3
 8004ab4:	461a      	mov	r2, r3
 8004ab6:	6bfb      	ldr	r3, [r7, #60]	; 0x3c
 8004ab8:	4413      	add	r3, r2
 8004aba:	63fb      	str	r3, [r7, #60]	; 0x3c
 8004abc:	6d7b      	ldr	r3, [r7, #84]	; 0x54
 8004abe:	781b      	ldrb	r3, [r3, #0]
 8004ac0:	00da      	lsls	r2, r3, #3
 8004ac2:	6bfb      	ldr	r3, [r7, #60]	; 0x3c
 8004ac4:	4413      	add	r3, r2
 8004ac6:	f203 4306 	addw	r3, r3, #1030	; 0x406
 8004aca:	63bb      	str	r3, [r7, #56]	; 0x38
 8004acc:	6bbb      	ldr	r3, [r7, #56]	; 0x38
 8004ace:	2200      	movs	r2, #0
 8004ad0:	801a      	strh	r2, [r3, #0]
 8004ad2:	6d7b      	ldr	r3, [r7, #84]	; 0x54
 8004ad4:	781b      	ldrb	r3, [r3, #0]
 8004ad6:	4619      	mov	r1, r3
 8004ad8:	6878      	ldr	r0, [r7, #4]
 8004ada:	f008 f890 	bl	800cbfe <HAL_PCD_DataInStageCallback>
 8004ade:	e051      	b.n	8004b84 <PCD_EP_ISR_Handler+0x768>
 8004ae0:	f8b7 304a 	ldrh.w	r3, [r7, #74]	; 0x4a
 8004ae4:	f403 7380 	and.w	r3, r3, #256	; 0x100
 8004ae8:	2b00      	cmp	r3, #0
 8004aea:	d144      	bne.n	8004b76 <PCD_EP_ISR_Handler+0x75a>
 8004aec:	687b      	ldr	r3, [r7, #4]
 8004aee:	681b      	ldr	r3, [r3, #0]
 8004af0:	f8b3 3050 	ldrh.w	r3, [r3, #80]	; 0x50
 8004af4:	b29b      	uxth	r3, r3
 8004af6:	461a      	mov	r2, r3
 8004af8:	6d7b      	ldr	r3, [r7, #84]	; 0x54
 8004afa:	781b      	ldrb	r3, [r3, #0]
 8004afc:	00db      	lsls	r3, r3, #3
 8004afe:	4413      	add	r3, r2
 8004b00:	687a      	ldr	r2, [r7, #4]
 8004b02:	6812      	ldr	r2, [r2, #0]
 8004b04:	4413      	add	r3, r2
 8004b06:	f203 4302 	addw	r3, r3, #1026	; 0x402
 8004b0a:	881b      	ldrh	r3, [r3, #0]
 8004b0c:	f3c3 0309 	ubfx	r3, r3, #0, #10
 8004b10:	f8a7 3040 	strh.w	r3, [r7, #64]	; 0x40
 8004b14:	6d7b      	ldr	r3, [r7, #84]	; 0x54
 8004b16:	699a      	ldr	r2, [r3, #24]
 8004b18:	f8b7 3040 	ldrh.w	r3, [r7, #64]	; 0x40
 8004b1c:	429a      	cmp	r2, r3
 8004b1e:	d907      	bls.n	8004b30 <PCD_EP_ISR_Handler+0x714>
 8004b20:	6d7b      	ldr	r3, [r7, #84]	; 0x54
 8004b22:	699a      	ldr	r2, [r3, #24]
 8004b24:	f8b7 3040 	ldrh.w	r3, [r7, #64]	; 0x40
 8004b28:	1ad2      	subs	r2, r2, r3
 8004b2a:	6d7b      	ldr	r3, [r7, #84]	; 0x54
 8004b2c:	619a      	str	r2, [r3, #24]
 8004b2e:	e002      	b.n	8004b36 <PCD_EP_ISR_Handler+0x71a>
 8004b30:	6d7b      	ldr	r3, [r7, #84]	; 0x54
 8004b32:	2200      	movs	r2, #0
 8004b34:	619a      	str	r2, [r3, #24]
 8004b36:	6d7b      	ldr	r3, [r7, #84]	; 0x54
 8004b38:	699b      	ldr	r3, [r3, #24]
 8004b3a:	2b00      	cmp	r3, #0
 8004b3c:	d106      	bne.n	8004b4c <PCD_EP_ISR_Handler+0x730>
 8004b3e:	6d7b      	ldr	r3, [r7, #84]	; 0x54
 8004b40:	781b      	ldrb	r3, [r3, #0]
 8004b42:	4619      	mov	r1, r3
 8004b44:	6878      	ldr	r0, [r7, #4]
 8004b46:	f008 f85a 	bl	800cbfe <HAL_PCD_DataInStageCallback>
 8004b4a:	e01b      	b.n	8004b84 <PCD_EP_ISR_Handler+0x768>
 8004b4c:	6d7b      	ldr	r3, [r7, #84]	; 0x54
 8004b4e:	695a      	ldr	r2, [r3, #20]
 8004b50:	f8b7 3040 	ldrh.w	r3, [r7, #64]	; 0x40
 8004b54:	441a      	add	r2, r3
 8004b56:	6d7b      	ldr	r3, [r7, #84]	; 0x54
 8004b58:	615a      	str	r2, [r3, #20]
 8004b5a:	6d7b      	ldr	r3, [r7, #84]	; 0x54
 8004b5c:	69da      	ldr	r2, [r3, #28]
 8004b5e:	f8b7 3040 	ldrh.w	r3, [r7, #64]	; 0x40
 8004b62:	441a      	add	r2, r3
 8004b64:	6d7b      	ldr	r3, [r7, #84]	; 0x54
 8004b66:	61da      	str	r2, [r3, #28]
 8004b68:	687b      	ldr	r3, [r7, #4]
 8004b6a:	681b      	ldr	r3, [r3, #0]
 8004b6c:	6d79      	ldr	r1, [r7, #84]	; 0x54
 8004b6e:	4618      	mov	r0, r3
 8004b70:	f004 fc6d 	bl	800944e <USB_EPStartXfer>
 8004b74:	e006      	b.n	8004b84 <PCD_EP_ISR_Handler+0x768>
 8004b76:	f8b7 304a 	ldrh.w	r3, [r7, #74]	; 0x4a
 8004b7a:	461a      	mov	r2, r3
 8004b7c:	6d79      	ldr	r1, [r7, #84]	; 0x54
 8004b7e:	6878      	ldr	r0, [r7, #4]
 8004b80:	f000 f917 	bl	8004db2 <HAL_PCD_EP_DB_Transmit>
 8004b84:	687b      	ldr	r3, [r7, #4]
 8004b86:	681b      	ldr	r3, [r3, #0]
 8004b88:	f8b3 3044 	ldrh.w	r3, [r3, #68]	; 0x44
 8004b8c:	b29b      	uxth	r3, r3
 8004b8e:	b21b      	sxth	r3, r3
 8004b90:	2b00      	cmp	r3, #0
 8004b92:	f6ff ac48 	blt.w	8004426 <PCD_EP_ISR_Handler+0xa>
 8004b96:	2300      	movs	r3, #0
 8004b98:	4618      	mov	r0, r3
 8004b9a:	3758      	adds	r7, #88	; 0x58
 8004b9c:	46bd      	mov	sp, r7
 8004b9e:	bd80      	pop	{r7, pc}

08004ba0 <HAL_PCD_EP_DB_Receive>:
 8004ba0:	b580      	push	{r7, lr}
 8004ba2:	b088      	sub	sp, #32
 8004ba4:	af00      	add	r7, sp, #0
 8004ba6:	60f8      	str	r0, [r7, #12]
 8004ba8:	60b9      	str	r1, [r7, #8]
 8004baa:	4613      	mov	r3, r2
 8004bac:	80fb      	strh	r3, [r7, #6]
 8004bae:	88fb      	ldrh	r3, [r7, #6]
 8004bb0:	f403 4380 	and.w	r3, r3, #16384	; 0x4000
 8004bb4:	2b00      	cmp	r3, #0
 8004bb6:	d07c      	beq.n	8004cb2 <HAL_PCD_EP_DB_Receive+0x112>
 8004bb8:	68fb      	ldr	r3, [r7, #12]
 8004bba:	681b      	ldr	r3, [r3, #0]
 8004bbc:	f8b3 3050 	ldrh.w	r3, [r3, #80]	; 0x50
 8004bc0:	b29b      	uxth	r3, r3
 8004bc2:	461a      	mov	r2, r3
 8004bc4:	68bb      	ldr	r3, [r7, #8]
 8004bc6:	781b      	ldrb	r3, [r3, #0]
 8004bc8:	00db      	lsls	r3, r3, #3
 8004bca:	4413      	add	r3, r2
 8004bcc:	68fa      	ldr	r2, [r7, #12]
 8004bce:	6812      	ldr	r2, [r2, #0]
 8004bd0:	4413      	add	r3, r2
 8004bd2:	f203 4302 	addw	r3, r3, #1026	; 0x402
 8004bd6:	881b      	ldrh	r3, [r3, #0]
 8004bd8:	f3c3 0309 	ubfx	r3, r3, #0, #10
 8004bdc:	837b      	strh	r3, [r7, #26]
 8004bde:	68bb      	ldr	r3, [r7, #8]
 8004be0:	699a      	ldr	r2, [r3, #24]
 8004be2:	8b7b      	ldrh	r3, [r7, #26]
 8004be4:	429a      	cmp	r2, r3
 8004be6:	d306      	bcc.n	8004bf6 <HAL_PCD_EP_DB_Receive+0x56>
 8004be8:	68bb      	ldr	r3, [r7, #8]
 8004bea:	699a      	ldr	r2, [r3, #24]
 8004bec:	8b7b      	ldrh	r3, [r7, #26]
 8004bee:	1ad2      	subs	r2, r2, r3
 8004bf0:	68bb      	ldr	r3, [r7, #8]
 8004bf2:	619a      	str	r2, [r3, #24]
 8004bf4:	e002      	b.n	8004bfc <HAL_PCD_EP_DB_Receive+0x5c>
 8004bf6:	68bb      	ldr	r3, [r7, #8]
 8004bf8:	2200      	movs	r2, #0
 8004bfa:	619a      	str	r2, [r3, #24]
 8004bfc:	68bb      	ldr	r3, [r7, #8]
 8004bfe:	699b      	ldr	r3, [r3, #24]
 8004c00:	2b00      	cmp	r3, #0
 8004c02:	d123      	bne.n	8004c4c <HAL_PCD_EP_DB_Receive+0xac>
 8004c04:	68fb      	ldr	r3, [r7, #12]
 8004c06:	681b      	ldr	r3, [r3, #0]
 8004c08:	461a      	mov	r2, r3
 8004c0a:	68bb      	ldr	r3, [r7, #8]
 8004c0c:	781b      	ldrb	r3, [r3, #0]
 8004c0e:	009b      	lsls	r3, r3, #2
 8004c10:	4413      	add	r3, r2
 8004c12:	881b      	ldrh	r3, [r3, #0]
 8004c14:	b29b      	uxth	r3, r3
 8004c16:	f423 4380 	bic.w	r3, r3, #16384	; 0x4000
 8004c1a:	f023 0370 	bic.w	r3, r3, #112	; 0x70
 8004c1e:	833b      	strh	r3, [r7, #24]
 8004c20:	8b3b      	ldrh	r3, [r7, #24]
 8004c22:	f483 5300 	eor.w	r3, r3, #8192	; 0x2000
 8004c26:	833b      	strh	r3, [r7, #24]
 8004c28:	68fb      	ldr	r3, [r7, #12]
 8004c2a:	681b      	ldr	r3, [r3, #0]
 8004c2c:	461a      	mov	r2, r3
 8004c2e:	68bb      	ldr	r3, [r7, #8]
 8004c30:	781b      	ldrb	r3, [r3, #0]
 8004c32:	009b      	lsls	r3, r3, #2
 8004c34:	441a      	add	r2, r3
 8004c36:	8b3b      	ldrh	r3, [r7, #24]
 8004c38:	f043 437f 	orr.w	r3, r3, #4278190080	; 0xff000000
 8004c3c:	f443 037f 	orr.w	r3, r3, #16711680	; 0xff0000
 8004c40:	f443 4300 	orr.w	r3, r3, #32768	; 0x8000
 8004c44:	f043 0380 	orr.w	r3, r3, #128	; 0x80
 8004c48:	b29b      	uxth	r3, r3
 8004c4a:	8013      	strh	r3, [r2, #0]
 8004c4c:	88fb      	ldrh	r3, [r7, #6]
 8004c4e:	f003 0340 	and.w	r3, r3, #64	; 0x40
 8004c52:	2b00      	cmp	r3, #0
 8004c54:	d01f      	beq.n	8004c96 <HAL_PCD_EP_DB_Receive+0xf6>
 8004c56:	68fb      	ldr	r3, [r7, #12]
 8004c58:	681b      	ldr	r3, [r3, #0]
 8004c5a:	461a      	mov	r2, r3
 8004c5c:	68bb      	ldr	r3, [r7, #8]
 8004c5e:	781b      	ldrb	r3, [r3, #0]
 8004c60:	009b      	lsls	r3, r3, #2
 8004c62:	4413      	add	r3, r2
 8004c64:	881b      	ldrh	r3, [r3, #0]
 8004c66:	b29b      	uxth	r3, r3
 8004c68:	f423 43e0 	bic.w	r3, r3, #28672	; 0x7000
 8004c6c:	f023 0370 	bic.w	r3, r3, #112	; 0x70
 8004c70:	82fb      	strh	r3, [r7, #22]
 8004c72:	68fb      	ldr	r3, [r7, #12]
 8004c74:	681b      	ldr	r3, [r3, #0]
 8004c76:	461a      	mov	r2, r3
 8004c78:	68bb      	ldr	r3, [r7, #8]
 8004c7a:	781b      	ldrb	r3, [r3, #0]
 8004c7c:	009b      	lsls	r3, r3, #2
 8004c7e:	441a      	add	r2, r3
 8004c80:	8afb      	ldrh	r3, [r7, #22]
 8004c82:	f043 437f 	orr.w	r3, r3, #4278190080	; 0xff000000
 8004c86:	f443 037f 	orr.w	r3, r3, #16711680	; 0xff0000
 8004c8a:	f443 4300 	orr.w	r3, r3, #32768	; 0x8000
 8004c8e:	f043 03c0 	orr.w	r3, r3, #192	; 0xc0
 8004c92:	b29b      	uxth	r3, r3
 8004c94:	8013      	strh	r3, [r2, #0]
 8004c96:	8b7b      	ldrh	r3, [r7, #26]
 8004c98:	2b00      	cmp	r3, #0
 8004c9a:	f000 8085 	beq.w	8004da8 <HAL_PCD_EP_DB_Receive+0x208>
 8004c9e:	68fb      	ldr	r3, [r7, #12]
 8004ca0:	6818      	ldr	r0, [r3, #0]
 8004ca2:	68bb      	ldr	r3, [r7, #8]
 8004ca4:	6959      	ldr	r1, [r3, #20]
 8004ca6:	68bb      	ldr	r3, [r7, #8]
 8004ca8:	891a      	ldrh	r2, [r3, #8]
 8004caa:	8b7b      	ldrh	r3, [r7, #26]
 8004cac:	f006 f8fc 	bl	800aea8 <USB_ReadPMA>
 8004cb0:	e07a      	b.n	8004da8 <HAL_PCD_EP_DB_Receive+0x208>
 8004cb2:	68fb      	ldr	r3, [r7, #12]
 8004cb4:	681b      	ldr	r3, [r3, #0]
 8004cb6:	f8b3 3050 	ldrh.w	r3, [r3, #80]	; 0x50
 8004cba:	b29b      	uxth	r3, r3
 8004cbc:	461a      	mov	r2, r3
 8004cbe:	68bb      	ldr	r3, [r7, #8]
 8004cc0:	781b      	ldrb	r3, [r3, #0]
 8004cc2:	00db      	lsls	r3, r3, #3
 8004cc4:	4413      	add	r3, r2
 8004cc6:	68fa      	ldr	r2, [r7, #12]
 8004cc8:	6812      	ldr	r2, [r2, #0]
 8004cca:	4413      	add	r3, r2
 8004ccc:	f203 4306 	addw	r3, r3, #1030	; 0x406
 8004cd0:	881b      	ldrh	r3, [r3, #0]
 8004cd2:	f3c3 0309 	ubfx	r3, r3, #0, #10
 8004cd6:	837b      	strh	r3, [r7, #26]
 8004cd8:	68bb      	ldr	r3, [r7, #8]
 8004cda:	699a      	ldr	r2, [r3, #24]
 8004cdc:	8b7b      	ldrh	r3, [r7, #26]
 8004cde:	429a      	cmp	r2, r3
 8004ce0:	d306      	bcc.n	8004cf0 <HAL_PCD_EP_DB_Receive+0x150>
 8004ce2:	68bb      	ldr	r3, [r7, #8]
 8004ce4:	699a      	ldr	r2, [r3, #24]
 8004ce6:	8b7b      	ldrh	r3, [r7, #26]
 8004ce8:	1ad2      	subs	r2, r2, r3
 8004cea:	68bb      	ldr	r3, [r7, #8]
 8004cec:	619a      	str	r2, [r3, #24]
 8004cee:	e002      	b.n	8004cf6 <HAL_PCD_EP_DB_Receive+0x156>
 8004cf0:	68bb      	ldr	r3, [r7, #8]
 8004cf2:	2200      	movs	r2, #0
 8004cf4:	619a      	str	r2, [r3, #24]
 8004cf6:	68bb      	ldr	r3, [r7, #8]
 8004cf8:	699b      	ldr	r3, [r3, #24]
 8004cfa:	2b00      	cmp	r3, #0
 8004cfc:	d123      	bne.n	8004d46 <HAL_PCD_EP_DB_Receive+0x1a6>
 8004cfe:	68fb      	ldr	r3, [r7, #12]
 8004d00:	681b      	ldr	r3, [r3, #0]
 8004d02:	461a      	mov	r2, r3
 8004d04:	68bb      	ldr	r3, [r7, #8]
 8004d06:	781b      	ldrb	r3, [r3, #0]
 8004d08:	009b      	lsls	r3, r3, #2
 8004d0a:	4413      	add	r3, r2
 8004d0c:	881b      	ldrh	r3, [r3, #0]
 8004d0e:	b29b      	uxth	r3, r3
 8004d10:	f423 4380 	bic.w	r3, r3, #16384	; 0x4000
 8004d14:	f023 0370 	bic.w	r3, r3, #112	; 0x70
 8004d18:	83fb      	strh	r3, [r7, #30]
 8004d1a:	8bfb      	ldrh	r3, [r7, #30]
 8004d1c:	f483 5300 	eor.w	r3, r3, #8192	; 0x2000
 8004d20:	83fb      	strh	r3, [r7, #30]
 8004d22:	68fb      	ldr	r3, [r7, #12]
 8004d24:	681b      	ldr	r3, [r3, #0]
 8004d26:	461a      	mov	r2, r3
 8004d28:	68bb      	ldr	r3, [r7, #8]
 8004d2a:	781b      	ldrb	r3, [r3, #0]
 8004d2c:	009b      	lsls	r3, r3, #2
 8004d2e:	441a      	add	r2, r3
 8004d30:	8bfb      	ldrh	r3, [r7, #30]
 8004d32:	f043 437f 	orr.w	r3, r3, #4278190080	; 0xff000000
 8004d36:	f443 037f 	orr.w	r3, r3, #16711680	; 0xff0000
 8004d3a:	f443 4300 	orr.w	r3, r3, #32768	; 0x8000
 8004d3e:	f043 0380 	orr.w	r3, r3, #128	; 0x80
 8004d42:	b29b      	uxth	r3, r3
 8004d44:	8013      	strh	r3, [r2, #0]
 8004d46:	88fb      	ldrh	r3, [r7, #6]
 8004d48:	f003 0340 	and.w	r3, r3, #64	; 0x40
 8004d4c:	2b00      	cmp	r3, #0
 8004d4e:	d11f      	bne.n	8004d90 <HAL_PCD_EP_DB_Receive+0x1f0>
 8004d50:	68fb      	ldr	r3, [r7, #12]
 8004d52:	681b      	ldr	r3, [r3, #0]
 8004d54:	461a      	mov	r2, r3
 8004d56:	68bb      	ldr	r3, [r7, #8]
 8004d58:	781b      	ldrb	r3, [r3, #0]
 8004d5a:	009b      	lsls	r3, r3, #2
 8004d5c:	4413      	add	r3, r2
 8004d5e:	881b      	ldrh	r3, [r3, #0]
 8004d60:	b29b      	uxth	r3, r3
 8004d62:	f423 43e0 	bic.w	r3, r3, #28672	; 0x7000
 8004d66:	f023 0370 	bic.w	r3, r3, #112	; 0x70
 8004d6a:	83bb      	strh	r3, [r7, #28]
 8004d6c:	68fb      	ldr	r3, [r7, #12]
 8004d6e:	681b      	ldr	r3, [r3, #0]
 8004d70:	461a      	mov	r2, r3
 8004d72:	68bb      	ldr	r3, [r7, #8]
 8004d74:	781b      	ldrb	r3, [r3, #0]
 8004d76:	009b      	lsls	r3, r3, #2
 8004d78:	441a      	add	r2, r3
 8004d7a:	8bbb      	ldrh	r3, [r7, #28]
 8004d7c:	f043 437f 	orr.w	r3, r3, #4278190080	; 0xff000000
 8004d80:	f443 037f 	orr.w	r3, r3, #16711680	; 0xff0000
 8004d84:	f443 4300 	orr.w	r3, r3, #32768	; 0x8000
 8004d88:	f043 03c0 	orr.w	r3, r3, #192	; 0xc0
 8004d8c:	b29b      	uxth	r3, r3
 8004d8e:	8013      	strh	r3, [r2, #0]
 8004d90:	8b7b      	ldrh	r3, [r7, #26]
 8004d92:	2b00      	cmp	r3, #0
 8004d94:	d008      	beq.n	8004da8 <HAL_PCD_EP_DB_Receive+0x208>
 8004d96:	68fb      	ldr	r3, [r7, #12]
 8004d98:	6818      	ldr	r0, [r3, #0]
 8004d9a:	68bb      	ldr	r3, [r7, #8]
 8004d9c:	6959      	ldr	r1, [r3, #20]
 8004d9e:	68bb      	ldr	r3, [r7, #8]
 8004da0:	895a      	ldrh	r2, [r3, #10]
 8004da2:	8b7b      	ldrh	r3, [r7, #26]
 8004da4:	f006 f880 	bl	800aea8 <USB_ReadPMA>
 8004da8:	8b7b      	ldrh	r3, [r7, #26]
 8004daa:	4618      	mov	r0, r3
 8004dac:	3720      	adds	r7, #32
 8004dae:	46bd      	mov	sp, r7
 8004db0:	bd80      	pop	{r7, pc}

08004db2 <HAL_PCD_EP_DB_Transmit>:
 8004db2:	b580      	push	{r7, lr}
 8004db4:	b0a4      	sub	sp, #144	; 0x90
 8004db6:	af00      	add	r7, sp, #0
 8004db8:	60f8      	str	r0, [r7, #12]
 8004dba:	60b9      	str	r1, [r7, #8]
 8004dbc:	4613      	mov	r3, r2
 8004dbe:	80fb      	strh	r3, [r7, #6]
 8004dc0:	88fb      	ldrh	r3, [r7, #6]
 8004dc2:	f003 0340 	and.w	r3, r3, #64	; 0x40
 8004dc6:	2b00      	cmp	r3, #0
 8004dc8:	f000 81db 	beq.w	8005182 <HAL_PCD_EP_DB_Transmit+0x3d0>
 8004dcc:	68fb      	ldr	r3, [r7, #12]
 8004dce:	681b      	ldr	r3, [r3, #0]
 8004dd0:	f8b3 3050 	ldrh.w	r3, [r3, #80]	; 0x50
 8004dd4:	b29b      	uxth	r3, r3
 8004dd6:	461a      	mov	r2, r3
 8004dd8:	68bb      	ldr	r3, [r7, #8]
 8004dda:	781b      	ldrb	r3, [r3, #0]
 8004ddc:	00db      	lsls	r3, r3, #3
 8004dde:	4413      	add	r3, r2
 8004de0:	68fa      	ldr	r2, [r7, #12]
 8004de2:	6812      	ldr	r2, [r2, #0]
 8004de4:	4413      	add	r3, r2
 8004de6:	f203 4302 	addw	r3, r3, #1026	; 0x402
 8004dea:	881b      	ldrh	r3, [r3, #0]
 8004dec:	f3c3 0309 	ubfx	r3, r3, #0, #10
 8004df0:	f8a7 3086 	strh.w	r3, [r7, #134]	; 0x86
 8004df4:	68bb      	ldr	r3, [r7, #8]
 8004df6:	699a      	ldr	r2, [r3, #24]
 8004df8:	f8b7 3086 	ldrh.w	r3, [r7, #134]	; 0x86
 8004dfc:	429a      	cmp	r2, r3
 8004dfe:	d907      	bls.n	8004e10 <HAL_PCD_EP_DB_Transmit+0x5e>
 8004e00:	68bb      	ldr	r3, [r7, #8]
 8004e02:	699a      	ldr	r2, [r3, #24]
 8004e04:	f8b7 3086 	ldrh.w	r3, [r7, #134]	; 0x86
 8004e08:	1ad2      	subs	r2, r2, r3
 8004e0a:	68bb      	ldr	r3, [r7, #8]
 8004e0c:	619a      	str	r2, [r3, #24]
 8004e0e:	e002      	b.n	8004e16 <HAL_PCD_EP_DB_Transmit+0x64>
 8004e10:	68bb      	ldr	r3, [r7, #8]
 8004e12:	2200      	movs	r2, #0
 8004e14:	619a      	str	r2, [r3, #24]
 8004e16:	68bb      	ldr	r3, [r7, #8]
 8004e18:	699b      	ldr	r3, [r3, #24]
 8004e1a:	2b00      	cmp	r3, #0
 8004e1c:	f040 80b9 	bne.w	8004f92 <HAL_PCD_EP_DB_Transmit+0x1e0>
 8004e20:	68bb      	ldr	r3, [r7, #8]
 8004e22:	785b      	ldrb	r3, [r3, #1]
 8004e24:	2b00      	cmp	r3, #0
 8004e26:	d126      	bne.n	8004e76 <HAL_PCD_EP_DB_Transmit+0xc4>
 8004e28:	68fb      	ldr	r3, [r7, #12]
 8004e2a:	681b      	ldr	r3, [r3, #0]
 8004e2c:	62fb      	str	r3, [r7, #44]	; 0x2c
 8004e2e:	68fb      	ldr	r3, [r7, #12]
 8004e30:	681b      	ldr	r3, [r3, #0]
 8004e32:	f8b3 3050 	ldrh.w	r3, [r3, #80]	; 0x50
 8004e36:	b29b      	uxth	r3, r3
 8004e38:	461a      	mov	r2, r3
 8004e3a:	6afb      	ldr	r3, [r7, #44]	; 0x2c
 8004e3c:	4413      	add	r3, r2
 8004e3e:	62fb      	str	r3, [r7, #44]	; 0x2c
 8004e40:	68bb      	ldr	r3, [r7, #8]
 8004e42:	781b      	ldrb	r3, [r3, #0]
 8004e44:	00da      	lsls	r2, r3, #3
 8004e46:	6afb      	ldr	r3, [r7, #44]	; 0x2c
 8004e48:	4413      	add	r3, r2
 8004e4a:	f203 4302 	addw	r3, r3, #1026	; 0x402
 8004e4e:	62bb      	str	r3, [r7, #40]	; 0x28
 8004e50:	6abb      	ldr	r3, [r7, #40]	; 0x28
 8004e52:	881b      	ldrh	r3, [r3, #0]
 8004e54:	b29b      	uxth	r3, r3
 8004e56:	f3c3 0309 	ubfx	r3, r3, #0, #10
 8004e5a:	b29a      	uxth	r2, r3
 8004e5c:	6abb      	ldr	r3, [r7, #40]	; 0x28
 8004e5e:	801a      	strh	r2, [r3, #0]
 8004e60:	6abb      	ldr	r3, [r7, #40]	; 0x28
 8004e62:	881b      	ldrh	r3, [r3, #0]
 8004e64:	b29b      	uxth	r3, r3
 8004e66:	ea6f 4343 	mvn.w	r3, r3, lsl #17
 8004e6a:	ea6f 4353 	mvn.w	r3, r3, lsr #17
 8004e6e:	b29a      	uxth	r2, r3
 8004e70:	6abb      	ldr	r3, [r7, #40]	; 0x28
 8004e72:	801a      	strh	r2, [r3, #0]
 8004e74:	e01a      	b.n	8004eac <HAL_PCD_EP_DB_Transmit+0xfa>
 8004e76:	68bb      	ldr	r3, [r7, #8]
 8004e78:	785b      	ldrb	r3, [r3, #1]
 8004e7a:	2b01      	cmp	r3, #1
 8004e7c:	d116      	bne.n	8004eac <HAL_PCD_EP_DB_Transmit+0xfa>
 8004e7e:	68fb      	ldr	r3, [r7, #12]
 8004e80:	681b      	ldr	r3, [r3, #0]
 8004e82:	637b      	str	r3, [r7, #52]	; 0x34
 8004e84:	68fb      	ldr	r3, [r7, #12]
 8004e86:	681b      	ldr	r3, [r3, #0]
 8004e88:	f8b3 3050 	ldrh.w	r3, [r3, #80]	; 0x50
 8004e8c:	b29b      	uxth	r3, r3
 8004e8e:	461a      	mov	r2, r3
 8004e90:	6b7b      	ldr	r3, [r7, #52]	; 0x34
 8004e92:	4413      	add	r3, r2
 8004e94:	637b      	str	r3, [r7, #52]	; 0x34
 8004e96:	68bb      	ldr	r3, [r7, #8]
 8004e98:	781b      	ldrb	r3, [r3, #0]
 8004e9a:	00da      	lsls	r2, r3, #3
 8004e9c:	6b7b      	ldr	r3, [r7, #52]	; 0x34
 8004e9e:	4413      	add	r3, r2
 8004ea0:	f203 4302 	addw	r3, r3, #1026	; 0x402
 8004ea4:	633b      	str	r3, [r7, #48]	; 0x30
 8004ea6:	6b3b      	ldr	r3, [r7, #48]	; 0x30
 8004ea8:	2200      	movs	r2, #0
 8004eaa:	801a      	strh	r2, [r3, #0]
 8004eac:	68fb      	ldr	r3, [r7, #12]
 8004eae:	681b      	ldr	r3, [r3, #0]
 8004eb0:	627b      	str	r3, [r7, #36]	; 0x24
 8004eb2:	68bb      	ldr	r3, [r7, #8]
 8004eb4:	785b      	ldrb	r3, [r3, #1]
 8004eb6:	2b00      	cmp	r3, #0
 8004eb8:	d126      	bne.n	8004f08 <HAL_PCD_EP_DB_Transmit+0x156>
 8004eba:	68fb      	ldr	r3, [r7, #12]
 8004ebc:	681b      	ldr	r3, [r3, #0]
 8004ebe:	61fb      	str	r3, [r7, #28]
 8004ec0:	68fb      	ldr	r3, [r7, #12]
 8004ec2:	681b      	ldr	r3, [r3, #0]
 8004ec4:	f8b3 3050 	ldrh.w	r3, [r3, #80]	; 0x50
 8004ec8:	b29b      	uxth	r3, r3
 8004eca:	461a      	mov	r2, r3
 8004ecc:	69fb      	ldr	r3, [r7, #28]
 8004ece:	4413      	add	r3, r2
 8004ed0:	61fb      	str	r3, [r7, #28]
 8004ed2:	68bb      	ldr	r3, [r7, #8]
 8004ed4:	781b      	ldrb	r3, [r3, #0]
 8004ed6:	00da      	lsls	r2, r3, #3
 8004ed8:	69fb      	ldr	r3, [r7, #28]
 8004eda:	4413      	add	r3, r2
 8004edc:	f203 4306 	addw	r3, r3, #1030	; 0x406
 8004ee0:	61bb      	str	r3, [r7, #24]
 8004ee2:	69bb      	ldr	r3, [r7, #24]
 8004ee4:	881b      	ldrh	r3, [r3, #0]
 8004ee6:	b29b      	uxth	r3, r3
 8004ee8:	f3c3 0309 	ubfx	r3, r3, #0, #10
 8004eec:	b29a      	uxth	r2, r3
 8004eee:	69bb      	ldr	r3, [r7, #24]
 8004ef0:	801a      	strh	r2, [r3, #0]
 8004ef2:	69bb      	ldr	r3, [r7, #24]
 8004ef4:	881b      	ldrh	r3, [r3, #0]
 8004ef6:	b29b      	uxth	r3, r3
 8004ef8:	ea6f 4343 	mvn.w	r3, r3, lsl #17
 8004efc:	ea6f 4353 	mvn.w	r3, r3, lsr #17
 8004f00:	b29a      	uxth	r2, r3
 8004f02:	69bb      	ldr	r3, [r7, #24]
 8004f04:	801a      	strh	r2, [r3, #0]
 8004f06:	e017      	b.n	8004f38 <HAL_PCD_EP_DB_Transmit+0x186>
 8004f08:	68bb      	ldr	r3, [r7, #8]
 8004f0a:	785b      	ldrb	r3, [r3, #1]
 8004f0c:	2b01      	cmp	r3, #1
 8004f0e:	d113      	bne.n	8004f38 <HAL_PCD_EP_DB_Transmit+0x186>
 8004f10:	68fb      	ldr	r3, [r7, #12]
 8004f12:	681b      	ldr	r3, [r3, #0]
 8004f14:	f8b3 3050 	ldrh.w	r3, [r3, #80]	; 0x50
 8004f18:	b29b      	uxth	r3, r3
 8004f1a:	461a      	mov	r2, r3
 8004f1c:	6a7b      	ldr	r3, [r7, #36]	; 0x24
 8004f1e:	4413      	add	r3, r2
 8004f20:	627b      	str	r3, [r7, #36]	; 0x24
 8004f22:	68bb      	ldr	r3, [r7, #8]
 8004f24:	781b      	ldrb	r3, [r3, #0]
 8004f26:	00da      	lsls	r2, r3, #3
 8004f28:	6a7b      	ldr	r3, [r7, #36]	; 0x24
 8004f2a:	4413      	add	r3, r2
 8004f2c:	f203 4306 	addw	r3, r3, #1030	; 0x406
 8004f30:	623b      	str	r3, [r7, #32]
 8004f32:	6a3b      	ldr	r3, [r7, #32]
 8004f34:	2200      	movs	r2, #0
 8004f36:	801a      	strh	r2, [r3, #0]
 8004f38:	68bb      	ldr	r3, [r7, #8]
 8004f3a:	781b      	ldrb	r3, [r3, #0]
 8004f3c:	4619      	mov	r1, r3
 8004f3e:	68f8      	ldr	r0, [r7, #12]
 8004f40:	f007 fe5d 	bl	800cbfe <HAL_PCD_DataInStageCallback>
 8004f44:	88fb      	ldrh	r3, [r7, #6]
 8004f46:	f403 4380 	and.w	r3, r3, #16384	; 0x4000
 8004f4a:	2b00      	cmp	r3, #0
 8004f4c:	f000 82fa 	beq.w	8005544 <HAL_PCD_EP_DB_Transmit+0x792>
 8004f50:	68fb      	ldr	r3, [r7, #12]
 8004f52:	681b      	ldr	r3, [r3, #0]
 8004f54:	461a      	mov	r2, r3
 8004f56:	68bb      	ldr	r3, [r7, #8]
 8004f58:	781b      	ldrb	r3, [r3, #0]
 8004f5a:	009b      	lsls	r3, r3, #2
 8004f5c:	4413      	add	r3, r2
 8004f5e:	881b      	ldrh	r3, [r3, #0]
 8004f60:	b29b      	uxth	r3, r3
 8004f62:	f423 43e0 	bic.w	r3, r3, #28672	; 0x7000
 8004f66:	f023 0370 	bic.w	r3, r3, #112	; 0x70
 8004f6a:	82fb      	strh	r3, [r7, #22]
 8004f6c:	68fb      	ldr	r3, [r7, #12]
 8004f6e:	681b      	ldr	r3, [r3, #0]
 8004f70:	461a      	mov	r2, r3
 8004f72:	68bb      	ldr	r3, [r7, #8]
 8004f74:	781b      	ldrb	r3, [r3, #0]
 8004f76:	009b      	lsls	r3, r3, #2
 8004f78:	441a      	add	r2, r3
 8004f7a:	8afb      	ldrh	r3, [r7, #22]
 8004f7c:	f043 437f 	orr.w	r3, r3, #4278190080	; 0xff000000
 8004f80:	f443 037f 	orr.w	r3, r3, #16711680	; 0xff0000
 8004f84:	f443 4340 	orr.w	r3, r3, #49152	; 0xc000
 8004f88:	f043 0380 	orr.w	r3, r3, #128	; 0x80
 8004f8c:	b29b      	uxth	r3, r3
 8004f8e:	8013      	strh	r3, [r2, #0]
 8004f90:	e2d8      	b.n	8005544 <HAL_PCD_EP_DB_Transmit+0x792>
 8004f92:	88fb      	ldrh	r3, [r7, #6]
 8004f94:	f403 4380 	and.w	r3, r3, #16384	; 0x4000
 8004f98:	2b00      	cmp	r3, #0
 8004f9a:	d021      	beq.n	8004fe0 <HAL_PCD_EP_DB_Transmit+0x22e>
 8004f9c:	68fb      	ldr	r3, [r7, #12]
 8004f9e:	681b      	ldr	r3, [r3, #0]
 8004fa0:	461a      	mov	r2, r3
 8004fa2:	68bb      	ldr	r3, [r7, #8]
 8004fa4:	781b      	ldrb	r3, [r3, #0]
 8004fa6:	009b      	lsls	r3, r3, #2
 8004fa8:	4413      	add	r3, r2
 8004faa:	881b      	ldrh	r3, [r3, #0]
 8004fac:	b29b      	uxth	r3, r3
 8004fae:	f423 43e0 	bic.w	r3, r3, #28672	; 0x7000
 8004fb2:	f023 0370 	bic.w	r3, r3, #112	; 0x70
 8004fb6:	f8a7 308a 	strh.w	r3, [r7, #138]	; 0x8a
 8004fba:	68fb      	ldr	r3, [r7, #12]
 8004fbc:	681b      	ldr	r3, [r3, #0]
 8004fbe:	461a      	mov	r2, r3
 8004fc0:	68bb      	ldr	r3, [r7, #8]
 8004fc2:	781b      	ldrb	r3, [r3, #0]
 8004fc4:	009b      	lsls	r3, r3, #2
 8004fc6:	441a      	add	r2, r3
 8004fc8:	f8b7 308a 	ldrh.w	r3, [r7, #138]	; 0x8a
 8004fcc:	f043 437f 	orr.w	r3, r3, #4278190080	; 0xff000000
 8004fd0:	f443 037f 	orr.w	r3, r3, #16711680	; 0xff0000
 8004fd4:	f443 4340 	orr.w	r3, r3, #49152	; 0xc000
 8004fd8:	f043 0380 	orr.w	r3, r3, #128	; 0x80
 8004fdc:	b29b      	uxth	r3, r3
 8004fde:	8013      	strh	r3, [r2, #0]
 8004fe0:	68bb      	ldr	r3, [r7, #8]
 8004fe2:	f893 3024 	ldrb.w	r3, [r3, #36]	; 0x24
 8004fe6:	2b01      	cmp	r3, #1
 8004fe8:	f040 82ac 	bne.w	8005544 <HAL_PCD_EP_DB_Transmit+0x792>
 8004fec:	68bb      	ldr	r3, [r7, #8]
 8004fee:	695a      	ldr	r2, [r3, #20]
 8004ff0:	f8b7 3086 	ldrh.w	r3, [r7, #134]	; 0x86
 8004ff4:	441a      	add	r2, r3
 8004ff6:	68bb      	ldr	r3, [r7, #8]
 8004ff8:	615a      	str	r2, [r3, #20]
 8004ffa:	68bb      	ldr	r3, [r7, #8]
 8004ffc:	69da      	ldr	r2, [r3, #28]
 8004ffe:	f8b7 3086 	ldrh.w	r3, [r7, #134]	; 0x86
 8005002:	441a      	add	r2, r3
 8005004:	68bb      	ldr	r3, [r7, #8]
 8005006:	61da      	str	r2, [r3, #28]
 8005008:	68bb      	ldr	r3, [r7, #8]
 800500a:	6a1a      	ldr	r2, [r3, #32]
 800500c:	68bb      	ldr	r3, [r7, #8]
 800500e:	691b      	ldr	r3, [r3, #16]
 8005010:	429a      	cmp	r2, r3
 8005012:	d30b      	bcc.n	800502c <HAL_PCD_EP_DB_Transmit+0x27a>
 8005014:	68bb      	ldr	r3, [r7, #8]
 8005016:	691b      	ldr	r3, [r3, #16]
 8005018:	f8c7 308c 	str.w	r3, [r7, #140]	; 0x8c
 800501c:	68bb      	ldr	r3, [r7, #8]
 800501e:	6a1a      	ldr	r2, [r3, #32]
 8005020:	f8d7 308c 	ldr.w	r3, [r7, #140]	; 0x8c
 8005024:	1ad2      	subs	r2, r2, r3
 8005026:	68bb      	ldr	r3, [r7, #8]
 8005028:	621a      	str	r2, [r3, #32]
 800502a:	e017      	b.n	800505c <HAL_PCD_EP_DB_Transmit+0x2aa>
 800502c:	68bb      	ldr	r3, [r7, #8]
 800502e:	6a1b      	ldr	r3, [r3, #32]
 8005030:	2b00      	cmp	r3, #0
 8005032:	d108      	bne.n	8005046 <HAL_PCD_EP_DB_Transmit+0x294>
 8005034:	f8b7 3086 	ldrh.w	r3, [r7, #134]	; 0x86
 8005038:	f8c7 308c 	str.w	r3, [r7, #140]	; 0x8c
 800503c:	68bb      	ldr	r3, [r7, #8]
 800503e:	2200      	movs	r2, #0
 8005040:	f883 2024 	strb.w	r2, [r3, #36]	; 0x24
 8005044:	e00a      	b.n	800505c <HAL_PCD_EP_DB_Transmit+0x2aa>
 8005046:	68bb      	ldr	r3, [r7, #8]
 8005048:	2200      	movs	r2, #0
 800504a:	f883 2024 	strb.w	r2, [r3, #36]	; 0x24
 800504e:	68bb      	ldr	r3, [r7, #8]
 8005050:	6a1b      	ldr	r3, [r3, #32]
 8005052:	f8c7 308c 	str.w	r3, [r7, #140]	; 0x8c
 8005056:	68bb      	ldr	r3, [r7, #8]
 8005058:	2200      	movs	r2, #0
 800505a:	621a      	str	r2, [r3, #32]
 800505c:	68bb      	ldr	r3, [r7, #8]
 800505e:	785b      	ldrb	r3, [r3, #1]
 8005060:	2b00      	cmp	r3, #0
 8005062:	d165      	bne.n	8005130 <HAL_PCD_EP_DB_Transmit+0x37e>
 8005064:	68fb      	ldr	r3, [r7, #12]
 8005066:	681b      	ldr	r3, [r3, #0]
 8005068:	63fb      	str	r3, [r7, #60]	; 0x3c
 800506a:	68fb      	ldr	r3, [r7, #12]
 800506c:	681b      	ldr	r3, [r3, #0]
 800506e:	f8b3 3050 	ldrh.w	r3, [r3, #80]	; 0x50
 8005072:	b29b      	uxth	r3, r3
 8005074:	461a      	mov	r2, r3
 8005076:	6bfb      	ldr	r3, [r7, #60]	; 0x3c
 8005078:	4413      	add	r3, r2
 800507a:	63fb      	str	r3, [r7, #60]	; 0x3c
 800507c:	68bb      	ldr	r3, [r7, #8]
 800507e:	781b      	ldrb	r3, [r3, #0]
 8005080:	00da      	lsls	r2, r3, #3
 8005082:	6bfb      	ldr	r3, [r7, #60]	; 0x3c
 8005084:	4413      	add	r3, r2
 8005086:	f203 4302 	addw	r3, r3, #1026	; 0x402
 800508a:	63bb      	str	r3, [r7, #56]	; 0x38
 800508c:	6bbb      	ldr	r3, [r7, #56]	; 0x38
 800508e:	881b      	ldrh	r3, [r3, #0]
 8005090:	b29b      	uxth	r3, r3
 8005092:	f3c3 0309 	ubfx	r3, r3, #0, #10
 8005096:	b29a      	uxth	r2, r3
 8005098:	6bbb      	ldr	r3, [r7, #56]	; 0x38
 800509a:	801a      	strh	r2, [r3, #0]
 800509c:	f8d7 308c 	ldr.w	r3, [r7, #140]	; 0x8c
 80050a0:	2b3e      	cmp	r3, #62	; 0x3e
 80050a2:	d91d      	bls.n	80050e0 <HAL_PCD_EP_DB_Transmit+0x32e>
 80050a4:	f8d7 308c 	ldr.w	r3, [r7, #140]	; 0x8c
 80050a8:	095b      	lsrs	r3, r3, #5
 80050aa:	64bb      	str	r3, [r7, #72]	; 0x48
 80050ac:	f8d7 308c 	ldr.w	r3, [r7, #140]	; 0x8c
 80050b0:	f003 031f 	and.w	r3, r3, #31
 80050b4:	2b00      	cmp	r3, #0
 80050b6:	d102      	bne.n	80050be <HAL_PCD_EP_DB_Transmit+0x30c>
 80050b8:	6cbb      	ldr	r3, [r7, #72]	; 0x48
 80050ba:	3b01      	subs	r3, #1
 80050bc:	64bb      	str	r3, [r7, #72]	; 0x48
 80050be:	6bbb      	ldr	r3, [r7, #56]	; 0x38
 80050c0:	881b      	ldrh	r3, [r3, #0]
 80050c2:	b29a      	uxth	r2, r3
 80050c4:	6cbb      	ldr	r3, [r7, #72]	; 0x48
 80050c6:	b29b      	uxth	r3, r3
 80050c8:	029b      	lsls	r3, r3, #10
 80050ca:	b29b      	uxth	r3, r3
 80050cc:	4313      	orrs	r3, r2
 80050ce:	b29b      	uxth	r3, r3
 80050d0:	ea6f 4343 	mvn.w	r3, r3, lsl #17
 80050d4:	ea6f 4353 	mvn.w	r3, r3, lsr #17
 80050d8:	b29a      	uxth	r2, r3
 80050da:	6bbb      	ldr	r3, [r7, #56]	; 0x38
 80050dc:	801a      	strh	r2, [r3, #0]
 80050de:	e044      	b.n	800516a <HAL_PCD_EP_DB_Transmit+0x3b8>
 80050e0:	f8d7 308c 	ldr.w	r3, [r7, #140]	; 0x8c
 80050e4:	2b00      	cmp	r3, #0
 80050e6:	d10a      	bne.n	80050fe <HAL_PCD_EP_DB_Transmit+0x34c>
 80050e8:	6bbb      	ldr	r3, [r7, #56]	; 0x38
 80050ea:	881b      	ldrh	r3, [r3, #0]
 80050ec:	b29b      	uxth	r3, r3
 80050ee:	ea6f 4343 	mvn.w	r3, r3, lsl #17
 80050f2:	ea6f 4353 	mvn.w	r3, r3, lsr #17
 80050f6:	b29a      	uxth	r2, r3
 80050f8:	6bbb      	ldr	r3, [r7, #56]	; 0x38
 80050fa:	801a      	strh	r2, [r3, #0]
 80050fc:	e035      	b.n	800516a <HAL_PCD_EP_DB_Transmit+0x3b8>
 80050fe:	f8d7 308c 	ldr.w	r3, [r7, #140]	; 0x8c
 8005102:	085b      	lsrs	r3, r3, #1
 8005104:	64bb      	str	r3, [r7, #72]	; 0x48
 8005106:	f8d7 308c 	ldr.w	r3, [r7, #140]	; 0x8c
 800510a:	f003 0301 	and.w	r3, r3, #1
 800510e:	2b00      	cmp	r3, #0
 8005110:	d002      	beq.n	8005118 <HAL_PCD_EP_DB_Transmit+0x366>
 8005112:	6cbb      	ldr	r3, [r7, #72]	; 0x48
 8005114:	3301      	adds	r3, #1
 8005116:	64bb      	str	r3, [r7, #72]	; 0x48
 8005118:	6bbb      	ldr	r3, [r7, #56]	; 0x38
 800511a:	881b      	ldrh	r3, [r3, #0]
 800511c:	b29a      	uxth	r2, r3
 800511e:	6cbb      	ldr	r3, [r7, #72]	; 0x48
 8005120:	b29b      	uxth	r3, r3
 8005122:	029b      	lsls	r3, r3, #10
 8005124:	b29b      	uxth	r3, r3
 8005126:	4313      	orrs	r3, r2
 8005128:	b29a      	uxth	r2, r3
 800512a:	6bbb      	ldr	r3, [r7, #56]	; 0x38
 800512c:	801a      	strh	r2, [r3, #0]
 800512e:	e01c      	b.n	800516a <HAL_PCD_EP_DB_Transmit+0x3b8>
 8005130:	68bb      	ldr	r3, [r7, #8]
 8005132:	785b      	ldrb	r3, [r3, #1]
 8005134:	2b01      	cmp	r3, #1
 8005136:	d118      	bne.n	800516a <HAL_PCD_EP_DB_Transmit+0x3b8>
 8005138:	68fb      	ldr	r3, [r7, #12]
 800513a:	681b      	ldr	r3, [r3, #0]
 800513c:	647b      	str	r3, [r7, #68]	; 0x44
 800513e:	68fb      	ldr	r3, [r7, #12]
 8005140:	681b      	ldr	r3, [r3, #0]
 8005142:	f8b3 3050 	ldrh.w	r3, [r3, #80]	; 0x50
 8005146:	b29b      	uxth	r3, r3
 8005148:	461a      	mov	r2, r3
 800514a:	6c7b      	ldr	r3, [r7, #68]	; 0x44
 800514c:	4413      	add	r3, r2
 800514e:	647b      	str	r3, [r7, #68]	; 0x44
 8005150:	68bb      	ldr	r3, [r7, #8]
 8005152:	781b      	ldrb	r3, [r3, #0]
 8005154:	00da      	lsls	r2, r3, #3
 8005156:	6c7b      	ldr	r3, [r7, #68]	; 0x44
 8005158:	4413      	add	r3, r2
 800515a:	f203 4302 	addw	r3, r3, #1026	; 0x402
 800515e:	643b      	str	r3, [r7, #64]	; 0x40
 8005160:	f8d7 308c 	ldr.w	r3, [r7, #140]	; 0x8c
 8005164:	b29a      	uxth	r2, r3
 8005166:	6c3b      	ldr	r3, [r7, #64]	; 0x40
 8005168:	801a      	strh	r2, [r3, #0]
 800516a:	68fb      	ldr	r3, [r7, #12]
 800516c:	6818      	ldr	r0, [r3, #0]
 800516e:	68bb      	ldr	r3, [r7, #8]
 8005170:	6959      	ldr	r1, [r3, #20]
 8005172:	68bb      	ldr	r3, [r7, #8]
 8005174:	891a      	ldrh	r2, [r3, #8]
 8005176:	f8d7 308c 	ldr.w	r3, [r7, #140]	; 0x8c
 800517a:	b29b      	uxth	r3, r3
 800517c:	f005 fe52 	bl	800ae24 <USB_WritePMA>
 8005180:	e1e0      	b.n	8005544 <HAL_PCD_EP_DB_Transmit+0x792>
 8005182:	68fb      	ldr	r3, [r7, #12]
 8005184:	681b      	ldr	r3, [r3, #0]
 8005186:	f8b3 3050 	ldrh.w	r3, [r3, #80]	; 0x50
 800518a:	b29b      	uxth	r3, r3
 800518c:	461a      	mov	r2, r3
 800518e:	68bb      	ldr	r3, [r7, #8]
 8005190:	781b      	ldrb	r3, [r3, #0]
 8005192:	00db      	lsls	r3, r3, #3
 8005194:	4413      	add	r3, r2
 8005196:	68fa      	ldr	r2, [r7, #12]
 8005198:	6812      	ldr	r2, [r2, #0]
 800519a:	4413      	add	r3, r2
 800519c:	f203 4306 	addw	r3, r3, #1030	; 0x406
 80051a0:	881b      	ldrh	r3, [r3, #0]
 80051a2:	f3c3 0309 	ubfx	r3, r3, #0, #10
 80051a6:	f8a7 3086 	strh.w	r3, [r7, #134]	; 0x86
 80051aa:	68bb      	ldr	r3, [r7, #8]
 80051ac:	699a      	ldr	r2, [r3, #24]
 80051ae:	f8b7 3086 	ldrh.w	r3, [r7, #134]	; 0x86
 80051b2:	429a      	cmp	r2, r3
 80051b4:	d307      	bcc.n	80051c6 <HAL_PCD_EP_DB_Transmit+0x414>
 80051b6:	68bb      	ldr	r3, [r7, #8]
 80051b8:	699a      	ldr	r2, [r3, #24]
 80051ba:	f8b7 3086 	ldrh.w	r3, [r7, #134]	; 0x86
 80051be:	1ad2      	subs	r2, r2, r3
 80051c0:	68bb      	ldr	r3, [r7, #8]
 80051c2:	619a      	str	r2, [r3, #24]
 80051c4:	e002      	b.n	80051cc <HAL_PCD_EP_DB_Transmit+0x41a>
 80051c6:	68bb      	ldr	r3, [r7, #8]
 80051c8:	2200      	movs	r2, #0
 80051ca:	619a      	str	r2, [r3, #24]
 80051cc:	68bb      	ldr	r3, [r7, #8]
 80051ce:	699b      	ldr	r3, [r3, #24]
 80051d0:	2b00      	cmp	r3, #0
 80051d2:	f040 80c0 	bne.w	8005356 <HAL_PCD_EP_DB_Transmit+0x5a4>
 80051d6:	68bb      	ldr	r3, [r7, #8]
 80051d8:	785b      	ldrb	r3, [r3, #1]
 80051da:	2b00      	cmp	r3, #0
 80051dc:	d126      	bne.n	800522c <HAL_PCD_EP_DB_Transmit+0x47a>
 80051de:	68fb      	ldr	r3, [r7, #12]
 80051e0:	681b      	ldr	r3, [r3, #0]
 80051e2:	67fb      	str	r3, [r7, #124]	; 0x7c
 80051e4:	68fb      	ldr	r3, [r7, #12]
 80051e6:	681b      	ldr	r3, [r3, #0]
 80051e8:	f8b3 3050 	ldrh.w	r3, [r3, #80]	; 0x50
 80051ec:	b29b      	uxth	r3, r3
 80051ee:	461a      	mov	r2, r3
 80051f0:	6ffb      	ldr	r3, [r7, #124]	; 0x7c
 80051f2:	4413      	add	r3, r2
 80051f4:	67fb      	str	r3, [r7, #124]	; 0x7c
 80051f6:	68bb      	ldr	r3, [r7, #8]
 80051f8:	781b      	ldrb	r3, [r3, #0]
 80051fa:	00da      	lsls	r2, r3, #3
 80051fc:	6ffb      	ldr	r3, [r7, #124]	; 0x7c
 80051fe:	4413      	add	r3, r2
 8005200:	f203 4302 	addw	r3, r3, #1026	; 0x402
 8005204:	67bb      	str	r3, [r7, #120]	; 0x78
 8005206:	6fbb      	ldr	r3, [r7, #120]	; 0x78
 8005208:	881b      	ldrh	r3, [r3, #0]
 800520a:	b29b      	uxth	r3, r3
 800520c:	f3c3 0309 	ubfx	r3, r3, #0, #10
 8005210:	b29a      	uxth	r2, r3
 8005212:	6fbb      	ldr	r3, [r7, #120]	; 0x78
 8005214:	801a      	strh	r2, [r3, #0]
 8005216:	6fbb      	ldr	r3, [r7, #120]	; 0x78
 8005218:	881b      	ldrh	r3, [r3, #0]
 800521a:	b29b      	uxth	r3, r3
 800521c:	ea6f 4343 	mvn.w	r3, r3, lsl #17
 8005220:	ea6f 4353 	mvn.w	r3, r3, lsr #17
 8005224:	b29a      	uxth	r2, r3
 8005226:	6fbb      	ldr	r3, [r7, #120]	; 0x78
 8005228:	801a      	strh	r2, [r3, #0]
 800522a:	e01a      	b.n	8005262 <HAL_PCD_EP_DB_Transmit+0x4b0>
 800522c:	68bb      	ldr	r3, [r7, #8]
 800522e:	785b      	ldrb	r3, [r3, #1]
 8005230:	2b01      	cmp	r3, #1
 8005232:	d116      	bne.n	8005262 <HAL_PCD_EP_DB_Transmit+0x4b0>
 8005234:	68fb      	ldr	r3, [r7, #12]
 8005236:	681b      	ldr	r3, [r3, #0]
 8005238:	667b      	str	r3, [r7, #100]	; 0x64
 800523a:	68fb      	ldr	r3, [r7, #12]
 800523c:	681b      	ldr	r3, [r3, #0]
 800523e:	f8b3 3050 	ldrh.w	r3, [r3, #80]	; 0x50
 8005242:	b29b      	uxth	r3, r3
 8005244:	461a      	mov	r2, r3
 8005246:	6e7b      	ldr	r3, [r7, #100]	; 0x64
 8005248:	4413      	add	r3, r2
 800524a:	667b      	str	r3, [r7, #100]	; 0x64
 800524c:	68bb      	ldr	r3, [r7, #8]
 800524e:	781b      	ldrb	r3, [r3, #0]
 8005250:	00da      	lsls	r2, r3, #3
 8005252:	6e7b      	ldr	r3, [r7, #100]	; 0x64
 8005254:	4413      	add	r3, r2
 8005256:	f203 4302 	addw	r3, r3, #1026	; 0x402
 800525a:	663b      	str	r3, [r7, #96]	; 0x60
 800525c:	6e3b      	ldr	r3, [r7, #96]	; 0x60
 800525e:	2200      	movs	r2, #0
 8005260:	801a      	strh	r2, [r3, #0]
 8005262:	68fb      	ldr	r3, [r7, #12]
 8005264:	681b      	ldr	r3, [r3, #0]
 8005266:	677b      	str	r3, [r7, #116]	; 0x74
 8005268:	68bb      	ldr	r3, [r7, #8]
 800526a:	785b      	ldrb	r3, [r3, #1]
 800526c:	2b00      	cmp	r3, #0
 800526e:	d12b      	bne.n	80052c8 <HAL_PCD_EP_DB_Transmit+0x516>
 8005270:	68fb      	ldr	r3, [r7, #12]
 8005272:	681b      	ldr	r3, [r3, #0]
 8005274:	66fb      	str	r3, [r7, #108]	; 0x6c
 8005276:	68fb      	ldr	r3, [r7, #12]
 8005278:	681b      	ldr	r3, [r3, #0]
 800527a:	f8b3 3050 	ldrh.w	r3, [r3, #80]	; 0x50
 800527e:	b29b      	uxth	r3, r3
 8005280:	461a      	mov	r2, r3
 8005282:	6efb      	ldr	r3, [r7, #108]	; 0x6c
 8005284:	4413      	add	r3, r2
 8005286:	66fb      	str	r3, [r7, #108]	; 0x6c
 8005288:	68bb      	ldr	r3, [r7, #8]
 800528a:	781b      	ldrb	r3, [r3, #0]
 800528c:	00da      	lsls	r2, r3, #3
 800528e:	6efb      	ldr	r3, [r7, #108]	; 0x6c
 8005290:	4413      	add	r3, r2
 8005292:	f203 4306 	addw	r3, r3, #1030	; 0x406
 8005296:	f8c7 3080 	str.w	r3, [r7, #128]	; 0x80
 800529a:	f8d7 3080 	ldr.w	r3, [r7, #128]	; 0x80
 800529e:	881b      	ldrh	r3, [r3, #0]
 80052a0:	b29b      	uxth	r3, r3
 80052a2:	f3c3 0309 	ubfx	r3, r3, #0, #10
 80052a6:	b29a      	uxth	r2, r3
 80052a8:	f8d7 3080 	ldr.w	r3, [r7, #128]	; 0x80
 80052ac:	801a      	strh	r2, [r3, #0]
 80052ae:	f8d7 3080 	ldr.w	r3, [r7, #128]	; 0x80
 80052b2:	881b      	ldrh	r3, [r3, #0]
 80052b4:	b29b      	uxth	r3, r3
 80052b6:	ea6f 4343 	mvn.w	r3, r3, lsl #17
 80052ba:	ea6f 4353 	mvn.w	r3, r3, lsr #17
 80052be:	b29a      	uxth	r2, r3
 80052c0:	f8d7 3080 	ldr.w	r3, [r7, #128]	; 0x80
 80052c4:	801a      	strh	r2, [r3, #0]
 80052c6:	e017      	b.n	80052f8 <HAL_PCD_EP_DB_Transmit+0x546>
 80052c8:	68bb      	ldr	r3, [r7, #8]
 80052ca:	785b      	ldrb	r3, [r3, #1]
 80052cc:	2b01      	cmp	r3, #1
 80052ce:	d113      	bne.n	80052f8 <HAL_PCD_EP_DB_Transmit+0x546>
 80052d0:	68fb      	ldr	r3, [r7, #12]
 80052d2:	681b      	ldr	r3, [r3, #0]
 80052d4:	f8b3 3050 	ldrh.w	r3, [r3, #80]	; 0x50
 80052d8:	b29b      	uxth	r3, r3
 80052da:	461a      	mov	r2, r3
 80052dc:	6f7b      	ldr	r3, [r7, #116]	; 0x74
 80052de:	4413      	add	r3, r2
 80052e0:	677b      	str	r3, [r7, #116]	; 0x74
 80052e2:	68bb      	ldr	r3, [r7, #8]
 80052e4:	781b      	ldrb	r3, [r3, #0]
 80052e6:	00da      	lsls	r2, r3, #3
 80052e8:	6f7b      	ldr	r3, [r7, #116]	; 0x74
 80052ea:	4413      	add	r3, r2
 80052ec:	f203 4306 	addw	r3, r3, #1030	; 0x406
 80052f0:	673b      	str	r3, [r7, #112]	; 0x70
 80052f2:	6f3b      	ldr	r3, [r7, #112]	; 0x70
 80052f4:	2200      	movs	r2, #0
 80052f6:	801a      	strh	r2, [r3, #0]
 80052f8:	68bb      	ldr	r3, [r7, #8]
 80052fa:	781b      	ldrb	r3, [r3, #0]
 80052fc:	4619      	mov	r1, r3
 80052fe:	68f8      	ldr	r0, [r7, #12]
 8005300:	f007 fc7d 	bl	800cbfe <HAL_PCD_DataInStageCallback>
 8005304:	88fb      	ldrh	r3, [r7, #6]
 8005306:	f403 4380 	and.w	r3, r3, #16384	; 0x4000
 800530a:	2b00      	cmp	r3, #0
 800530c:	f040 811a 	bne.w	8005544 <HAL_PCD_EP_DB_Transmit+0x792>
 8005310:	68fb      	ldr	r3, [r7, #12]
 8005312:	681b      	ldr	r3, [r3, #0]
 8005314:	461a      	mov	r2, r3
 8005316:	68bb      	ldr	r3, [r7, #8]
 8005318:	781b      	ldrb	r3, [r3, #0]
 800531a:	009b      	lsls	r3, r3, #2
 800531c:	4413      	add	r3, r2
 800531e:	881b      	ldrh	r3, [r3, #0]
 8005320:	b29b      	uxth	r3, r3
 8005322:	f423 43e0 	bic.w	r3, r3, #28672	; 0x7000
 8005326:	f023 0370 	bic.w	r3, r3, #112	; 0x70
 800532a:	f8a7 3088 	strh.w	r3, [r7, #136]	; 0x88
 800532e:	68fb      	ldr	r3, [r7, #12]
 8005330:	681b      	ldr	r3, [r3, #0]
 8005332:	461a      	mov	r2, r3
 8005334:	68bb      	ldr	r3, [r7, #8]
 8005336:	781b      	ldrb	r3, [r3, #0]
 8005338:	009b      	lsls	r3, r3, #2
 800533a:	441a      	add	r2, r3
 800533c:	f8b7 3088 	ldrh.w	r3, [r7, #136]	; 0x88
 8005340:	f043 437f 	orr.w	r3, r3, #4278190080	; 0xff000000
 8005344:	f443 037f 	orr.w	r3, r3, #16711680	; 0xff0000
 8005348:	f443 4340 	orr.w	r3, r3, #49152	; 0xc000
 800534c:	f043 0380 	orr.w	r3, r3, #128	; 0x80
 8005350:	b29b      	uxth	r3, r3
 8005352:	8013      	strh	r3, [r2, #0]
 8005354:	e0f6      	b.n	8005544 <HAL_PCD_EP_DB_Transmit+0x792>
 8005356:	88fb      	ldrh	r3, [r7, #6]
 8005358:	f403 4380 	and.w	r3, r3, #16384	; 0x4000
 800535c:	2b00      	cmp	r3, #0
 800535e:	d121      	bne.n	80053a4 <HAL_PCD_EP_DB_Transmit+0x5f2>
 8005360:	68fb      	ldr	r3, [r7, #12]
 8005362:	681b      	ldr	r3, [r3, #0]
 8005364:	461a      	mov	r2, r3
 8005366:	68bb      	ldr	r3, [r7, #8]
 8005368:	781b      	ldrb	r3, [r3, #0]
 800536a:	009b      	lsls	r3, r3, #2
 800536c:	4413      	add	r3, r2
 800536e:	881b      	ldrh	r3, [r3, #0]
 8005370:	b29b      	uxth	r3, r3
 8005372:	f423 43e0 	bic.w	r3, r3, #28672	; 0x7000
 8005376:	f023 0370 	bic.w	r3, r3, #112	; 0x70
 800537a:	f8a7 304e 	strh.w	r3, [r7, #78]	; 0x4e
 800537e:	68fb      	ldr	r3, [r7, #12]
 8005380:	681b      	ldr	r3, [r3, #0]
 8005382:	461a      	mov	r2, r3
 8005384:	68bb      	ldr	r3, [r7, #8]
 8005386:	781b      	ldrb	r3, [r3, #0]
 8005388:	009b      	lsls	r3, r3, #2
 800538a:	441a      	add	r2, r3
 800538c:	f8b7 304e 	ldrh.w	r3, [r7, #78]	; 0x4e
 8005390:	f043 437f 	orr.w	r3, r3, #4278190080	; 0xff000000
 8005394:	f443 037f 	orr.w	r3, r3, #16711680	; 0xff0000
 8005398:	f443 4340 	orr.w	r3, r3, #49152	; 0xc000
 800539c:	f043 0380 	orr.w	r3, r3, #128	; 0x80
 80053a0:	b29b      	uxth	r3, r3
 80053a2:	8013      	strh	r3, [r2, #0]
 80053a4:	68bb      	ldr	r3, [r7, #8]
 80053a6:	f893 3024 	ldrb.w	r3, [r3, #36]	; 0x24
 80053aa:	2b01      	cmp	r3, #1
 80053ac:	f040 80ca 	bne.w	8005544 <HAL_PCD_EP_DB_Transmit+0x792>
 80053b0:	68bb      	ldr	r3, [r7, #8]
 80053b2:	695a      	ldr	r2, [r3, #20]
 80053b4:	f8b7 3086 	ldrh.w	r3, [r7, #134]	; 0x86
 80053b8:	441a      	add	r2, r3
 80053ba:	68bb      	ldr	r3, [r7, #8]
 80053bc:	615a      	str	r2, [r3, #20]
 80053be:	68bb      	ldr	r3, [r7, #8]
 80053c0:	69da      	ldr	r2, [r3, #28]
 80053c2:	f8b7 3086 	ldrh.w	r3, [r7, #134]	; 0x86
 80053c6:	441a      	add	r2, r3
 80053c8:	68bb      	ldr	r3, [r7, #8]
 80053ca:	61da      	str	r2, [r3, #28]
 80053cc:	68bb      	ldr	r3, [r7, #8]
 80053ce:	6a1a      	ldr	r2, [r3, #32]
 80053d0:	68bb      	ldr	r3, [r7, #8]
 80053d2:	691b      	ldr	r3, [r3, #16]
 80053d4:	429a      	cmp	r2, r3
 80053d6:	d30b      	bcc.n	80053f0 <HAL_PCD_EP_DB_Transmit+0x63e>
 80053d8:	68bb      	ldr	r3, [r7, #8]
 80053da:	691b      	ldr	r3, [r3, #16]
 80053dc:	f8c7 308c 	str.w	r3, [r7, #140]	; 0x8c
 80053e0:	68bb      	ldr	r3, [r7, #8]
 80053e2:	6a1a      	ldr	r2, [r3, #32]
 80053e4:	f8d7 308c 	ldr.w	r3, [r7, #140]	; 0x8c
 80053e8:	1ad2      	subs	r2, r2, r3
 80053ea:	68bb      	ldr	r3, [r7, #8]
 80053ec:	621a      	str	r2, [r3, #32]
 80053ee:	e017      	b.n	8005420 <HAL_PCD_EP_DB_Transmit+0x66e>
 80053f0:	68bb      	ldr	r3, [r7, #8]
 80053f2:	6a1b      	ldr	r3, [r3, #32]
 80053f4:	2b00      	cmp	r3, #0
 80053f6:	d108      	bne.n	800540a <HAL_PCD_EP_DB_Transmit+0x658>
 80053f8:	f8b7 3086 	ldrh.w	r3, [r7, #134]	; 0x86
 80053fc:	f8c7 308c 	str.w	r3, [r7, #140]	; 0x8c
 8005400:	68bb      	ldr	r3, [r7, #8]
 8005402:	2200      	movs	r2, #0
 8005404:	f883 2024 	strb.w	r2, [r3, #36]	; 0x24
 8005408:	e00a      	b.n	8005420 <HAL_PCD_EP_DB_Transmit+0x66e>
 800540a:	68bb      	ldr	r3, [r7, #8]
 800540c:	6a1b      	ldr	r3, [r3, #32]
 800540e:	f8c7 308c 	str.w	r3, [r7, #140]	; 0x8c
 8005412:	68bb      	ldr	r3, [r7, #8]
 8005414:	2200      	movs	r2, #0
 8005416:	621a      	str	r2, [r3, #32]
 8005418:	68bb      	ldr	r3, [r7, #8]
 800541a:	2200      	movs	r2, #0
 800541c:	f883 2024 	strb.w	r2, [r3, #36]	; 0x24
 8005420:	68fb      	ldr	r3, [r7, #12]
 8005422:	681b      	ldr	r3, [r3, #0]
 8005424:	657b      	str	r3, [r7, #84]	; 0x54
 8005426:	68bb      	ldr	r3, [r7, #8]
 8005428:	785b      	ldrb	r3, [r3, #1]
 800542a:	2b00      	cmp	r3, #0
 800542c:	d165      	bne.n	80054fa <HAL_PCD_EP_DB_Transmit+0x748>
 800542e:	68fb      	ldr	r3, [r7, #12]
 8005430:	681b      	ldr	r3, [r3, #0]
 8005432:	65fb      	str	r3, [r7, #92]	; 0x5c
 8005434:	68fb      	ldr	r3, [r7, #12]
 8005436:	681b      	ldr	r3, [r3, #0]
 8005438:	f8b3 3050 	ldrh.w	r3, [r3, #80]	; 0x50
 800543c:	b29b      	uxth	r3, r3
 800543e:	461a      	mov	r2, r3
 8005440:	6dfb      	ldr	r3, [r7, #92]	; 0x5c
 8005442:	4413      	add	r3, r2
 8005444:	65fb      	str	r3, [r7, #92]	; 0x5c
 8005446:	68bb      	ldr	r3, [r7, #8]
 8005448:	781b      	ldrb	r3, [r3, #0]
 800544a:	00da      	lsls	r2, r3, #3
 800544c:	6dfb      	ldr	r3, [r7, #92]	; 0x5c
 800544e:	4413      	add	r3, r2
 8005450:	f203 4306 	addw	r3, r3, #1030	; 0x406
 8005454:	65bb      	str	r3, [r7, #88]	; 0x58
 8005456:	6dbb      	ldr	r3, [r7, #88]	; 0x58
 8005458:	881b      	ldrh	r3, [r3, #0]
 800545a:	b29b      	uxth	r3, r3
 800545c:	f3c3 0309 	ubfx	r3, r3, #0, #10
 8005460:	b29a      	uxth	r2, r3
 8005462:	6dbb      	ldr	r3, [r7, #88]	; 0x58
 8005464:	801a      	strh	r2, [r3, #0]
 8005466:	f8d7 308c 	ldr.w	r3, [r7, #140]	; 0x8c
 800546a:	2b3e      	cmp	r3, #62	; 0x3e
 800546c:	d91d      	bls.n	80054aa <HAL_PCD_EP_DB_Transmit+0x6f8>
 800546e:	f8d7 308c 	ldr.w	r3, [r7, #140]	; 0x8c
 8005472:	095b      	lsrs	r3, r3, #5
 8005474:	66bb      	str	r3, [r7, #104]	; 0x68
 8005476:	f8d7 308c 	ldr.w	r3, [r7, #140]	; 0x8c
 800547a:	f003 031f 	and.w	r3, r3, #31
 800547e:	2b00      	cmp	r3, #0
 8005480:	d102      	bne.n	8005488 <HAL_PCD_EP_DB_Transmit+0x6d6>
 8005482:	6ebb      	ldr	r3, [r7, #104]	; 0x68
 8005484:	3b01      	subs	r3, #1
 8005486:	66bb      	str	r3, [r7, #104]	; 0x68
 8005488:	6dbb      	ldr	r3, [r7, #88]	; 0x58
 800548a:	881b      	ldrh	r3, [r3, #0]
 800548c:	b29a      	uxth	r2, r3
 800548e:	6ebb      	ldr	r3, [r7, #104]	; 0x68
 8005490:	b29b      	uxth	r3, r3
 8005492:	029b      	lsls	r3, r3, #10
 8005494:	b29b      	uxth	r3, r3
 8005496:	4313      	orrs	r3, r2
 8005498:	b29b      	uxth	r3, r3
 800549a:	ea6f 4343 	mvn.w	r3, r3, lsl #17
 800549e:	ea6f 4353 	mvn.w	r3, r3, lsr #17
 80054a2:	b29a      	uxth	r2, r3
 80054a4:	6dbb      	ldr	r3, [r7, #88]	; 0x58
 80054a6:	801a      	strh	r2, [r3, #0]
 80054a8:	e041      	b.n	800552e <HAL_PCD_EP_DB_Transmit+0x77c>
 80054aa:	f8d7 308c 	ldr.w	r3, [r7, #140]	; 0x8c
 80054ae:	2b00      	cmp	r3, #0
 80054b0:	d10a      	bne.n	80054c8 <HAL_PCD_EP_DB_Transmit+0x716>
 80054b2:	6dbb      	ldr	r3, [r7, #88]	; 0x58
 80054b4:	881b      	ldrh	r3, [r3, #0]
 80054b6:	b29b      	uxth	r3, r3
 80054b8:	ea6f 4343 	mvn.w	r3, r3, lsl #17
 80054bc:	ea6f 4353 	mvn.w	r3, r3, lsr #17
 80054c0:	b29a      	uxth	r2, r3
 80054c2:	6dbb      	ldr	r3, [r7, #88]	; 0x58
 80054c4:	801a      	strh	r2, [r3, #0]
 80054c6:	e032      	b.n	800552e <HAL_PCD_EP_DB_Transmit+0x77c>
 80054c8:	f8d7 308c 	ldr.w	r3, [r7, #140]	; 0x8c
 80054cc:	085b      	lsrs	r3, r3, #1
 80054ce:	66bb      	str	r3, [r7, #104]	; 0x68
 80054d0:	f8d7 308c 	ldr.w	r3, [r7, #140]	; 0x8c
 80054d4:	f003 0301 	and.w	r3, r3, #1
 80054d8:	2b00      	cmp	r3, #0
 80054da:	d002      	beq.n	80054e2 <HAL_PCD_EP_DB_Transmit+0x730>
 80054dc:	6ebb      	ldr	r3, [r7, #104]	; 0x68
 80054de:	3301      	adds	r3, #1
 80054e0:	66bb      	str	r3, [r7, #104]	; 0x68
 80054e2:	6dbb      	ldr	r3, [r7, #88]	; 0x58
 80054e4:	881b      	ldrh	r3, [r3, #0]
 80054e6:	b29a      	uxth	r2, r3
 80054e8:	6ebb      	ldr	r3, [r7, #104]	; 0x68
 80054ea:	b29b      	uxth	r3, r3
 80054ec:	029b      	lsls	r3, r3, #10
 80054ee:	b29b      	uxth	r3, r3
 80054f0:	4313      	orrs	r3, r2
 80054f2:	b29a      	uxth	r2, r3
 80054f4:	6dbb      	ldr	r3, [r7, #88]	; 0x58
 80054f6:	801a      	strh	r2, [r3, #0]
 80054f8:	e019      	b.n	800552e <HAL_PCD_EP_DB_Transmit+0x77c>
 80054fa:	68bb      	ldr	r3, [r7, #8]
 80054fc:	785b      	ldrb	r3, [r3, #1]
 80054fe:	2b01      	cmp	r3, #1
 8005500:	d115      	bne.n	800552e <HAL_PCD_EP_DB_Transmit+0x77c>
 8005502:	68fb      	ldr	r3, [r7, #12]
 8005504:	681b      	ldr	r3, [r3, #0]
 8005506:	f8b3 3050 	ldrh.w	r3, [r3, #80]	; 0x50
 800550a:	b29b      	uxth	r3, r3
 800550c:	461a      	mov	r2, r3
 800550e:	6d7b      	ldr	r3, [r7, #84]	; 0x54
 8005510:	4413      	add	r3, r2
 8005512:	657b      	str	r3, [r7, #84]	; 0x54
 8005514:	68bb      	ldr	r3, [r7, #8]
 8005516:	781b      	ldrb	r3, [r3, #0]
 8005518:	00da      	lsls	r2, r3, #3
 800551a:	6d7b      	ldr	r3, [r7, #84]	; 0x54
 800551c:	4413      	add	r3, r2
 800551e:	f203 4306 	addw	r3, r3, #1030	; 0x406
 8005522:	653b      	str	r3, [r7, #80]	; 0x50
 8005524:	f8d7 308c 	ldr.w	r3, [r7, #140]	; 0x8c
 8005528:	b29a      	uxth	r2, r3
 800552a:	6d3b      	ldr	r3, [r7, #80]	; 0x50
 800552c:	801a      	strh	r2, [r3, #0]
 800552e:	68fb      	ldr	r3, [r7, #12]
 8005530:	6818      	ldr	r0, [r3, #0]
 8005532:	68bb      	ldr	r3, [r7, #8]
 8005534:	6959      	ldr	r1, [r3, #20]
 8005536:	68bb      	ldr	r3, [r7, #8]
 8005538:	895a      	ldrh	r2, [r3, #10]
 800553a:	f8d7 308c 	ldr.w	r3, [r7, #140]	; 0x8c
 800553e:	b29b      	uxth	r3, r3
 8005540:	f005 fc70 	bl	800ae24 <USB_WritePMA>
 8005544:	68fb      	ldr	r3, [r7, #12]
 8005546:	681b      	ldr	r3, [r3, #0]
 8005548:	461a      	mov	r2, r3
 800554a:	68bb      	ldr	r3, [r7, #8]
 800554c:	781b      	ldrb	r3, [r3, #0]
 800554e:	009b      	lsls	r3, r3, #2
 8005550:	4413      	add	r3, r2
 8005552:	881b      	ldrh	r3, [r3, #0]
 8005554:	b29b      	uxth	r3, r3
 8005556:	f423 43e0 	bic.w	r3, r3, #28672	; 0x7000
 800555a:	f023 0340 	bic.w	r3, r3, #64	; 0x40
 800555e:	82bb      	strh	r3, [r7, #20]
 8005560:	8abb      	ldrh	r3, [r7, #20]
 8005562:	f083 0310 	eor.w	r3, r3, #16
 8005566:	82bb      	strh	r3, [r7, #20]
 8005568:	8abb      	ldrh	r3, [r7, #20]
 800556a:	f083 0320 	eor.w	r3, r3, #32
 800556e:	82bb      	strh	r3, [r7, #20]
 8005570:	68fb      	ldr	r3, [r7, #12]
 8005572:	681b      	ldr	r3, [r3, #0]
 8005574:	461a      	mov	r2, r3
 8005576:	68bb      	ldr	r3, [r7, #8]
 8005578:	781b      	ldrb	r3, [r3, #0]
 800557a:	009b      	lsls	r3, r3, #2
 800557c:	441a      	add	r2, r3
 800557e:	8abb      	ldrh	r3, [r7, #20]
 8005580:	f043 437f 	orr.w	r3, r3, #4278190080	; 0xff000000
 8005584:	f443 037f 	orr.w	r3, r3, #16711680	; 0xff0000
 8005588:	f443 4300 	orr.w	r3, r3, #32768	; 0x8000
 800558c:	f043 0380 	orr.w	r3, r3, #128	; 0x80
 8005590:	b29b      	uxth	r3, r3
 8005592:	8013      	strh	r3, [r2, #0]
 8005594:	2300      	movs	r3, #0
 8005596:	4618      	mov	r0, r3
 8005598:	3790      	adds	r7, #144	; 0x90
 800559a:	46bd      	mov	sp, r7
 800559c:	bd80      	pop	{r7, pc}

0800559e <HAL_PCDEx_PMAConfig>:
 800559e:	b480      	push	{r7}
 80055a0:	b087      	sub	sp, #28
 80055a2:	af00      	add	r7, sp, #0
 80055a4:	60f8      	str	r0, [r7, #12]
 80055a6:	607b      	str	r3, [r7, #4]
 80055a8:	460b      	mov	r3, r1
 80055aa:	817b      	strh	r3, [r7, #10]
 80055ac:	4613      	mov	r3, r2
 80055ae:	813b      	strh	r3, [r7, #8]
 80055b0:	897b      	ldrh	r3, [r7, #10]
 80055b2:	f003 0380 	and.w	r3, r3, #128	; 0x80
 80055b6:	b29b      	uxth	r3, r3
 80055b8:	2b00      	cmp	r3, #0
 80055ba:	d00b      	beq.n	80055d4 <HAL_PCDEx_PMAConfig+0x36>
 80055bc:	897b      	ldrh	r3, [r7, #10]
 80055be:	f003 0207 	and.w	r2, r3, #7
 80055c2:	4613      	mov	r3, r2
 80055c4:	009b      	lsls	r3, r3, #2
 80055c6:	4413      	add	r3, r2
 80055c8:	00db      	lsls	r3, r3, #3
 80055ca:	3310      	adds	r3, #16
 80055cc:	68fa      	ldr	r2, [r7, #12]
 80055ce:	4413      	add	r3, r2
 80055d0:	617b      	str	r3, [r7, #20]
 80055d2:	e009      	b.n	80055e8 <HAL_PCDEx_PMAConfig+0x4a>
 80055d4:	897a      	ldrh	r2, [r7, #10]
 80055d6:	4613      	mov	r3, r2
 80055d8:	009b      	lsls	r3, r3, #2
 80055da:	4413      	add	r3, r2
 80055dc:	00db      	lsls	r3, r3, #3
 80055de:	f503 73a8 	add.w	r3, r3, #336	; 0x150
 80055e2:	68fa      	ldr	r2, [r7, #12]
 80055e4:	4413      	add	r3, r2
 80055e6:	617b      	str	r3, [r7, #20]
 80055e8:	893b      	ldrh	r3, [r7, #8]
 80055ea:	2b00      	cmp	r3, #0
 80055ec:	d107      	bne.n	80055fe <HAL_PCDEx_PMAConfig+0x60>
 80055ee:	697b      	ldr	r3, [r7, #20]
 80055f0:	2200      	movs	r2, #0
 80055f2:	731a      	strb	r2, [r3, #12]
 80055f4:	687b      	ldr	r3, [r7, #4]
 80055f6:	b29a      	uxth	r2, r3
 80055f8:	697b      	ldr	r3, [r7, #20]
 80055fa:	80da      	strh	r2, [r3, #6]
 80055fc:	e00b      	b.n	8005616 <HAL_PCDEx_PMAConfig+0x78>
 80055fe:	697b      	ldr	r3, [r7, #20]
 8005600:	2201      	movs	r2, #1
 8005602:	731a      	strb	r2, [r3, #12]
 8005604:	687b      	ldr	r3, [r7, #4]
 8005606:	b29a      	uxth	r2, r3
 8005608:	697b      	ldr	r3, [r7, #20]
 800560a:	811a      	strh	r2, [r3, #8]
 800560c:	687b      	ldr	r3, [r7, #4]
 800560e:	0c1b      	lsrs	r3, r3, #16
 8005610:	b29a      	uxth	r2, r3
 8005612:	697b      	ldr	r3, [r7, #20]
 8005614:	815a      	strh	r2, [r3, #10]
 8005616:	2300      	movs	r3, #0
 8005618:	4618      	mov	r0, r3
 800561a:	371c      	adds	r7, #28
 800561c:	46bd      	mov	sp, r7
 800561e:	f85d 7b04 	ldr.w	r7, [sp], #4
 8005622:	4770      	bx	lr

08005624 <HAL_PCDEx_ActivateLPM>:
 8005624:	b480      	push	{r7}
 8005626:	b085      	sub	sp, #20
 8005628:	af00      	add	r7, sp, #0
 800562a:	6078      	str	r0, [r7, #4]
 800562c:	687b      	ldr	r3, [r7, #4]
 800562e:	681b      	ldr	r3, [r3, #0]
 8005630:	60fb      	str	r3, [r7, #12]
 8005632:	687b      	ldr	r3, [r7, #4]
 8005634:	2201      	movs	r2, #1
 8005636:	f8c3 22d0 	str.w	r2, [r3, #720]	; 0x2d0
 800563a:	687b      	ldr	r3, [r7, #4]
 800563c:	2200      	movs	r2, #0
 800563e:	f883 22c8 	strb.w	r2, [r3, #712]	; 0x2c8
 8005642:	68fb      	ldr	r3, [r7, #12]
 8005644:	f8b3 3054 	ldrh.w	r3, [r3, #84]	; 0x54
 8005648:	b29b      	uxth	r3, r3
 800564a:	f043 0301 	orr.w	r3, r3, #1
 800564e:	b29a      	uxth	r2, r3
 8005650:	68fb      	ldr	r3, [r7, #12]
 8005652:	f8a3 2054 	strh.w	r2, [r3, #84]	; 0x54
 8005656:	68fb      	ldr	r3, [r7, #12]
 8005658:	f8b3 3054 	ldrh.w	r3, [r3, #84]	; 0x54
 800565c:	b29b      	uxth	r3, r3
 800565e:	f043 0302 	orr.w	r3, r3, #2
 8005662:	b29a      	uxth	r2, r3
 8005664:	68fb      	ldr	r3, [r7, #12]
 8005666:	f8a3 2054 	strh.w	r2, [r3, #84]	; 0x54
 800566a:	2300      	movs	r3, #0
 800566c:	4618      	mov	r0, r3
 800566e:	3714      	adds	r7, #20
 8005670:	46bd      	mov	sp, r7
 8005672:	f85d 7b04 	ldr.w	r7, [sp], #4
 8005676:	4770      	bx	lr

08005678 <HAL_PWREx_ControlVoltageScaling>:
 8005678:	b480      	push	{r7}
 800567a:	b085      	sub	sp, #20
 800567c:	af00      	add	r7, sp, #0
 800567e:	6078      	str	r0, [r7, #4]
 8005680:	687b      	ldr	r3, [r7, #4]
 8005682:	2b00      	cmp	r3, #0
 8005684:	d141      	bne.n	800570a <HAL_PWREx_ControlVoltageScaling+0x92>
 8005686:	4b4b      	ldr	r3, [pc, #300]	; (80057b4 <HAL_PWREx_ControlVoltageScaling+0x13c>)
 8005688:	681b      	ldr	r3, [r3, #0]
 800568a:	f403 63c0 	and.w	r3, r3, #1536	; 0x600
 800568e:	f5b3 6f80 	cmp.w	r3, #1024	; 0x400
 8005692:	d131      	bne.n	80056f8 <HAL_PWREx_ControlVoltageScaling+0x80>
 8005694:	4b47      	ldr	r3, [pc, #284]	; (80057b4 <HAL_PWREx_ControlVoltageScaling+0x13c>)
 8005696:	f8d3 3080 	ldr.w	r3, [r3, #128]	; 0x80
 800569a:	4a46      	ldr	r2, [pc, #280]	; (80057b4 <HAL_PWREx_ControlVoltageScaling+0x13c>)
 800569c:	f423 7380 	bic.w	r3, r3, #256	; 0x100
 80056a0:	f8c2 3080 	str.w	r3, [r2, #128]	; 0x80
 80056a4:	4b43      	ldr	r3, [pc, #268]	; (80057b4 <HAL_PWREx_ControlVoltageScaling+0x13c>)
 80056a6:	681b      	ldr	r3, [r3, #0]
 80056a8:	f423 63c0 	bic.w	r3, r3, #1536	; 0x600
 80056ac:	4a41      	ldr	r2, [pc, #260]	; (80057b4 <HAL_PWREx_ControlVoltageScaling+0x13c>)
 80056ae:	f443 7300 	orr.w	r3, r3, #512	; 0x200
 80056b2:	6013      	str	r3, [r2, #0]
 80056b4:	4b40      	ldr	r3, [pc, #256]	; (80057b8 <HAL_PWREx_ControlVoltageScaling+0x140>)
 80056b6:	681b      	ldr	r3, [r3, #0]
 80056b8:	2232      	movs	r2, #50	; 0x32
 80056ba:	fb02 f303 	mul.w	r3, r2, r3
 80056be:	4a3f      	ldr	r2, [pc, #252]	; (80057bc <HAL_PWREx_ControlVoltageScaling+0x144>)
 80056c0:	fba2 2303 	umull	r2, r3, r2, r3
 80056c4:	0c9b      	lsrs	r3, r3, #18
 80056c6:	3301      	adds	r3, #1
 80056c8:	60fb      	str	r3, [r7, #12]
 80056ca:	e002      	b.n	80056d2 <HAL_PWREx_ControlVoltageScaling+0x5a>
 80056cc:	68fb      	ldr	r3, [r7, #12]
 80056ce:	3b01      	subs	r3, #1
 80056d0:	60fb      	str	r3, [r7, #12]
 80056d2:	4b38      	ldr	r3, [pc, #224]	; (80057b4 <HAL_PWREx_ControlVoltageScaling+0x13c>)
 80056d4:	695b      	ldr	r3, [r3, #20]
 80056d6:	f403 6380 	and.w	r3, r3, #1024	; 0x400
 80056da:	f5b3 6f80 	cmp.w	r3, #1024	; 0x400
 80056de:	d102      	bne.n	80056e6 <HAL_PWREx_ControlVoltageScaling+0x6e>
 80056e0:	68fb      	ldr	r3, [r7, #12]
 80056e2:	2b00      	cmp	r3, #0
 80056e4:	d1f2      	bne.n	80056cc <HAL_PWREx_ControlVoltageScaling+0x54>
 80056e6:	4b33      	ldr	r3, [pc, #204]	; (80057b4 <HAL_PWREx_ControlVoltageScaling+0x13c>)
 80056e8:	695b      	ldr	r3, [r3, #20]
 80056ea:	f403 6380 	and.w	r3, r3, #1024	; 0x400
 80056ee:	f5b3 6f80 	cmp.w	r3, #1024	; 0x400
 80056f2:	d158      	bne.n	80057a6 <HAL_PWREx_ControlVoltageScaling+0x12e>
 80056f4:	2303      	movs	r3, #3
 80056f6:	e057      	b.n	80057a8 <HAL_PWREx_ControlVoltageScaling+0x130>
 80056f8:	4b2e      	ldr	r3, [pc, #184]	; (80057b4 <HAL_PWREx_ControlVoltageScaling+0x13c>)
 80056fa:	f8d3 3080 	ldr.w	r3, [r3, #128]	; 0x80
 80056fe:	4a2d      	ldr	r2, [pc, #180]	; (80057b4 <HAL_PWREx_ControlVoltageScaling+0x13c>)
 8005700:	f423 7380 	bic.w	r3, r3, #256	; 0x100
 8005704:	f8c2 3080 	str.w	r3, [r2, #128]	; 0x80
 8005708:	e04d      	b.n	80057a6 <HAL_PWREx_ControlVoltageScaling+0x12e>
 800570a:	687b      	ldr	r3, [r7, #4]
 800570c:	f5b3 7f00 	cmp.w	r3, #512	; 0x200
 8005710:	d141      	bne.n	8005796 <HAL_PWREx_ControlVoltageScaling+0x11e>
 8005712:	4b28      	ldr	r3, [pc, #160]	; (80057b4 <HAL_PWREx_ControlVoltageScaling+0x13c>)
 8005714:	681b      	ldr	r3, [r3, #0]
 8005716:	f403 63c0 	and.w	r3, r3, #1536	; 0x600
 800571a:	f5b3 6f80 	cmp.w	r3, #1024	; 0x400
 800571e:	d131      	bne.n	8005784 <HAL_PWREx_ControlVoltageScaling+0x10c>
 8005720:	4b24      	ldr	r3, [pc, #144]	; (80057b4 <HAL_PWREx_ControlVoltageScaling+0x13c>)
 8005722:	f8d3 3080 	ldr.w	r3, [r3, #128]	; 0x80
 8005726:	4a23      	ldr	r2, [pc, #140]	; (80057b4 <HAL_PWREx_ControlVoltageScaling+0x13c>)
 8005728:	f443 7380 	orr.w	r3, r3, #256	; 0x100
 800572c:	f8c2 3080 	str.w	r3, [r2, #128]	; 0x80
 8005730:	4b20      	ldr	r3, [pc, #128]	; (80057b4 <HAL_PWREx_ControlVoltageScaling+0x13c>)
 8005732:	681b      	ldr	r3, [r3, #0]
 8005734:	f423 63c0 	bic.w	r3, r3, #1536	; 0x600
 8005738:	4a1e      	ldr	r2, [pc, #120]	; (80057b4 <HAL_PWREx_ControlVoltageScaling+0x13c>)
 800573a:	f443 7300 	orr.w	r3, r3, #512	; 0x200
 800573e:	6013      	str	r3, [r2, #0]
 8005740:	4b1d      	ldr	r3, [pc, #116]	; (80057b8 <HAL_PWREx_ControlVoltageScaling+0x140>)
 8005742:	681b      	ldr	r3, [r3, #0]
 8005744:	2232      	movs	r2, #50	; 0x32
 8005746:	fb02 f303 	mul.w	r3, r2, r3
 800574a:	4a1c      	ldr	r2, [pc, #112]	; (80057bc <HAL_PWREx_ControlVoltageScaling+0x144>)
 800574c:	fba2 2303 	umull	r2, r3, r2, r3
 8005750:	0c9b      	lsrs	r3, r3, #18
 8005752:	3301      	adds	r3, #1
 8005754:	60fb      	str	r3, [r7, #12]
 8005756:	e002      	b.n	800575e <HAL_PWREx_ControlVoltageScaling+0xe6>
 8005758:	68fb      	ldr	r3, [r7, #12]
 800575a:	3b01      	subs	r3, #1
 800575c:	60fb      	str	r3, [r7, #12]
 800575e:	4b15      	ldr	r3, [pc, #84]	; (80057b4 <HAL_PWREx_ControlVoltageScaling+0x13c>)
 8005760:	695b      	ldr	r3, [r3, #20]
 8005762:	f403 6380 	and.w	r3, r3, #1024	; 0x400
 8005766:	f5b3 6f80 	cmp.w	r3, #1024	; 0x400
 800576a:	d102      	bne.n	8005772 <HAL_PWREx_ControlVoltageScaling+0xfa>
 800576c:	68fb      	ldr	r3, [r7, #12]
 800576e:	2b00      	cmp	r3, #0
 8005770:	d1f2      	bne.n	8005758 <HAL_PWREx_ControlVoltageScaling+0xe0>
 8005772:	4b10      	ldr	r3, [pc, #64]	; (80057b4 <HAL_PWREx_ControlVoltageScaling+0x13c>)
 8005774:	695b      	ldr	r3, [r3, #20]
 8005776:	f403 6380 	and.w	r3, r3, #1024	; 0x400
 800577a:	f5b3 6f80 	cmp.w	r3, #1024	; 0x400
 800577e:	d112      	bne.n	80057a6 <HAL_PWREx_ControlVoltageScaling+0x12e>
 8005780:	2303      	movs	r3, #3
 8005782:	e011      	b.n	80057a8 <HAL_PWREx_ControlVoltageScaling+0x130>
 8005784:	4b0b      	ldr	r3, [pc, #44]	; (80057b4 <HAL_PWREx_ControlVoltageScaling+0x13c>)
 8005786:	f8d3 3080 	ldr.w	r3, [r3, #128]	; 0x80
 800578a:	4a0a      	ldr	r2, [pc, #40]	; (80057b4 <HAL_PWREx_ControlVoltageScaling+0x13c>)
 800578c:	f443 7380 	orr.w	r3, r3, #256	; 0x100
 8005790:	f8c2 3080 	str.w	r3, [r2, #128]	; 0x80
 8005794:	e007      	b.n	80057a6 <HAL_PWREx_ControlVoltageScaling+0x12e>
 8005796:	4b07      	ldr	r3, [pc, #28]	; (80057b4 <HAL_PWREx_ControlVoltageScaling+0x13c>)
 8005798:	681b      	ldr	r3, [r3, #0]
 800579a:	f423 63c0 	bic.w	r3, r3, #1536	; 0x600
 800579e:	4a05      	ldr	r2, [pc, #20]	; (80057b4 <HAL_PWREx_ControlVoltageScaling+0x13c>)
 80057a0:	f443 6380 	orr.w	r3, r3, #1024	; 0x400
 80057a4:	6013      	str	r3, [r2, #0]
 80057a6:	2300      	movs	r3, #0
 80057a8:	4618      	mov	r0, r3
 80057aa:	3714      	adds	r7, #20
 80057ac:	46bd      	mov	sp, r7
 80057ae:	f85d 7b04 	ldr.w	r7, [sp], #4
 80057b2:	4770      	bx	lr
 80057b4:	40007000 	.word	0x40007000
 80057b8:	20000008 	.word	0x20000008
 80057bc:	431bde83 	.word	0x431bde83

080057c0 <HAL_PWREx_DisableUCPDDeadBattery>:
 80057c0:	b480      	push	{r7}
 80057c2:	af00      	add	r7, sp, #0
 80057c4:	4b05      	ldr	r3, [pc, #20]	; (80057dc <HAL_PWREx_DisableUCPDDeadBattery+0x1c>)
 80057c6:	689b      	ldr	r3, [r3, #8]
 80057c8:	4a04      	ldr	r2, [pc, #16]	; (80057dc <HAL_PWREx_DisableUCPDDeadBattery+0x1c>)
 80057ca:	f443 4380 	orr.w	r3, r3, #16384	; 0x4000
 80057ce:	6093      	str	r3, [r2, #8]
 80057d0:	bf00      	nop
 80057d2:	46bd      	mov	sp, r7
 80057d4:	f85d 7b04 	ldr.w	r7, [sp], #4
 80057d8:	4770      	bx	lr
 80057da:	bf00      	nop
 80057dc:	40007000 	.word	0x40007000

080057e0 <HAL_RCC_OscConfig>:
 80057e0:	b580      	push	{r7, lr}
 80057e2:	b088      	sub	sp, #32
 80057e4:	af00      	add	r7, sp, #0
 80057e6:	6078      	str	r0, [r7, #4]
 80057e8:	687b      	ldr	r3, [r7, #4]
 80057ea:	2b00      	cmp	r3, #0
 80057ec:	d101      	bne.n	80057f2 <HAL_RCC_OscConfig+0x12>
 80057ee:	2301      	movs	r3, #1
 80057f0:	e2fe      	b.n	8005df0 <HAL_RCC_OscConfig+0x610>
 80057f2:	687b      	ldr	r3, [r7, #4]
 80057f4:	681b      	ldr	r3, [r3, #0]
 80057f6:	f003 0301 	and.w	r3, r3, #1
 80057fa:	2b00      	cmp	r3, #0
 80057fc:	d075      	beq.n	80058ea <HAL_RCC_OscConfig+0x10a>
 80057fe:	4b97      	ldr	r3, [pc, #604]	; (8005a5c <HAL_RCC_OscConfig+0x27c>)
 8005800:	689b      	ldr	r3, [r3, #8]
 8005802:	f003 030c 	and.w	r3, r3, #12
 8005806:	61bb      	str	r3, [r7, #24]
 8005808:	4b94      	ldr	r3, [pc, #592]	; (8005a5c <HAL_RCC_OscConfig+0x27c>)
 800580a:	68db      	ldr	r3, [r3, #12]
 800580c:	f003 0303 	and.w	r3, r3, #3
 8005810:	617b      	str	r3, [r7, #20]
 8005812:	69bb      	ldr	r3, [r7, #24]
 8005814:	2b0c      	cmp	r3, #12
 8005816:	d102      	bne.n	800581e <HAL_RCC_OscConfig+0x3e>
 8005818:	697b      	ldr	r3, [r7, #20]
 800581a:	2b03      	cmp	r3, #3
 800581c:	d002      	beq.n	8005824 <HAL_RCC_OscConfig+0x44>
 800581e:	69bb      	ldr	r3, [r7, #24]
 8005820:	2b08      	cmp	r3, #8
 8005822:	d10b      	bne.n	800583c <HAL_RCC_OscConfig+0x5c>
 8005824:	4b8d      	ldr	r3, [pc, #564]	; (8005a5c <HAL_RCC_OscConfig+0x27c>)
 8005826:	681b      	ldr	r3, [r3, #0]
 8005828:	f403 3300 	and.w	r3, r3, #131072	; 0x20000
 800582c:	2b00      	cmp	r3, #0
 800582e:	d05b      	beq.n	80058e8 <HAL_RCC_OscConfig+0x108>
 8005830:	687b      	ldr	r3, [r7, #4]
 8005832:	685b      	ldr	r3, [r3, #4]
 8005834:	2b00      	cmp	r3, #0
 8005836:	d157      	bne.n	80058e8 <HAL_RCC_OscConfig+0x108>
 8005838:	2301      	movs	r3, #1
 800583a:	e2d9      	b.n	8005df0 <HAL_RCC_OscConfig+0x610>
 800583c:	687b      	ldr	r3, [r7, #4]
 800583e:	685b      	ldr	r3, [r3, #4]
 8005840:	f5b3 3f80 	cmp.w	r3, #65536	; 0x10000
 8005844:	d106      	bne.n	8005854 <HAL_RCC_OscConfig+0x74>
 8005846:	4b85      	ldr	r3, [pc, #532]	; (8005a5c <HAL_RCC_OscConfig+0x27c>)
 8005848:	681b      	ldr	r3, [r3, #0]
 800584a:	4a84      	ldr	r2, [pc, #528]	; (8005a5c <HAL_RCC_OscConfig+0x27c>)
 800584c:	f443 3380 	orr.w	r3, r3, #65536	; 0x10000
 8005850:	6013      	str	r3, [r2, #0]
 8005852:	e01d      	b.n	8005890 <HAL_RCC_OscConfig+0xb0>
 8005854:	687b      	ldr	r3, [r7, #4]
 8005856:	685b      	ldr	r3, [r3, #4]
 8005858:	f5b3 2fa0 	cmp.w	r3, #327680	; 0x50000
 800585c:	d10c      	bne.n	8005878 <HAL_RCC_OscConfig+0x98>
 800585e:	4b7f      	ldr	r3, [pc, #508]	; (8005a5c <HAL_RCC_OscConfig+0x27c>)
 8005860:	681b      	ldr	r3, [r3, #0]
 8005862:	4a7e      	ldr	r2, [pc, #504]	; (8005a5c <HAL_RCC_OscConfig+0x27c>)
 8005864:	f443 2380 	orr.w	r3, r3, #262144	; 0x40000
 8005868:	6013      	str	r3, [r2, #0]
 800586a:	4b7c      	ldr	r3, [pc, #496]	; (8005a5c <HAL_RCC_OscConfig+0x27c>)
 800586c:	681b      	ldr	r3, [r3, #0]
 800586e:	4a7b      	ldr	r2, [pc, #492]	; (8005a5c <HAL_RCC_OscConfig+0x27c>)
 8005870:	f443 3380 	orr.w	r3, r3, #65536	; 0x10000
 8005874:	6013      	str	r3, [r2, #0]
 8005876:	e00b      	b.n	8005890 <HAL_RCC_OscConfig+0xb0>
 8005878:	4b78      	ldr	r3, [pc, #480]	; (8005a5c <HAL_RCC_OscConfig+0x27c>)
 800587a:	681b      	ldr	r3, [r3, #0]
 800587c:	4a77      	ldr	r2, [pc, #476]	; (8005a5c <HAL_RCC_OscConfig+0x27c>)
 800587e:	f423 3380 	bic.w	r3, r3, #65536	; 0x10000
 8005882:	6013      	str	r3, [r2, #0]
 8005884:	4b75      	ldr	r3, [pc, #468]	; (8005a5c <HAL_RCC_OscConfig+0x27c>)
 8005886:	681b      	ldr	r3, [r3, #0]
 8005888:	4a74      	ldr	r2, [pc, #464]	; (8005a5c <HAL_RCC_OscConfig+0x27c>)
 800588a:	f423 2380 	bic.w	r3, r3, #262144	; 0x40000
 800588e:	6013      	str	r3, [r2, #0]
 8005890:	687b      	ldr	r3, [r7, #4]
 8005892:	685b      	ldr	r3, [r3, #4]
 8005894:	2b00      	cmp	r3, #0
 8005896:	d013      	beq.n	80058c0 <HAL_RCC_OscConfig+0xe0>
 8005898:	f7fd fba6 	bl	8002fe8 <HAL_GetTick>
 800589c:	6138      	str	r0, [r7, #16]
 800589e:	e008      	b.n	80058b2 <HAL_RCC_OscConfig+0xd2>
 80058a0:	f7fd fba2 	bl	8002fe8 <HAL_GetTick>
 80058a4:	4602      	mov	r2, r0
 80058a6:	693b      	ldr	r3, [r7, #16]
 80058a8:	1ad3      	subs	r3, r2, r3
 80058aa:	2b64      	cmp	r3, #100	; 0x64
 80058ac:	d901      	bls.n	80058b2 <HAL_RCC_OscConfig+0xd2>
 80058ae:	2303      	movs	r3, #3
 80058b0:	e29e      	b.n	8005df0 <HAL_RCC_OscConfig+0x610>
 80058b2:	4b6a      	ldr	r3, [pc, #424]	; (8005a5c <HAL_RCC_OscConfig+0x27c>)
 80058b4:	681b      	ldr	r3, [r3, #0]
 80058b6:	f403 3300 	and.w	r3, r3, #131072	; 0x20000
 80058ba:	2b00      	cmp	r3, #0
 80058bc:	d0f0      	beq.n	80058a0 <HAL_RCC_OscConfig+0xc0>
 80058be:	e014      	b.n	80058ea <HAL_RCC_OscConfig+0x10a>
 80058c0:	f7fd fb92 	bl	8002fe8 <HAL_GetTick>
 80058c4:	6138      	str	r0, [r7, #16]
 80058c6:	e008      	b.n	80058da <HAL_RCC_OscConfig+0xfa>
 80058c8:	f7fd fb8e 	bl	8002fe8 <HAL_GetTick>
 80058cc:	4602      	mov	r2, r0
 80058ce:	693b      	ldr	r3, [r7, #16]
 80058d0:	1ad3      	subs	r3, r2, r3
 80058d2:	2b64      	cmp	r3, #100	; 0x64
 80058d4:	d901      	bls.n	80058da <HAL_RCC_OscConfig+0xfa>
 80058d6:	2303      	movs	r3, #3
 80058d8:	e28a      	b.n	8005df0 <HAL_RCC_OscConfig+0x610>
 80058da:	4b60      	ldr	r3, [pc, #384]	; (8005a5c <HAL_RCC_OscConfig+0x27c>)
 80058dc:	681b      	ldr	r3, [r3, #0]
 80058de:	f403 3300 	and.w	r3, r3, #131072	; 0x20000
 80058e2:	2b00      	cmp	r3, #0
 80058e4:	d1f0      	bne.n	80058c8 <HAL_RCC_OscConfig+0xe8>
 80058e6:	e000      	b.n	80058ea <HAL_RCC_OscConfig+0x10a>
 80058e8:	bf00      	nop
 80058ea:	687b      	ldr	r3, [r7, #4]
 80058ec:	681b      	ldr	r3, [r3, #0]
 80058ee:	f003 0302 	and.w	r3, r3, #2
 80058f2:	2b00      	cmp	r3, #0
 80058f4:	d075      	beq.n	80059e2 <HAL_RCC_OscConfig+0x202>
 80058f6:	4b59      	ldr	r3, [pc, #356]	; (8005a5c <HAL_RCC_OscConfig+0x27c>)
 80058f8:	689b      	ldr	r3, [r3, #8]
 80058fa:	f003 030c 	and.w	r3, r3, #12
 80058fe:	61bb      	str	r3, [r7, #24]
 8005900:	4b56      	ldr	r3, [pc, #344]	; (8005a5c <HAL_RCC_OscConfig+0x27c>)
 8005902:	68db      	ldr	r3, [r3, #12]
 8005904:	f003 0303 	and.w	r3, r3, #3
 8005908:	617b      	str	r3, [r7, #20]
 800590a:	69bb      	ldr	r3, [r7, #24]
 800590c:	2b0c      	cmp	r3, #12
 800590e:	d102      	bne.n	8005916 <HAL_RCC_OscConfig+0x136>
 8005910:	697b      	ldr	r3, [r7, #20]
 8005912:	2b02      	cmp	r3, #2
 8005914:	d002      	beq.n	800591c <HAL_RCC_OscConfig+0x13c>
 8005916:	69bb      	ldr	r3, [r7, #24]
 8005918:	2b04      	cmp	r3, #4
 800591a:	d11f      	bne.n	800595c <HAL_RCC_OscConfig+0x17c>
 800591c:	4b4f      	ldr	r3, [pc, #316]	; (8005a5c <HAL_RCC_OscConfig+0x27c>)
 800591e:	681b      	ldr	r3, [r3, #0]
 8005920:	f403 6380 	and.w	r3, r3, #1024	; 0x400
 8005924:	2b00      	cmp	r3, #0
 8005926:	d005      	beq.n	8005934 <HAL_RCC_OscConfig+0x154>
 8005928:	687b      	ldr	r3, [r7, #4]
 800592a:	68db      	ldr	r3, [r3, #12]
 800592c:	2b00      	cmp	r3, #0
 800592e:	d101      	bne.n	8005934 <HAL_RCC_OscConfig+0x154>
 8005930:	2301      	movs	r3, #1
 8005932:	e25d      	b.n	8005df0 <HAL_RCC_OscConfig+0x610>
 8005934:	4b49      	ldr	r3, [pc, #292]	; (8005a5c <HAL_RCC_OscConfig+0x27c>)
 8005936:	685b      	ldr	r3, [r3, #4]
 8005938:	f023 42fe 	bic.w	r2, r3, #2130706432	; 0x7f000000
 800593c:	687b      	ldr	r3, [r7, #4]
 800593e:	691b      	ldr	r3, [r3, #16]
 8005940:	061b      	lsls	r3, r3, #24
 8005942:	4946      	ldr	r1, [pc, #280]	; (8005a5c <HAL_RCC_OscConfig+0x27c>)
 8005944:	4313      	orrs	r3, r2
 8005946:	604b      	str	r3, [r1, #4]
 8005948:	4b45      	ldr	r3, [pc, #276]	; (8005a60 <HAL_RCC_OscConfig+0x280>)
 800594a:	681b      	ldr	r3, [r3, #0]
 800594c:	4618      	mov	r0, r3
 800594e:	f7fd faff 	bl	8002f50 <HAL_InitTick>
 8005952:	4603      	mov	r3, r0
 8005954:	2b00      	cmp	r3, #0
 8005956:	d043      	beq.n	80059e0 <HAL_RCC_OscConfig+0x200>
 8005958:	2301      	movs	r3, #1
 800595a:	e249      	b.n	8005df0 <HAL_RCC_OscConfig+0x610>
 800595c:	687b      	ldr	r3, [r7, #4]
 800595e:	68db      	ldr	r3, [r3, #12]
 8005960:	2b00      	cmp	r3, #0
 8005962:	d023      	beq.n	80059ac <HAL_RCC_OscConfig+0x1cc>
 8005964:	4b3d      	ldr	r3, [pc, #244]	; (8005a5c <HAL_RCC_OscConfig+0x27c>)
 8005966:	681b      	ldr	r3, [r3, #0]
 8005968:	4a3c      	ldr	r2, [pc, #240]	; (8005a5c <HAL_RCC_OscConfig+0x27c>)
 800596a:	f443 7380 	orr.w	r3, r3, #256	; 0x100
 800596e:	6013      	str	r3, [r2, #0]
 8005970:	f7fd fb3a 	bl	8002fe8 <HAL_GetTick>
 8005974:	6138      	str	r0, [r7, #16]
 8005976:	e008      	b.n	800598a <HAL_RCC_OscConfig+0x1aa>
 8005978:	f7fd fb36 	bl	8002fe8 <HAL_GetTick>
 800597c:	4602      	mov	r2, r0
 800597e:	693b      	ldr	r3, [r7, #16]
 8005980:	1ad3      	subs	r3, r2, r3
 8005982:	2b02      	cmp	r3, #2
 8005984:	d901      	bls.n	800598a <HAL_RCC_OscConfig+0x1aa>
 8005986:	2303      	movs	r3, #3
 8005988:	e232      	b.n	8005df0 <HAL_RCC_OscConfig+0x610>
 800598a:	4b34      	ldr	r3, [pc, #208]	; (8005a5c <HAL_RCC_OscConfig+0x27c>)
 800598c:	681b      	ldr	r3, [r3, #0]
 800598e:	f403 6380 	and.w	r3, r3, #1024	; 0x400
 8005992:	2b00      	cmp	r3, #0
 8005994:	d0f0      	beq.n	8005978 <HAL_RCC_OscConfig+0x198>
 8005996:	4b31      	ldr	r3, [pc, #196]	; (8005a5c <HAL_RCC_OscConfig+0x27c>)
 8005998:	685b      	ldr	r3, [r3, #4]
 800599a:	f023 42fe 	bic.w	r2, r3, #2130706432	; 0x7f000000
 800599e:	687b      	ldr	r3, [r7, #4]
 80059a0:	691b      	ldr	r3, [r3, #16]
 80059a2:	061b      	lsls	r3, r3, #24
 80059a4:	492d      	ldr	r1, [pc, #180]	; (8005a5c <HAL_RCC_OscConfig+0x27c>)
 80059a6:	4313      	orrs	r3, r2
 80059a8:	604b      	str	r3, [r1, #4]
 80059aa:	e01a      	b.n	80059e2 <HAL_RCC_OscConfig+0x202>
 80059ac:	4b2b      	ldr	r3, [pc, #172]	; (8005a5c <HAL_RCC_OscConfig+0x27c>)
 80059ae:	681b      	ldr	r3, [r3, #0]
 80059b0:	4a2a      	ldr	r2, [pc, #168]	; (8005a5c <HAL_RCC_OscConfig+0x27c>)
 80059b2:	f423 7380 	bic.w	r3, r3, #256	; 0x100
 80059b6:	6013      	str	r3, [r2, #0]
 80059b8:	f7fd fb16 	bl	8002fe8 <HAL_GetTick>
 80059bc:	6138      	str	r0, [r7, #16]
 80059be:	e008      	b.n	80059d2 <HAL_RCC_OscConfig+0x1f2>
 80059c0:	f7fd fb12 	bl	8002fe8 <HAL_GetTick>
 80059c4:	4602      	mov	r2, r0
 80059c6:	693b      	ldr	r3, [r7, #16]
 80059c8:	1ad3      	subs	r3, r2, r3
 80059ca:	2b02      	cmp	r3, #2
 80059cc:	d901      	bls.n	80059d2 <HAL_RCC_OscConfig+0x1f2>
 80059ce:	2303      	movs	r3, #3
 80059d0:	e20e      	b.n	8005df0 <HAL_RCC_OscConfig+0x610>
 80059d2:	4b22      	ldr	r3, [pc, #136]	; (8005a5c <HAL_RCC_OscConfig+0x27c>)
 80059d4:	681b      	ldr	r3, [r3, #0]
 80059d6:	f403 6380 	and.w	r3, r3, #1024	; 0x400
 80059da:	2b00      	cmp	r3, #0
 80059dc:	d1f0      	bne.n	80059c0 <HAL_RCC_OscConfig+0x1e0>
 80059de:	e000      	b.n	80059e2 <HAL_RCC_OscConfig+0x202>
 80059e0:	bf00      	nop
 80059e2:	687b      	ldr	r3, [r7, #4]
 80059e4:	681b      	ldr	r3, [r3, #0]
 80059e6:	f003 0308 	and.w	r3, r3, #8
 80059ea:	2b00      	cmp	r3, #0
 80059ec:	d041      	beq.n	8005a72 <HAL_RCC_OscConfig+0x292>
 80059ee:	687b      	ldr	r3, [r7, #4]
 80059f0:	695b      	ldr	r3, [r3, #20]
 80059f2:	2b00      	cmp	r3, #0
 80059f4:	d01c      	beq.n	8005a30 <HAL_RCC_OscConfig+0x250>
 80059f6:	4b19      	ldr	r3, [pc, #100]	; (8005a5c <HAL_RCC_OscConfig+0x27c>)
 80059f8:	f8d3 3094 	ldr.w	r3, [r3, #148]	; 0x94
 80059fc:	4a17      	ldr	r2, [pc, #92]	; (8005a5c <HAL_RCC_OscConfig+0x27c>)
 80059fe:	f043 0301 	orr.w	r3, r3, #1
 8005a02:	f8c2 3094 	str.w	r3, [r2, #148]	; 0x94
 8005a06:	f7fd faef 	bl	8002fe8 <HAL_GetTick>
 8005a0a:	6138      	str	r0, [r7, #16]
 8005a0c:	e008      	b.n	8005a20 <HAL_RCC_OscConfig+0x240>
 8005a0e:	f7fd faeb 	bl	8002fe8 <HAL_GetTick>
 8005a12:	4602      	mov	r2, r0
 8005a14:	693b      	ldr	r3, [r7, #16]
 8005a16:	1ad3      	subs	r3, r2, r3
 8005a18:	2b02      	cmp	r3, #2
 8005a1a:	d901      	bls.n	8005a20 <HAL_RCC_OscConfig+0x240>
 8005a1c:	2303      	movs	r3, #3
 8005a1e:	e1e7      	b.n	8005df0 <HAL_RCC_OscConfig+0x610>
 8005a20:	4b0e      	ldr	r3, [pc, #56]	; (8005a5c <HAL_RCC_OscConfig+0x27c>)
 8005a22:	f8d3 3094 	ldr.w	r3, [r3, #148]	; 0x94
 8005a26:	f003 0302 	and.w	r3, r3, #2
 8005a2a:	2b00      	cmp	r3, #0
 8005a2c:	d0ef      	beq.n	8005a0e <HAL_RCC_OscConfig+0x22e>
 8005a2e:	e020      	b.n	8005a72 <HAL_RCC_OscConfig+0x292>
 8005a30:	4b0a      	ldr	r3, [pc, #40]	; (8005a5c <HAL_RCC_OscConfig+0x27c>)
 8005a32:	f8d3 3094 	ldr.w	r3, [r3, #148]	; 0x94
 8005a36:	4a09      	ldr	r2, [pc, #36]	; (8005a5c <HAL_RCC_OscConfig+0x27c>)
 8005a38:	f023 0301 	bic.w	r3, r3, #1
 8005a3c:	f8c2 3094 	str.w	r3, [r2, #148]	; 0x94
 8005a40:	f7fd fad2 	bl	8002fe8 <HAL_GetTick>
 8005a44:	6138      	str	r0, [r7, #16]
 8005a46:	e00d      	b.n	8005a64 <HAL_RCC_OscConfig+0x284>
 8005a48:	f7fd face 	bl	8002fe8 <HAL_GetTick>
 8005a4c:	4602      	mov	r2, r0
 8005a4e:	693b      	ldr	r3, [r7, #16]
 8005a50:	1ad3      	subs	r3, r2, r3
 8005a52:	2b02      	cmp	r3, #2
 8005a54:	d906      	bls.n	8005a64 <HAL_RCC_OscConfig+0x284>
 8005a56:	2303      	movs	r3, #3
 8005a58:	e1ca      	b.n	8005df0 <HAL_RCC_OscConfig+0x610>
 8005a5a:	bf00      	nop
 8005a5c:	40021000 	.word	0x40021000
 8005a60:	2000000c 	.word	0x2000000c
 8005a64:	4b8c      	ldr	r3, [pc, #560]	; (8005c98 <HAL_RCC_OscConfig+0x4b8>)
 8005a66:	f8d3 3094 	ldr.w	r3, [r3, #148]	; 0x94
 8005a6a:	f003 0302 	and.w	r3, r3, #2
 8005a6e:	2b00      	cmp	r3, #0
 8005a70:	d1ea      	bne.n	8005a48 <HAL_RCC_OscConfig+0x268>
 8005a72:	687b      	ldr	r3, [r7, #4]
 8005a74:	681b      	ldr	r3, [r3, #0]
 8005a76:	f003 0304 	and.w	r3, r3, #4
 8005a7a:	2b00      	cmp	r3, #0
 8005a7c:	f000 80a6 	beq.w	8005bcc <HAL_RCC_OscConfig+0x3ec>
 8005a80:	2300      	movs	r3, #0
 8005a82:	77fb      	strb	r3, [r7, #31]
 8005a84:	4b84      	ldr	r3, [pc, #528]	; (8005c98 <HAL_RCC_OscConfig+0x4b8>)
 8005a86:	6d9b      	ldr	r3, [r3, #88]	; 0x58
 8005a88:	f003 5380 	and.w	r3, r3, #268435456	; 0x10000000
 8005a8c:	2b00      	cmp	r3, #0
 8005a8e:	d101      	bne.n	8005a94 <HAL_RCC_OscConfig+0x2b4>
 8005a90:	2301      	movs	r3, #1
 8005a92:	e000      	b.n	8005a96 <HAL_RCC_OscConfig+0x2b6>
 8005a94:	2300      	movs	r3, #0
 8005a96:	2b00      	cmp	r3, #0
 8005a98:	d00d      	beq.n	8005ab6 <HAL_RCC_OscConfig+0x2d6>
 8005a9a:	4b7f      	ldr	r3, [pc, #508]	; (8005c98 <HAL_RCC_OscConfig+0x4b8>)
 8005a9c:	6d9b      	ldr	r3, [r3, #88]	; 0x58
 8005a9e:	4a7e      	ldr	r2, [pc, #504]	; (8005c98 <HAL_RCC_OscConfig+0x4b8>)
 8005aa0:	f043 5380 	orr.w	r3, r3, #268435456	; 0x10000000
 8005aa4:	6593      	str	r3, [r2, #88]	; 0x58
 8005aa6:	4b7c      	ldr	r3, [pc, #496]	; (8005c98 <HAL_RCC_OscConfig+0x4b8>)
 8005aa8:	6d9b      	ldr	r3, [r3, #88]	; 0x58
 8005aaa:	f003 5380 	and.w	r3, r3, #268435456	; 0x10000000
 8005aae:	60fb      	str	r3, [r7, #12]
 8005ab0:	68fb      	ldr	r3, [r7, #12]
 8005ab2:	2301      	movs	r3, #1
 8005ab4:	77fb      	strb	r3, [r7, #31]
 8005ab6:	4b79      	ldr	r3, [pc, #484]	; (8005c9c <HAL_RCC_OscConfig+0x4bc>)
 8005ab8:	681b      	ldr	r3, [r3, #0]
 8005aba:	f403 7380 	and.w	r3, r3, #256	; 0x100
 8005abe:	2b00      	cmp	r3, #0
 8005ac0:	d118      	bne.n	8005af4 <HAL_RCC_OscConfig+0x314>
 8005ac2:	4b76      	ldr	r3, [pc, #472]	; (8005c9c <HAL_RCC_OscConfig+0x4bc>)
 8005ac4:	681b      	ldr	r3, [r3, #0]
 8005ac6:	4a75      	ldr	r2, [pc, #468]	; (8005c9c <HAL_RCC_OscConfig+0x4bc>)
 8005ac8:	f443 7380 	orr.w	r3, r3, #256	; 0x100
 8005acc:	6013      	str	r3, [r2, #0]
 8005ace:	f7fd fa8b 	bl	8002fe8 <HAL_GetTick>
 8005ad2:	6138      	str	r0, [r7, #16]
 8005ad4:	e008      	b.n	8005ae8 <HAL_RCC_OscConfig+0x308>
 8005ad6:	f7fd fa87 	bl	8002fe8 <HAL_GetTick>
 8005ada:	4602      	mov	r2, r0
 8005adc:	693b      	ldr	r3, [r7, #16]
 8005ade:	1ad3      	subs	r3, r2, r3
 8005ae0:	2b02      	cmp	r3, #2
 8005ae2:	d901      	bls.n	8005ae8 <HAL_RCC_OscConfig+0x308>
 8005ae4:	2303      	movs	r3, #3
 8005ae6:	e183      	b.n	8005df0 <HAL_RCC_OscConfig+0x610>
 8005ae8:	4b6c      	ldr	r3, [pc, #432]	; (8005c9c <HAL_RCC_OscConfig+0x4bc>)
 8005aea:	681b      	ldr	r3, [r3, #0]
 8005aec:	f403 7380 	and.w	r3, r3, #256	; 0x100
 8005af0:	2b00      	cmp	r3, #0
 8005af2:	d0f0      	beq.n	8005ad6 <HAL_RCC_OscConfig+0x2f6>
 8005af4:	687b      	ldr	r3, [r7, #4]
 8005af6:	689b      	ldr	r3, [r3, #8]
 8005af8:	2b01      	cmp	r3, #1
 8005afa:	d108      	bne.n	8005b0e <HAL_RCC_OscConfig+0x32e>
 8005afc:	4b66      	ldr	r3, [pc, #408]	; (8005c98 <HAL_RCC_OscConfig+0x4b8>)
 8005afe:	f8d3 3090 	ldr.w	r3, [r3, #144]	; 0x90
 8005b02:	4a65      	ldr	r2, [pc, #404]	; (8005c98 <HAL_RCC_OscConfig+0x4b8>)
 8005b04:	f043 0301 	orr.w	r3, r3, #1
 8005b08:	f8c2 3090 	str.w	r3, [r2, #144]	; 0x90
 8005b0c:	e024      	b.n	8005b58 <HAL_RCC_OscConfig+0x378>
 8005b0e:	687b      	ldr	r3, [r7, #4]
 8005b10:	689b      	ldr	r3, [r3, #8]
 8005b12:	2b05      	cmp	r3, #5
 8005b14:	d110      	bne.n	8005b38 <HAL_RCC_OscConfig+0x358>
 8005b16:	4b60      	ldr	r3, [pc, #384]	; (8005c98 <HAL_RCC_OscConfig+0x4b8>)
 8005b18:	f8d3 3090 	ldr.w	r3, [r3, #144]	; 0x90
 8005b1c:	4a5e      	ldr	r2, [pc, #376]	; (8005c98 <HAL_RCC_OscConfig+0x4b8>)
 8005b1e:	f043 0304 	orr.w	r3, r3, #4
 8005b22:	f8c2 3090 	str.w	r3, [r2, #144]	; 0x90
 8005b26:	4b5c      	ldr	r3, [pc, #368]	; (8005c98 <HAL_RCC_OscConfig+0x4b8>)
 8005b28:	f8d3 3090 	ldr.w	r3, [r3, #144]	; 0x90
 8005b2c:	4a5a      	ldr	r2, [pc, #360]	; (8005c98 <HAL_RCC_OscConfig+0x4b8>)
 8005b2e:	f043 0301 	orr.w	r3, r3, #1
 8005b32:	f8c2 3090 	str.w	r3, [r2, #144]	; 0x90
 8005b36:	e00f      	b.n	8005b58 <HAL_RCC_OscConfig+0x378>
 8005b38:	4b57      	ldr	r3, [pc, #348]	; (8005c98 <HAL_RCC_OscConfig+0x4b8>)
 8005b3a:	f8d3 3090 	ldr.w	r3, [r3, #144]	; 0x90
 8005b3e:	4a56      	ldr	r2, [pc, #344]	; (8005c98 <HAL_RCC_OscConfig+0x4b8>)
 8005b40:	f023 0301 	bic.w	r3, r3, #1
 8005b44:	f8c2 3090 	str.w	r3, [r2, #144]	; 0x90
 8005b48:	4b53      	ldr	r3, [pc, #332]	; (8005c98 <HAL_RCC_OscConfig+0x4b8>)
 8005b4a:	f8d3 3090 	ldr.w	r3, [r3, #144]	; 0x90
 8005b4e:	4a52      	ldr	r2, [pc, #328]	; (8005c98 <HAL_RCC_OscConfig+0x4b8>)
 8005b50:	f023 0304 	bic.w	r3, r3, #4
 8005b54:	f8c2 3090 	str.w	r3, [r2, #144]	; 0x90
 8005b58:	687b      	ldr	r3, [r7, #4]
 8005b5a:	689b      	ldr	r3, [r3, #8]
 8005b5c:	2b00      	cmp	r3, #0
 8005b5e:	d016      	beq.n	8005b8e <HAL_RCC_OscConfig+0x3ae>
 8005b60:	f7fd fa42 	bl	8002fe8 <HAL_GetTick>
 8005b64:	6138      	str	r0, [r7, #16]
 8005b66:	e00a      	b.n	8005b7e <HAL_RCC_OscConfig+0x39e>
 8005b68:	f7fd fa3e 	bl	8002fe8 <HAL_GetTick>
 8005b6c:	4602      	mov	r2, r0
 8005b6e:	693b      	ldr	r3, [r7, #16]
 8005b70:	1ad3      	subs	r3, r2, r3
 8005b72:	f241 3288 	movw	r2, #5000	; 0x1388
 8005b76:	4293      	cmp	r3, r2
 8005b78:	d901      	bls.n	8005b7e <HAL_RCC_OscConfig+0x39e>
 8005b7a:	2303      	movs	r3, #3
 8005b7c:	e138      	b.n	8005df0 <HAL_RCC_OscConfig+0x610>
 8005b7e:	4b46      	ldr	r3, [pc, #280]	; (8005c98 <HAL_RCC_OscConfig+0x4b8>)
 8005b80:	f8d3 3090 	ldr.w	r3, [r3, #144]	; 0x90
 8005b84:	f003 0302 	and.w	r3, r3, #2
 8005b88:	2b00      	cmp	r3, #0
 8005b8a:	d0ed      	beq.n	8005b68 <HAL_RCC_OscConfig+0x388>
 8005b8c:	e015      	b.n	8005bba <HAL_RCC_OscConfig+0x3da>
 8005b8e:	f7fd fa2b 	bl	8002fe8 <HAL_GetTick>
 8005b92:	6138      	str	r0, [r7, #16]
 8005b94:	e00a      	b.n	8005bac <HAL_RCC_OscConfig+0x3cc>
 8005b96:	f7fd fa27 	bl	8002fe8 <HAL_GetTick>
 8005b9a:	4602      	mov	r2, r0
 8005b9c:	693b      	ldr	r3, [r7, #16]
 8005b9e:	1ad3      	subs	r3, r2, r3
 8005ba0:	f241 3288 	movw	r2, #5000	; 0x1388
 8005ba4:	4293      	cmp	r3, r2
 8005ba6:	d901      	bls.n	8005bac <HAL_RCC_OscConfig+0x3cc>
 8005ba8:	2303      	movs	r3, #3
 8005baa:	e121      	b.n	8005df0 <HAL_RCC_OscConfig+0x610>
 8005bac:	4b3a      	ldr	r3, [pc, #232]	; (8005c98 <HAL_RCC_OscConfig+0x4b8>)
 8005bae:	f8d3 3090 	ldr.w	r3, [r3, #144]	; 0x90
 8005bb2:	f003 0302 	and.w	r3, r3, #2
 8005bb6:	2b00      	cmp	r3, #0
 8005bb8:	d1ed      	bne.n	8005b96 <HAL_RCC_OscConfig+0x3b6>
 8005bba:	7ffb      	ldrb	r3, [r7, #31]
 8005bbc:	2b01      	cmp	r3, #1
 8005bbe:	d105      	bne.n	8005bcc <HAL_RCC_OscConfig+0x3ec>
 8005bc0:	4b35      	ldr	r3, [pc, #212]	; (8005c98 <HAL_RCC_OscConfig+0x4b8>)
 8005bc2:	6d9b      	ldr	r3, [r3, #88]	; 0x58
 8005bc4:	4a34      	ldr	r2, [pc, #208]	; (8005c98 <HAL_RCC_OscConfig+0x4b8>)
 8005bc6:	f023 5380 	bic.w	r3, r3, #268435456	; 0x10000000
 8005bca:	6593      	str	r3, [r2, #88]	; 0x58
 8005bcc:	687b      	ldr	r3, [r7, #4]
 8005bce:	681b      	ldr	r3, [r3, #0]
 8005bd0:	f003 0320 	and.w	r3, r3, #32
 8005bd4:	2b00      	cmp	r3, #0
 8005bd6:	d03c      	beq.n	8005c52 <HAL_RCC_OscConfig+0x472>
 8005bd8:	687b      	ldr	r3, [r7, #4]
 8005bda:	699b      	ldr	r3, [r3, #24]
 8005bdc:	2b00      	cmp	r3, #0
 8005bde:	d01c      	beq.n	8005c1a <HAL_RCC_OscConfig+0x43a>
 8005be0:	4b2d      	ldr	r3, [pc, #180]	; (8005c98 <HAL_RCC_OscConfig+0x4b8>)
 8005be2:	f8d3 3098 	ldr.w	r3, [r3, #152]	; 0x98
 8005be6:	4a2c      	ldr	r2, [pc, #176]	; (8005c98 <HAL_RCC_OscConfig+0x4b8>)
 8005be8:	f043 0301 	orr.w	r3, r3, #1
 8005bec:	f8c2 3098 	str.w	r3, [r2, #152]	; 0x98
 8005bf0:	f7fd f9fa 	bl	8002fe8 <HAL_GetTick>
 8005bf4:	6138      	str	r0, [r7, #16]
 8005bf6:	e008      	b.n	8005c0a <HAL_RCC_OscConfig+0x42a>
 8005bf8:	f7fd f9f6 	bl	8002fe8 <HAL_GetTick>
 8005bfc:	4602      	mov	r2, r0
 8005bfe:	693b      	ldr	r3, [r7, #16]
 8005c00:	1ad3      	subs	r3, r2, r3
 8005c02:	2b02      	cmp	r3, #2
 8005c04:	d901      	bls.n	8005c0a <HAL_RCC_OscConfig+0x42a>
 8005c06:	2303      	movs	r3, #3
 8005c08:	e0f2      	b.n	8005df0 <HAL_RCC_OscConfig+0x610>
 8005c0a:	4b23      	ldr	r3, [pc, #140]	; (8005c98 <HAL_RCC_OscConfig+0x4b8>)
 8005c0c:	f8d3 3098 	ldr.w	r3, [r3, #152]	; 0x98
 8005c10:	f003 0302 	and.w	r3, r3, #2
 8005c14:	2b00      	cmp	r3, #0
 8005c16:	d0ef      	beq.n	8005bf8 <HAL_RCC_OscConfig+0x418>
 8005c18:	e01b      	b.n	8005c52 <HAL_RCC_OscConfig+0x472>
 8005c1a:	4b1f      	ldr	r3, [pc, #124]	; (8005c98 <HAL_RCC_OscConfig+0x4b8>)
 8005c1c:	f8d3 3098 	ldr.w	r3, [r3, #152]	; 0x98
 8005c20:	4a1d      	ldr	r2, [pc, #116]	; (8005c98 <HAL_RCC_OscConfig+0x4b8>)
 8005c22:	f023 0301 	bic.w	r3, r3, #1
 8005c26:	f8c2 3098 	str.w	r3, [r2, #152]	; 0x98
 8005c2a:	f7fd f9dd 	bl	8002fe8 <HAL_GetTick>
 8005c2e:	6138      	str	r0, [r7, #16]
 8005c30:	e008      	b.n	8005c44 <HAL_RCC_OscConfig+0x464>
 8005c32:	f7fd f9d9 	bl	8002fe8 <HAL_GetTick>
 8005c36:	4602      	mov	r2, r0
 8005c38:	693b      	ldr	r3, [r7, #16]
 8005c3a:	1ad3      	subs	r3, r2, r3
 8005c3c:	2b02      	cmp	r3, #2
 8005c3e:	d901      	bls.n	8005c44 <HAL_RCC_OscConfig+0x464>
 8005c40:	2303      	movs	r3, #3
 8005c42:	e0d5      	b.n	8005df0 <HAL_RCC_OscConfig+0x610>
 8005c44:	4b14      	ldr	r3, [pc, #80]	; (8005c98 <HAL_RCC_OscConfig+0x4b8>)
 8005c46:	f8d3 3098 	ldr.w	r3, [r3, #152]	; 0x98
 8005c4a:	f003 0302 	and.w	r3, r3, #2
 8005c4e:	2b00      	cmp	r3, #0
 8005c50:	d1ef      	bne.n	8005c32 <HAL_RCC_OscConfig+0x452>
 8005c52:	687b      	ldr	r3, [r7, #4]
 8005c54:	69db      	ldr	r3, [r3, #28]
 8005c56:	2b00      	cmp	r3, #0
 8005c58:	f000 80c9 	beq.w	8005dee <HAL_RCC_OscConfig+0x60e>
 8005c5c:	4b0e      	ldr	r3, [pc, #56]	; (8005c98 <HAL_RCC_OscConfig+0x4b8>)
 8005c5e:	689b      	ldr	r3, [r3, #8]
 8005c60:	f003 030c 	and.w	r3, r3, #12
 8005c64:	2b0c      	cmp	r3, #12
 8005c66:	f000 8083 	beq.w	8005d70 <HAL_RCC_OscConfig+0x590>
 8005c6a:	687b      	ldr	r3, [r7, #4]
 8005c6c:	69db      	ldr	r3, [r3, #28]
 8005c6e:	2b02      	cmp	r3, #2
 8005c70:	d15e      	bne.n	8005d30 <HAL_RCC_OscConfig+0x550>
 8005c72:	4b09      	ldr	r3, [pc, #36]	; (8005c98 <HAL_RCC_OscConfig+0x4b8>)
 8005c74:	681b      	ldr	r3, [r3, #0]
 8005c76:	4a08      	ldr	r2, [pc, #32]	; (8005c98 <HAL_RCC_OscConfig+0x4b8>)
 8005c78:	f023 7380 	bic.w	r3, r3, #16777216	; 0x1000000
 8005c7c:	6013      	str	r3, [r2, #0]
 8005c7e:	f7fd f9b3 	bl	8002fe8 <HAL_GetTick>
 8005c82:	6138      	str	r0, [r7, #16]
 8005c84:	e00c      	b.n	8005ca0 <HAL_RCC_OscConfig+0x4c0>
 8005c86:	f7fd f9af 	bl	8002fe8 <HAL_GetTick>
 8005c8a:	4602      	mov	r2, r0
 8005c8c:	693b      	ldr	r3, [r7, #16]
 8005c8e:	1ad3      	subs	r3, r2, r3
 8005c90:	2b02      	cmp	r3, #2
 8005c92:	d905      	bls.n	8005ca0 <HAL_RCC_OscConfig+0x4c0>
 8005c94:	2303      	movs	r3, #3
 8005c96:	e0ab      	b.n	8005df0 <HAL_RCC_OscConfig+0x610>
 8005c98:	40021000 	.word	0x40021000
 8005c9c:	40007000 	.word	0x40007000
 8005ca0:	4b55      	ldr	r3, [pc, #340]	; (8005df8 <HAL_RCC_OscConfig+0x618>)
 8005ca2:	681b      	ldr	r3, [r3, #0]
 8005ca4:	f003 7300 	and.w	r3, r3, #33554432	; 0x2000000
 8005ca8:	2b00      	cmp	r3, #0
 8005caa:	d1ec      	bne.n	8005c86 <HAL_RCC_OscConfig+0x4a6>
 8005cac:	4b52      	ldr	r3, [pc, #328]	; (8005df8 <HAL_RCC_OscConfig+0x618>)
 8005cae:	68da      	ldr	r2, [r3, #12]
 8005cb0:	4b52      	ldr	r3, [pc, #328]	; (8005dfc <HAL_RCC_OscConfig+0x61c>)
 8005cb2:	4013      	ands	r3, r2
 8005cb4:	687a      	ldr	r2, [r7, #4]
 8005cb6:	6a11      	ldr	r1, [r2, #32]
 8005cb8:	687a      	ldr	r2, [r7, #4]
 8005cba:	6a52      	ldr	r2, [r2, #36]	; 0x24
 8005cbc:	3a01      	subs	r2, #1
 8005cbe:	0112      	lsls	r2, r2, #4
 8005cc0:	4311      	orrs	r1, r2
 8005cc2:	687a      	ldr	r2, [r7, #4]
 8005cc4:	6a92      	ldr	r2, [r2, #40]	; 0x28
 8005cc6:	0212      	lsls	r2, r2, #8
 8005cc8:	4311      	orrs	r1, r2
 8005cca:	687a      	ldr	r2, [r7, #4]
 8005ccc:	6b12      	ldr	r2, [r2, #48]	; 0x30
 8005cce:	0852      	lsrs	r2, r2, #1
 8005cd0:	3a01      	subs	r2, #1
 8005cd2:	0552      	lsls	r2, r2, #21
 8005cd4:	4311      	orrs	r1, r2
 8005cd6:	687a      	ldr	r2, [r7, #4]
 8005cd8:	6b52      	ldr	r2, [r2, #52]	; 0x34
 8005cda:	0852      	lsrs	r2, r2, #1
 8005cdc:	3a01      	subs	r2, #1
 8005cde:	0652      	lsls	r2, r2, #25
 8005ce0:	4311      	orrs	r1, r2
 8005ce2:	687a      	ldr	r2, [r7, #4]
 8005ce4:	6ad2      	ldr	r2, [r2, #44]	; 0x2c
 8005ce6:	06d2      	lsls	r2, r2, #27
 8005ce8:	430a      	orrs	r2, r1
 8005cea:	4943      	ldr	r1, [pc, #268]	; (8005df8 <HAL_RCC_OscConfig+0x618>)
 8005cec:	4313      	orrs	r3, r2
 8005cee:	60cb      	str	r3, [r1, #12]
 8005cf0:	4b41      	ldr	r3, [pc, #260]	; (8005df8 <HAL_RCC_OscConfig+0x618>)
 8005cf2:	681b      	ldr	r3, [r3, #0]
 8005cf4:	4a40      	ldr	r2, [pc, #256]	; (8005df8 <HAL_RCC_OscConfig+0x618>)
 8005cf6:	f043 7380 	orr.w	r3, r3, #16777216	; 0x1000000
 8005cfa:	6013      	str	r3, [r2, #0]
 8005cfc:	4b3e      	ldr	r3, [pc, #248]	; (8005df8 <HAL_RCC_OscConfig+0x618>)
 8005cfe:	68db      	ldr	r3, [r3, #12]
 8005d00:	4a3d      	ldr	r2, [pc, #244]	; (8005df8 <HAL_RCC_OscConfig+0x618>)
 8005d02:	f043 7380 	orr.w	r3, r3, #16777216	; 0x1000000
 8005d06:	60d3      	str	r3, [r2, #12]
 8005d08:	f7fd f96e 	bl	8002fe8 <HAL_GetTick>
 8005d0c:	6138      	str	r0, [r7, #16]
 8005d0e:	e008      	b.n	8005d22 <HAL_RCC_OscConfig+0x542>
 8005d10:	f7fd f96a 	bl	8002fe8 <HAL_GetTick>
 8005d14:	4602      	mov	r2, r0
 8005d16:	693b      	ldr	r3, [r7, #16]
 8005d18:	1ad3      	subs	r3, r2, r3
 8005d1a:	2b02      	cmp	r3, #2
 8005d1c:	d901      	bls.n	8005d22 <HAL_RCC_OscConfig+0x542>
 8005d1e:	2303      	movs	r3, #3
 8005d20:	e066      	b.n	8005df0 <HAL_RCC_OscConfig+0x610>
 8005d22:	4b35      	ldr	r3, [pc, #212]	; (8005df8 <HAL_RCC_OscConfig+0x618>)
 8005d24:	681b      	ldr	r3, [r3, #0]
 8005d26:	f003 7300 	and.w	r3, r3, #33554432	; 0x2000000
 8005d2a:	2b00      	cmp	r3, #0
 8005d2c:	d0f0      	beq.n	8005d10 <HAL_RCC_OscConfig+0x530>
 8005d2e:	e05e      	b.n	8005dee <HAL_RCC_OscConfig+0x60e>
 8005d30:	4b31      	ldr	r3, [pc, #196]	; (8005df8 <HAL_RCC_OscConfig+0x618>)
 8005d32:	681b      	ldr	r3, [r3, #0]
 8005d34:	4a30      	ldr	r2, [pc, #192]	; (8005df8 <HAL_RCC_OscConfig+0x618>)
 8005d36:	f023 7380 	bic.w	r3, r3, #16777216	; 0x1000000
 8005d3a:	6013      	str	r3, [r2, #0]
 8005d3c:	f7fd f954 	bl	8002fe8 <HAL_GetTick>
 8005d40:	6138      	str	r0, [r7, #16]
 8005d42:	e008      	b.n	8005d56 <HAL_RCC_OscConfig+0x576>
 8005d44:	f7fd f950 	bl	8002fe8 <HAL_GetTick>
 8005d48:	4602      	mov	r2, r0
 8005d4a:	693b      	ldr	r3, [r7, #16]
 8005d4c:	1ad3      	subs	r3, r2, r3
 8005d4e:	2b02      	cmp	r3, #2
 8005d50:	d901      	bls.n	8005d56 <HAL_RCC_OscConfig+0x576>
 8005d52:	2303      	movs	r3, #3
 8005d54:	e04c      	b.n	8005df0 <HAL_RCC_OscConfig+0x610>
 8005d56:	4b28      	ldr	r3, [pc, #160]	; (8005df8 <HAL_RCC_OscConfig+0x618>)
 8005d58:	681b      	ldr	r3, [r3, #0]
 8005d5a:	f003 7300 	and.w	r3, r3, #33554432	; 0x2000000
 8005d5e:	2b00      	cmp	r3, #0
 8005d60:	d1f0      	bne.n	8005d44 <HAL_RCC_OscConfig+0x564>
 8005d62:	4b25      	ldr	r3, [pc, #148]	; (8005df8 <HAL_RCC_OscConfig+0x618>)
 8005d64:	68da      	ldr	r2, [r3, #12]
 8005d66:	4924      	ldr	r1, [pc, #144]	; (8005df8 <HAL_RCC_OscConfig+0x618>)
 8005d68:	4b25      	ldr	r3, [pc, #148]	; (8005e00 <HAL_RCC_OscConfig+0x620>)
 8005d6a:	4013      	ands	r3, r2
 8005d6c:	60cb      	str	r3, [r1, #12]
 8005d6e:	e03e      	b.n	8005dee <HAL_RCC_OscConfig+0x60e>
 8005d70:	687b      	ldr	r3, [r7, #4]
 8005d72:	69db      	ldr	r3, [r3, #28]
 8005d74:	2b01      	cmp	r3, #1
 8005d76:	d101      	bne.n	8005d7c <HAL_RCC_OscConfig+0x59c>
 8005d78:	2301      	movs	r3, #1
 8005d7a:	e039      	b.n	8005df0 <HAL_RCC_OscConfig+0x610>
 8005d7c:	4b1e      	ldr	r3, [pc, #120]	; (8005df8 <HAL_RCC_OscConfig+0x618>)
 8005d7e:	68db      	ldr	r3, [r3, #12]
 8005d80:	617b      	str	r3, [r7, #20]
 8005d82:	697b      	ldr	r3, [r7, #20]
 8005d84:	f003 0203 	and.w	r2, r3, #3
 8005d88:	687b      	ldr	r3, [r7, #4]
 8005d8a:	6a1b      	ldr	r3, [r3, #32]
 8005d8c:	429a      	cmp	r2, r3
 8005d8e:	d12c      	bne.n	8005dea <HAL_RCC_OscConfig+0x60a>
 8005d90:	697b      	ldr	r3, [r7, #20]
 8005d92:	f003 02f0 	and.w	r2, r3, #240	; 0xf0
 8005d96:	687b      	ldr	r3, [r7, #4]
 8005d98:	6a5b      	ldr	r3, [r3, #36]	; 0x24
 8005d9a:	3b01      	subs	r3, #1
 8005d9c:	011b      	lsls	r3, r3, #4
 8005d9e:	429a      	cmp	r2, r3
 8005da0:	d123      	bne.n	8005dea <HAL_RCC_OscConfig+0x60a>
 8005da2:	697b      	ldr	r3, [r7, #20]
 8005da4:	f403 42fe 	and.w	r2, r3, #32512	; 0x7f00
 8005da8:	687b      	ldr	r3, [r7, #4]
 8005daa:	6a9b      	ldr	r3, [r3, #40]	; 0x28
 8005dac:	021b      	lsls	r3, r3, #8
 8005dae:	429a      	cmp	r2, r3
 8005db0:	d11b      	bne.n	8005dea <HAL_RCC_OscConfig+0x60a>
 8005db2:	697b      	ldr	r3, [r7, #20]
 8005db4:	f003 4278 	and.w	r2, r3, #4160749568	; 0xf8000000
 8005db8:	687b      	ldr	r3, [r7, #4]
 8005dba:	6adb      	ldr	r3, [r3, #44]	; 0x2c
 8005dbc:	06db      	lsls	r3, r3, #27
 8005dbe:	429a      	cmp	r2, r3
 8005dc0:	d113      	bne.n	8005dea <HAL_RCC_OscConfig+0x60a>
 8005dc2:	697b      	ldr	r3, [r7, #20]
 8005dc4:	f403 02c0 	and.w	r2, r3, #6291456	; 0x600000
 8005dc8:	687b      	ldr	r3, [r7, #4]
 8005dca:	6b1b      	ldr	r3, [r3, #48]	; 0x30
 8005dcc:	085b      	lsrs	r3, r3, #1
 8005dce:	3b01      	subs	r3, #1
 8005dd0:	055b      	lsls	r3, r3, #21
 8005dd2:	429a      	cmp	r2, r3
 8005dd4:	d109      	bne.n	8005dea <HAL_RCC_OscConfig+0x60a>
 8005dd6:	697b      	ldr	r3, [r7, #20]
 8005dd8:	f003 62c0 	and.w	r2, r3, #100663296	; 0x6000000
 8005ddc:	687b      	ldr	r3, [r7, #4]
 8005dde:	6b5b      	ldr	r3, [r3, #52]	; 0x34
 8005de0:	085b      	lsrs	r3, r3, #1
 8005de2:	3b01      	subs	r3, #1
 8005de4:	065b      	lsls	r3, r3, #25
 8005de6:	429a      	cmp	r2, r3
 8005de8:	d001      	beq.n	8005dee <HAL_RCC_OscConfig+0x60e>
 8005dea:	2301      	movs	r3, #1
 8005dec:	e000      	b.n	8005df0 <HAL_RCC_OscConfig+0x610>
 8005dee:	2300      	movs	r3, #0
 8005df0:	4618      	mov	r0, r3
 8005df2:	3720      	adds	r7, #32
 8005df4:	46bd      	mov	sp, r7
 8005df6:	bd80      	pop	{r7, pc}
 8005df8:	40021000 	.word	0x40021000
 8005dfc:	019f800c 	.word	0x019f800c
 8005e00:	feeefffc 	.word	0xfeeefffc

08005e04 <HAL_RCC_ClockConfig>:
 8005e04:	b580      	push	{r7, lr}
 8005e06:	b086      	sub	sp, #24
 8005e08:	af00      	add	r7, sp, #0
 8005e0a:	6078      	str	r0, [r7, #4]
 8005e0c:	6039      	str	r1, [r7, #0]
 8005e0e:	2300      	movs	r3, #0
 8005e10:	617b      	str	r3, [r7, #20]
 8005e12:	687b      	ldr	r3, [r7, #4]
 8005e14:	2b00      	cmp	r3, #0
 8005e16:	d101      	bne.n	8005e1c <HAL_RCC_ClockConfig+0x18>
 8005e18:	2301      	movs	r3, #1
 8005e1a:	e11e      	b.n	800605a <HAL_RCC_ClockConfig+0x256>
 8005e1c:	4b91      	ldr	r3, [pc, #580]	; (8006064 <HAL_RCC_ClockConfig+0x260>)
 8005e1e:	681b      	ldr	r3, [r3, #0]
 8005e20:	f003 030f 	and.w	r3, r3, #15
 8005e24:	683a      	ldr	r2, [r7, #0]
 8005e26:	429a      	cmp	r2, r3
 8005e28:	d910      	bls.n	8005e4c <HAL_RCC_ClockConfig+0x48>
 8005e2a:	4b8e      	ldr	r3, [pc, #568]	; (8006064 <HAL_RCC_ClockConfig+0x260>)
 8005e2c:	681b      	ldr	r3, [r3, #0]
 8005e2e:	f023 020f 	bic.w	r2, r3, #15
 8005e32:	498c      	ldr	r1, [pc, #560]	; (8006064 <HAL_RCC_ClockConfig+0x260>)
 8005e34:	683b      	ldr	r3, [r7, #0]
 8005e36:	4313      	orrs	r3, r2
 8005e38:	600b      	str	r3, [r1, #0]
 8005e3a:	4b8a      	ldr	r3, [pc, #552]	; (8006064 <HAL_RCC_ClockConfig+0x260>)
 8005e3c:	681b      	ldr	r3, [r3, #0]
 8005e3e:	f003 030f 	and.w	r3, r3, #15
 8005e42:	683a      	ldr	r2, [r7, #0]
 8005e44:	429a      	cmp	r2, r3
 8005e46:	d001      	beq.n	8005e4c <HAL_RCC_ClockConfig+0x48>
 8005e48:	2301      	movs	r3, #1
 8005e4a:	e106      	b.n	800605a <HAL_RCC_ClockConfig+0x256>
 8005e4c:	687b      	ldr	r3, [r7, #4]
 8005e4e:	681b      	ldr	r3, [r3, #0]
 8005e50:	f003 0301 	and.w	r3, r3, #1
 8005e54:	2b00      	cmp	r3, #0
 8005e56:	d073      	beq.n	8005f40 <HAL_RCC_ClockConfig+0x13c>
 8005e58:	687b      	ldr	r3, [r7, #4]
 8005e5a:	685b      	ldr	r3, [r3, #4]
 8005e5c:	2b03      	cmp	r3, #3
 8005e5e:	d129      	bne.n	8005eb4 <HAL_RCC_ClockConfig+0xb0>
 8005e60:	4b81      	ldr	r3, [pc, #516]	; (8006068 <HAL_RCC_ClockConfig+0x264>)
 8005e62:	681b      	ldr	r3, [r3, #0]
 8005e64:	f003 7300 	and.w	r3, r3, #33554432	; 0x2000000
 8005e68:	2b00      	cmp	r3, #0
 8005e6a:	d101      	bne.n	8005e70 <HAL_RCC_ClockConfig+0x6c>
 8005e6c:	2301      	movs	r3, #1
 8005e6e:	e0f4      	b.n	800605a <HAL_RCC_ClockConfig+0x256>
 8005e70:	f000 f99e 	bl	80061b0 <RCC_GetSysClockFreqFromPLLSource>
 8005e74:	6138      	str	r0, [r7, #16]
 8005e76:	693b      	ldr	r3, [r7, #16]
 8005e78:	4a7c      	ldr	r2, [pc, #496]	; (800606c <HAL_RCC_ClockConfig+0x268>)
 8005e7a:	4293      	cmp	r3, r2
 8005e7c:	d93f      	bls.n	8005efe <HAL_RCC_ClockConfig+0xfa>
 8005e7e:	4b7a      	ldr	r3, [pc, #488]	; (8006068 <HAL_RCC_ClockConfig+0x264>)
 8005e80:	689b      	ldr	r3, [r3, #8]
 8005e82:	f003 03f0 	and.w	r3, r3, #240	; 0xf0
 8005e86:	2b00      	cmp	r3, #0
 8005e88:	d009      	beq.n	8005e9e <HAL_RCC_ClockConfig+0x9a>
 8005e8a:	687b      	ldr	r3, [r7, #4]
 8005e8c:	681b      	ldr	r3, [r3, #0]
 8005e8e:	f003 0302 	and.w	r3, r3, #2
 8005e92:	2b00      	cmp	r3, #0
 8005e94:	d033      	beq.n	8005efe <HAL_RCC_ClockConfig+0xfa>
 8005e96:	687b      	ldr	r3, [r7, #4]
 8005e98:	689b      	ldr	r3, [r3, #8]
 8005e9a:	2b00      	cmp	r3, #0
 8005e9c:	d12f      	bne.n	8005efe <HAL_RCC_ClockConfig+0xfa>
 8005e9e:	4b72      	ldr	r3, [pc, #456]	; (8006068 <HAL_RCC_ClockConfig+0x264>)
 8005ea0:	689b      	ldr	r3, [r3, #8]
 8005ea2:	f023 03f0 	bic.w	r3, r3, #240	; 0xf0
 8005ea6:	4a70      	ldr	r2, [pc, #448]	; (8006068 <HAL_RCC_ClockConfig+0x264>)
 8005ea8:	f043 0380 	orr.w	r3, r3, #128	; 0x80
 8005eac:	6093      	str	r3, [r2, #8]
 8005eae:	2380      	movs	r3, #128	; 0x80
 8005eb0:	617b      	str	r3, [r7, #20]
 8005eb2:	e024      	b.n	8005efe <HAL_RCC_ClockConfig+0xfa>
 8005eb4:	687b      	ldr	r3, [r7, #4]
 8005eb6:	685b      	ldr	r3, [r3, #4]
 8005eb8:	2b02      	cmp	r3, #2
 8005eba:	d107      	bne.n	8005ecc <HAL_RCC_ClockConfig+0xc8>
 8005ebc:	4b6a      	ldr	r3, [pc, #424]	; (8006068 <HAL_RCC_ClockConfig+0x264>)
 8005ebe:	681b      	ldr	r3, [r3, #0]
 8005ec0:	f403 3300 	and.w	r3, r3, #131072	; 0x20000
 8005ec4:	2b00      	cmp	r3, #0
 8005ec6:	d109      	bne.n	8005edc <HAL_RCC_ClockConfig+0xd8>
 8005ec8:	2301      	movs	r3, #1
 8005eca:	e0c6      	b.n	800605a <HAL_RCC_ClockConfig+0x256>
 8005ecc:	4b66      	ldr	r3, [pc, #408]	; (8006068 <HAL_RCC_ClockConfig+0x264>)
 8005ece:	681b      	ldr	r3, [r3, #0]
 8005ed0:	f403 6380 	and.w	r3, r3, #1024	; 0x400
 8005ed4:	2b00      	cmp	r3, #0
 8005ed6:	d101      	bne.n	8005edc <HAL_RCC_ClockConfig+0xd8>
 8005ed8:	2301      	movs	r3, #1
 8005eda:	e0be      	b.n	800605a <HAL_RCC_ClockConfig+0x256>
 8005edc:	f000 f8ce 	bl	800607c <HAL_RCC_GetSysClockFreq>
 8005ee0:	6138      	str	r0, [r7, #16]
 8005ee2:	693b      	ldr	r3, [r7, #16]
 8005ee4:	4a61      	ldr	r2, [pc, #388]	; (800606c <HAL_RCC_ClockConfig+0x268>)
 8005ee6:	4293      	cmp	r3, r2
 8005ee8:	d909      	bls.n	8005efe <HAL_RCC_ClockConfig+0xfa>
 8005eea:	4b5f      	ldr	r3, [pc, #380]	; (8006068 <HAL_RCC_ClockConfig+0x264>)
 8005eec:	689b      	ldr	r3, [r3, #8]
 8005eee:	f023 03f0 	bic.w	r3, r3, #240	; 0xf0
 8005ef2:	4a5d      	ldr	r2, [pc, #372]	; (8006068 <HAL_RCC_ClockConfig+0x264>)
 8005ef4:	f043 0380 	orr.w	r3, r3, #128	; 0x80
 8005ef8:	6093      	str	r3, [r2, #8]
 8005efa:	2380      	movs	r3, #128	; 0x80
 8005efc:	617b      	str	r3, [r7, #20]
 8005efe:	4b5a      	ldr	r3, [pc, #360]	; (8006068 <HAL_RCC_ClockConfig+0x264>)
 8005f00:	689b      	ldr	r3, [r3, #8]
 8005f02:	f023 0203 	bic.w	r2, r3, #3
 8005f06:	687b      	ldr	r3, [r7, #4]
 8005f08:	685b      	ldr	r3, [r3, #4]
 8005f0a:	4957      	ldr	r1, [pc, #348]	; (8006068 <HAL_RCC_ClockConfig+0x264>)
 8005f0c:	4313      	orrs	r3, r2
 8005f0e:	608b      	str	r3, [r1, #8]
 8005f10:	f7fd f86a 	bl	8002fe8 <HAL_GetTick>
 8005f14:	60f8      	str	r0, [r7, #12]
 8005f16:	e00a      	b.n	8005f2e <HAL_RCC_ClockConfig+0x12a>
 8005f18:	f7fd f866 	bl	8002fe8 <HAL_GetTick>
 8005f1c:	4602      	mov	r2, r0
 8005f1e:	68fb      	ldr	r3, [r7, #12]
 8005f20:	1ad3      	subs	r3, r2, r3
 8005f22:	f241 3288 	movw	r2, #5000	; 0x1388
 8005f26:	4293      	cmp	r3, r2
 8005f28:	d901      	bls.n	8005f2e <HAL_RCC_ClockConfig+0x12a>
 8005f2a:	2303      	movs	r3, #3
 8005f2c:	e095      	b.n	800605a <HAL_RCC_ClockConfig+0x256>
 8005f2e:	4b4e      	ldr	r3, [pc, #312]	; (8006068 <HAL_RCC_ClockConfig+0x264>)
 8005f30:	689b      	ldr	r3, [r3, #8]
 8005f32:	f003 020c 	and.w	r2, r3, #12
 8005f36:	687b      	ldr	r3, [r7, #4]
 8005f38:	685b      	ldr	r3, [r3, #4]
 8005f3a:	009b      	lsls	r3, r3, #2
 8005f3c:	429a      	cmp	r2, r3
 8005f3e:	d1eb      	bne.n	8005f18 <HAL_RCC_ClockConfig+0x114>
 8005f40:	687b      	ldr	r3, [r7, #4]
 8005f42:	681b      	ldr	r3, [r3, #0]
 8005f44:	f003 0302 	and.w	r3, r3, #2
 8005f48:	2b00      	cmp	r3, #0
 8005f4a:	d023      	beq.n	8005f94 <HAL_RCC_ClockConfig+0x190>
 8005f4c:	687b      	ldr	r3, [r7, #4]
 8005f4e:	681b      	ldr	r3, [r3, #0]
 8005f50:	f003 0304 	and.w	r3, r3, #4
 8005f54:	2b00      	cmp	r3, #0
 8005f56:	d005      	beq.n	8005f64 <HAL_RCC_ClockConfig+0x160>
 8005f58:	4b43      	ldr	r3, [pc, #268]	; (8006068 <HAL_RCC_ClockConfig+0x264>)
 8005f5a:	689b      	ldr	r3, [r3, #8]
 8005f5c:	4a42      	ldr	r2, [pc, #264]	; (8006068 <HAL_RCC_ClockConfig+0x264>)
 8005f5e:	f443 63e0 	orr.w	r3, r3, #1792	; 0x700
 8005f62:	6093      	str	r3, [r2, #8]
 8005f64:	687b      	ldr	r3, [r7, #4]
 8005f66:	681b      	ldr	r3, [r3, #0]
 8005f68:	f003 0308 	and.w	r3, r3, #8
 8005f6c:	2b00      	cmp	r3, #0
 8005f6e:	d007      	beq.n	8005f80 <HAL_RCC_ClockConfig+0x17c>
 8005f70:	4b3d      	ldr	r3, [pc, #244]	; (8006068 <HAL_RCC_ClockConfig+0x264>)
 8005f72:	689b      	ldr	r3, [r3, #8]
 8005f74:	f423 537c 	bic.w	r3, r3, #16128	; 0x3f00
 8005f78:	4a3b      	ldr	r2, [pc, #236]	; (8006068 <HAL_RCC_ClockConfig+0x264>)
 8005f7a:	f443 63e0 	orr.w	r3, r3, #1792	; 0x700
 8005f7e:	6093      	str	r3, [r2, #8]
 8005f80:	4b39      	ldr	r3, [pc, #228]	; (8006068 <HAL_RCC_ClockConfig+0x264>)
 8005f82:	689b      	ldr	r3, [r3, #8]
 8005f84:	f023 02f0 	bic.w	r2, r3, #240	; 0xf0
 8005f88:	687b      	ldr	r3, [r7, #4]
 8005f8a:	689b      	ldr	r3, [r3, #8]
 8005f8c:	4936      	ldr	r1, [pc, #216]	; (8006068 <HAL_RCC_ClockConfig+0x264>)
 8005f8e:	4313      	orrs	r3, r2
 8005f90:	608b      	str	r3, [r1, #8]
 8005f92:	e008      	b.n	8005fa6 <HAL_RCC_ClockConfig+0x1a2>
 8005f94:	697b      	ldr	r3, [r7, #20]
 8005f96:	2b80      	cmp	r3, #128	; 0x80
 8005f98:	d105      	bne.n	8005fa6 <HAL_RCC_ClockConfig+0x1a2>
 8005f9a:	4b33      	ldr	r3, [pc, #204]	; (8006068 <HAL_RCC_ClockConfig+0x264>)
 8005f9c:	689b      	ldr	r3, [r3, #8]
 8005f9e:	4a32      	ldr	r2, [pc, #200]	; (8006068 <HAL_RCC_ClockConfig+0x264>)
 8005fa0:	f023 03f0 	bic.w	r3, r3, #240	; 0xf0
 8005fa4:	6093      	str	r3, [r2, #8]
 8005fa6:	4b2f      	ldr	r3, [pc, #188]	; (8006064 <HAL_RCC_ClockConfig+0x260>)
 8005fa8:	681b      	ldr	r3, [r3, #0]
 8005faa:	f003 030f 	and.w	r3, r3, #15
 8005fae:	683a      	ldr	r2, [r7, #0]
 8005fb0:	429a      	cmp	r2, r3
 8005fb2:	d21d      	bcs.n	8005ff0 <HAL_RCC_ClockConfig+0x1ec>
 8005fb4:	4b2b      	ldr	r3, [pc, #172]	; (8006064 <HAL_RCC_ClockConfig+0x260>)
 8005fb6:	681b      	ldr	r3, [r3, #0]
 8005fb8:	f023 020f 	bic.w	r2, r3, #15
 8005fbc:	4929      	ldr	r1, [pc, #164]	; (8006064 <HAL_RCC_ClockConfig+0x260>)
 8005fbe:	683b      	ldr	r3, [r7, #0]
 8005fc0:	4313      	orrs	r3, r2
 8005fc2:	600b      	str	r3, [r1, #0]
 8005fc4:	f7fd f810 	bl	8002fe8 <HAL_GetTick>
 8005fc8:	60f8      	str	r0, [r7, #12]
 8005fca:	e00a      	b.n	8005fe2 <HAL_RCC_ClockConfig+0x1de>
 8005fcc:	f7fd f80c 	bl	8002fe8 <HAL_GetTick>
 8005fd0:	4602      	mov	r2, r0
 8005fd2:	68fb      	ldr	r3, [r7, #12]
 8005fd4:	1ad3      	subs	r3, r2, r3
 8005fd6:	f241 3288 	movw	r2, #5000	; 0x1388
 8005fda:	4293      	cmp	r3, r2
 8005fdc:	d901      	bls.n	8005fe2 <HAL_RCC_ClockConfig+0x1de>
 8005fde:	2303      	movs	r3, #3
 8005fe0:	e03b      	b.n	800605a <HAL_RCC_ClockConfig+0x256>
 8005fe2:	4b20      	ldr	r3, [pc, #128]	; (8006064 <HAL_RCC_ClockConfig+0x260>)
 8005fe4:	681b      	ldr	r3, [r3, #0]
 8005fe6:	f003 030f 	and.w	r3, r3, #15
 8005fea:	683a      	ldr	r2, [r7, #0]
 8005fec:	429a      	cmp	r2, r3
 8005fee:	d1ed      	bne.n	8005fcc <HAL_RCC_ClockConfig+0x1c8>
 8005ff0:	687b      	ldr	r3, [r7, #4]
 8005ff2:	681b      	ldr	r3, [r3, #0]
 8005ff4:	f003 0304 	and.w	r3, r3, #4
 8005ff8:	2b00      	cmp	r3, #0
 8005ffa:	d008      	beq.n	800600e <HAL_RCC_ClockConfig+0x20a>
 8005ffc:	4b1a      	ldr	r3, [pc, #104]	; (8006068 <HAL_RCC_ClockConfig+0x264>)
 8005ffe:	689b      	ldr	r3, [r3, #8]
 8006000:	f423 62e0 	bic.w	r2, r3, #1792	; 0x700
 8006004:	687b      	ldr	r3, [r7, #4]
 8006006:	68db      	ldr	r3, [r3, #12]
 8006008:	4917      	ldr	r1, [pc, #92]	; (8006068 <HAL_RCC_ClockConfig+0x264>)
 800600a:	4313      	orrs	r3, r2
 800600c:	608b      	str	r3, [r1, #8]
 800600e:	687b      	ldr	r3, [r7, #4]
 8006010:	681b      	ldr	r3, [r3, #0]
 8006012:	f003 0308 	and.w	r3, r3, #8
 8006016:	2b00      	cmp	r3, #0
 8006018:	d009      	beq.n	800602e <HAL_RCC_ClockConfig+0x22a>
 800601a:	4b13      	ldr	r3, [pc, #76]	; (8006068 <HAL_RCC_ClockConfig+0x264>)
 800601c:	689b      	ldr	r3, [r3, #8]
 800601e:	f423 5260 	bic.w	r2, r3, #14336	; 0x3800
 8006022:	687b      	ldr	r3, [r7, #4]
 8006024:	691b      	ldr	r3, [r3, #16]
 8006026:	00db      	lsls	r3, r3, #3
 8006028:	490f      	ldr	r1, [pc, #60]	; (8006068 <HAL_RCC_ClockConfig+0x264>)
 800602a:	4313      	orrs	r3, r2
 800602c:	608b      	str	r3, [r1, #8]
 800602e:	f000 f825 	bl	800607c <HAL_RCC_GetSysClockFreq>
 8006032:	4602      	mov	r2, r0
 8006034:	4b0c      	ldr	r3, [pc, #48]	; (8006068 <HAL_RCC_ClockConfig+0x264>)
 8006036:	689b      	ldr	r3, [r3, #8]
 8006038:	091b      	lsrs	r3, r3, #4
 800603a:	f003 030f 	and.w	r3, r3, #15
 800603e:	490c      	ldr	r1, [pc, #48]	; (8006070 <HAL_RCC_ClockConfig+0x26c>)
 8006040:	5ccb      	ldrb	r3, [r1, r3]
 8006042:	f003 031f 	and.w	r3, r3, #31
 8006046:	fa22 f303 	lsr.w	r3, r2, r3
 800604a:	4a0a      	ldr	r2, [pc, #40]	; (8006074 <HAL_RCC_ClockConfig+0x270>)
 800604c:	6013      	str	r3, [r2, #0]
 800604e:	4b0a      	ldr	r3, [pc, #40]	; (8006078 <HAL_RCC_ClockConfig+0x274>)
 8006050:	681b      	ldr	r3, [r3, #0]
 8006052:	4618      	mov	r0, r3
 8006054:	f7fc ff7c 	bl	8002f50 <HAL_InitTick>
 8006058:	4603      	mov	r3, r0
 800605a:	4618      	mov	r0, r3
 800605c:	3718      	adds	r7, #24
 800605e:	46bd      	mov	sp, r7
 8006060:	bd80      	pop	{r7, pc}
 8006062:	bf00      	nop
 8006064:	40022000 	.word	0x40022000
 8006068:	40021000 	.word	0x40021000
 800606c:	04c4b400 	.word	0x04c4b400
 8006070:	0800d208 	.word	0x0800d208
 8006074:	20000008 	.word	0x20000008
 8006078:	2000000c 	.word	0x2000000c

0800607c <HAL_RCC_GetSysClockFreq>:
 800607c:	b480      	push	{r7}
 800607e:	b087      	sub	sp, #28
 8006080:	af00      	add	r7, sp, #0
 8006082:	4b2c      	ldr	r3, [pc, #176]	; (8006134 <HAL_RCC_GetSysClockFreq+0xb8>)
 8006084:	689b      	ldr	r3, [r3, #8]
 8006086:	f003 030c 	and.w	r3, r3, #12
 800608a:	2b04      	cmp	r3, #4
 800608c:	d102      	bne.n	8006094 <HAL_RCC_GetSysClockFreq+0x18>
 800608e:	4b2a      	ldr	r3, [pc, #168]	; (8006138 <HAL_RCC_GetSysClockFreq+0xbc>)
 8006090:	613b      	str	r3, [r7, #16]
 8006092:	e047      	b.n	8006124 <HAL_RCC_GetSysClockFreq+0xa8>
 8006094:	4b27      	ldr	r3, [pc, #156]	; (8006134 <HAL_RCC_GetSysClockFreq+0xb8>)
 8006096:	689b      	ldr	r3, [r3, #8]
 8006098:	f003 030c 	and.w	r3, r3, #12
 800609c:	2b08      	cmp	r3, #8
 800609e:	d102      	bne.n	80060a6 <HAL_RCC_GetSysClockFreq+0x2a>
 80060a0:	4b26      	ldr	r3, [pc, #152]	; (800613c <HAL_RCC_GetSysClockFreq+0xc0>)
 80060a2:	613b      	str	r3, [r7, #16]
 80060a4:	e03e      	b.n	8006124 <HAL_RCC_GetSysClockFreq+0xa8>
 80060a6:	4b23      	ldr	r3, [pc, #140]	; (8006134 <HAL_RCC_GetSysClockFreq+0xb8>)
 80060a8:	689b      	ldr	r3, [r3, #8]
 80060aa:	f003 030c 	and.w	r3, r3, #12
 80060ae:	2b0c      	cmp	r3, #12
 80060b0:	d136      	bne.n	8006120 <HAL_RCC_GetSysClockFreq+0xa4>
 80060b2:	4b20      	ldr	r3, [pc, #128]	; (8006134 <HAL_RCC_GetSysClockFreq+0xb8>)
 80060b4:	68db      	ldr	r3, [r3, #12]
 80060b6:	f003 0303 	and.w	r3, r3, #3
 80060ba:	60fb      	str	r3, [r7, #12]
 80060bc:	4b1d      	ldr	r3, [pc, #116]	; (8006134 <HAL_RCC_GetSysClockFreq+0xb8>)
 80060be:	68db      	ldr	r3, [r3, #12]
 80060c0:	091b      	lsrs	r3, r3, #4
 80060c2:	f003 030f 	and.w	r3, r3, #15
 80060c6:	3301      	adds	r3, #1
 80060c8:	60bb      	str	r3, [r7, #8]
 80060ca:	68fb      	ldr	r3, [r7, #12]
 80060cc:	2b03      	cmp	r3, #3
 80060ce:	d10c      	bne.n	80060ea <HAL_RCC_GetSysClockFreq+0x6e>
 80060d0:	4a1a      	ldr	r2, [pc, #104]	; (800613c <HAL_RCC_GetSysClockFreq+0xc0>)
 80060d2:	68bb      	ldr	r3, [r7, #8]
 80060d4:	fbb2 f3f3 	udiv	r3, r2, r3
 80060d8:	4a16      	ldr	r2, [pc, #88]	; (8006134 <HAL_RCC_GetSysClockFreq+0xb8>)
 80060da:	68d2      	ldr	r2, [r2, #12]
 80060dc:	0a12      	lsrs	r2, r2, #8
 80060de:	f002 027f 	and.w	r2, r2, #127	; 0x7f
 80060e2:	fb02 f303 	mul.w	r3, r2, r3
 80060e6:	617b      	str	r3, [r7, #20]
 80060e8:	e00c      	b.n	8006104 <HAL_RCC_GetSysClockFreq+0x88>
 80060ea:	4a13      	ldr	r2, [pc, #76]	; (8006138 <HAL_RCC_GetSysClockFreq+0xbc>)
 80060ec:	68bb      	ldr	r3, [r7, #8]
 80060ee:	fbb2 f3f3 	udiv	r3, r2, r3
 80060f2:	4a10      	ldr	r2, [pc, #64]	; (8006134 <HAL_RCC_GetSysClockFreq+0xb8>)
 80060f4:	68d2      	ldr	r2, [r2, #12]
 80060f6:	0a12      	lsrs	r2, r2, #8
 80060f8:	f002 027f 	and.w	r2, r2, #127	; 0x7f
 80060fc:	fb02 f303 	mul.w	r3, r2, r3
 8006100:	617b      	str	r3, [r7, #20]
 8006102:	bf00      	nop
 8006104:	4b0b      	ldr	r3, [pc, #44]	; (8006134 <HAL_RCC_GetSysClockFreq+0xb8>)
 8006106:	68db      	ldr	r3, [r3, #12]
 8006108:	0e5b      	lsrs	r3, r3, #25
 800610a:	f003 0303 	and.w	r3, r3, #3
 800610e:	3301      	adds	r3, #1
 8006110:	005b      	lsls	r3, r3, #1
 8006112:	607b      	str	r3, [r7, #4]
 8006114:	697a      	ldr	r2, [r7, #20]
 8006116:	687b      	ldr	r3, [r7, #4]
 8006118:	fbb2 f3f3 	udiv	r3, r2, r3
 800611c:	613b      	str	r3, [r7, #16]
 800611e:	e001      	b.n	8006124 <HAL_RCC_GetSysClockFreq+0xa8>
 8006120:	2300      	movs	r3, #0
 8006122:	613b      	str	r3, [r7, #16]
 8006124:	693b      	ldr	r3, [r7, #16]
 8006126:	4618      	mov	r0, r3
 8006128:	371c      	adds	r7, #28
 800612a:	46bd      	mov	sp, r7
 800612c:	f85d 7b04 	ldr.w	r7, [sp], #4
 8006130:	4770      	bx	lr
 8006132:	bf00      	nop
 8006134:	40021000 	.word	0x40021000
 8006138:	00f42400 	.word	0x00f42400
 800613c:	007a1200 	.word	0x007a1200

08006140 <HAL_RCC_GetHCLKFreq>:
 8006140:	b480      	push	{r7}
 8006142:	af00      	add	r7, sp, #0
 8006144:	4b03      	ldr	r3, [pc, #12]	; (8006154 <HAL_RCC_GetHCLKFreq+0x14>)
 8006146:	681b      	ldr	r3, [r3, #0]
 8006148:	4618      	mov	r0, r3
 800614a:	46bd      	mov	sp, r7
 800614c:	f85d 7b04 	ldr.w	r7, [sp], #4
 8006150:	4770      	bx	lr
 8006152:	bf00      	nop
 8006154:	20000008 	.word	0x20000008

08006158 <HAL_RCC_GetPCLK1Freq>:
 8006158:	b580      	push	{r7, lr}
 800615a:	af00      	add	r7, sp, #0
 800615c:	f7ff fff0 	bl	8006140 <HAL_RCC_GetHCLKFreq>
 8006160:	4602      	mov	r2, r0
 8006162:	4b06      	ldr	r3, [pc, #24]	; (800617c <HAL_RCC_GetPCLK1Freq+0x24>)
 8006164:	689b      	ldr	r3, [r3, #8]
 8006166:	0a1b      	lsrs	r3, r3, #8
 8006168:	f003 0307 	and.w	r3, r3, #7
 800616c:	4904      	ldr	r1, [pc, #16]	; (8006180 <HAL_RCC_GetPCLK1Freq+0x28>)
 800616e:	5ccb      	ldrb	r3, [r1, r3]
 8006170:	f003 031f 	and.w	r3, r3, #31
 8006174:	fa22 f303 	lsr.w	r3, r2, r3
 8006178:	4618      	mov	r0, r3
 800617a:	bd80      	pop	{r7, pc}
 800617c:	40021000 	.word	0x40021000
 8006180:	0800d218 	.word	0x0800d218

08006184 <HAL_RCC_GetPCLK2Freq>:
 8006184:	b580      	push	{r7, lr}
 8006186:	af00      	add	r7, sp, #0
 8006188:	f7ff ffda 	bl	8006140 <HAL_RCC_GetHCLKFreq>
 800618c:	4602      	mov	r2, r0
 800618e:	4b06      	ldr	r3, [pc, #24]	; (80061a8 <HAL_RCC_GetPCLK2Freq+0x24>)
 8006190:	689b      	ldr	r3, [r3, #8]
 8006192:	0adb      	lsrs	r3, r3, #11
 8006194:	f003 0307 	and.w	r3, r3, #7
 8006198:	4904      	ldr	r1, [pc, #16]	; (80061ac <HAL_RCC_GetPCLK2Freq+0x28>)
 800619a:	5ccb      	ldrb	r3, [r1, r3]
 800619c:	f003 031f 	and.w	r3, r3, #31
 80061a0:	fa22 f303 	lsr.w	r3, r2, r3
 80061a4:	4618      	mov	r0, r3
 80061a6:	bd80      	pop	{r7, pc}
 80061a8:	40021000 	.word	0x40021000
 80061ac:	0800d218 	.word	0x0800d218

080061b0 <RCC_GetSysClockFreqFromPLLSource>:
 80061b0:	b480      	push	{r7}
 80061b2:	b087      	sub	sp, #28
 80061b4:	af00      	add	r7, sp, #0
 80061b6:	4b1e      	ldr	r3, [pc, #120]	; (8006230 <RCC_GetSysClockFreqFromPLLSource+0x80>)
 80061b8:	68db      	ldr	r3, [r3, #12]
 80061ba:	f003 0303 	and.w	r3, r3, #3
 80061be:	613b      	str	r3, [r7, #16]
 80061c0:	4b1b      	ldr	r3, [pc, #108]	; (8006230 <RCC_GetSysClockFreqFromPLLSource+0x80>)
 80061c2:	68db      	ldr	r3, [r3, #12]
 80061c4:	091b      	lsrs	r3, r3, #4
 80061c6:	f003 030f 	and.w	r3, r3, #15
 80061ca:	3301      	adds	r3, #1
 80061cc:	60fb      	str	r3, [r7, #12]
 80061ce:	693b      	ldr	r3, [r7, #16]
 80061d0:	2b03      	cmp	r3, #3
 80061d2:	d10c      	bne.n	80061ee <RCC_GetSysClockFreqFromPLLSource+0x3e>
 80061d4:	4a17      	ldr	r2, [pc, #92]	; (8006234 <RCC_GetSysClockFreqFromPLLSource+0x84>)
 80061d6:	68fb      	ldr	r3, [r7, #12]
 80061d8:	fbb2 f3f3 	udiv	r3, r2, r3
 80061dc:	4a14      	ldr	r2, [pc, #80]	; (8006230 <RCC_GetSysClockFreqFromPLLSource+0x80>)
 80061de:	68d2      	ldr	r2, [r2, #12]
 80061e0:	0a12      	lsrs	r2, r2, #8
 80061e2:	f002 027f 	and.w	r2, r2, #127	; 0x7f
 80061e6:	fb02 f303 	mul.w	r3, r2, r3
 80061ea:	617b      	str	r3, [r7, #20]
 80061ec:	e00c      	b.n	8006208 <RCC_GetSysClockFreqFromPLLSource+0x58>
 80061ee:	4a12      	ldr	r2, [pc, #72]	; (8006238 <RCC_GetSysClockFreqFromPLLSource+0x88>)
 80061f0:	68fb      	ldr	r3, [r7, #12]
 80061f2:	fbb2 f3f3 	udiv	r3, r2, r3
 80061f6:	4a0e      	ldr	r2, [pc, #56]	; (8006230 <RCC_GetSysClockFreqFromPLLSource+0x80>)
 80061f8:	68d2      	ldr	r2, [r2, #12]
 80061fa:	0a12      	lsrs	r2, r2, #8
 80061fc:	f002 027f 	and.w	r2, r2, #127	; 0x7f
 8006200:	fb02 f303 	mul.w	r3, r2, r3
 8006204:	617b      	str	r3, [r7, #20]
 8006206:	bf00      	nop
 8006208:	4b09      	ldr	r3, [pc, #36]	; (8006230 <RCC_GetSysClockFreqFromPLLSource+0x80>)
 800620a:	68db      	ldr	r3, [r3, #12]
 800620c:	0e5b      	lsrs	r3, r3, #25
 800620e:	f003 0303 	and.w	r3, r3, #3
 8006212:	3301      	adds	r3, #1
 8006214:	005b      	lsls	r3, r3, #1
 8006216:	60bb      	str	r3, [r7, #8]
 8006218:	697a      	ldr	r2, [r7, #20]
 800621a:	68bb      	ldr	r3, [r7, #8]
 800621c:	fbb2 f3f3 	udiv	r3, r2, r3
 8006220:	607b      	str	r3, [r7, #4]
 8006222:	687b      	ldr	r3, [r7, #4]
 8006224:	4618      	mov	r0, r3
 8006226:	371c      	adds	r7, #28
 8006228:	46bd      	mov	sp, r7
 800622a:	f85d 7b04 	ldr.w	r7, [sp], #4
 800622e:	4770      	bx	lr
 8006230:	40021000 	.word	0x40021000
 8006234:	007a1200 	.word	0x007a1200
 8006238:	00f42400 	.word	0x00f42400

0800623c <HAL_RCCEx_PeriphCLKConfig>:
 800623c:	b580      	push	{r7, lr}
 800623e:	b086      	sub	sp, #24
 8006240:	af00      	add	r7, sp, #0
 8006242:	6078      	str	r0, [r7, #4]
 8006244:	2300      	movs	r3, #0
 8006246:	74fb      	strb	r3, [r7, #19]
 8006248:	2300      	movs	r3, #0
 800624a:	74bb      	strb	r3, [r7, #18]
 800624c:	687b      	ldr	r3, [r7, #4]
 800624e:	681b      	ldr	r3, [r3, #0]
 8006250:	f403 2300 	and.w	r3, r3, #524288	; 0x80000
 8006254:	2b00      	cmp	r3, #0
 8006256:	f000 8098 	beq.w	800638a <HAL_RCCEx_PeriphCLKConfig+0x14e>
 800625a:	2300      	movs	r3, #0
 800625c:	747b      	strb	r3, [r7, #17]
 800625e:	4b43      	ldr	r3, [pc, #268]	; (800636c <HAL_RCCEx_PeriphCLKConfig+0x130>)
 8006260:	6d9b      	ldr	r3, [r3, #88]	; 0x58
 8006262:	f003 5380 	and.w	r3, r3, #268435456	; 0x10000000
 8006266:	2b00      	cmp	r3, #0
 8006268:	d10d      	bne.n	8006286 <HAL_RCCEx_PeriphCLKConfig+0x4a>
 800626a:	4b40      	ldr	r3, [pc, #256]	; (800636c <HAL_RCCEx_PeriphCLKConfig+0x130>)
 800626c:	6d9b      	ldr	r3, [r3, #88]	; 0x58
 800626e:	4a3f      	ldr	r2, [pc, #252]	; (800636c <HAL_RCCEx_PeriphCLKConfig+0x130>)
 8006270:	f043 5380 	orr.w	r3, r3, #268435456	; 0x10000000
 8006274:	6593      	str	r3, [r2, #88]	; 0x58
 8006276:	4b3d      	ldr	r3, [pc, #244]	; (800636c <HAL_RCCEx_PeriphCLKConfig+0x130>)
 8006278:	6d9b      	ldr	r3, [r3, #88]	; 0x58
 800627a:	f003 5380 	and.w	r3, r3, #268435456	; 0x10000000
 800627e:	60bb      	str	r3, [r7, #8]
 8006280:	68bb      	ldr	r3, [r7, #8]
 8006282:	2301      	movs	r3, #1
 8006284:	747b      	strb	r3, [r7, #17]
 8006286:	4b3a      	ldr	r3, [pc, #232]	; (8006370 <HAL_RCCEx_PeriphCLKConfig+0x134>)
 8006288:	681b      	ldr	r3, [r3, #0]
 800628a:	4a39      	ldr	r2, [pc, #228]	; (8006370 <HAL_RCCEx_PeriphCLKConfig+0x134>)
 800628c:	f443 7380 	orr.w	r3, r3, #256	; 0x100
 8006290:	6013      	str	r3, [r2, #0]
 8006292:	f7fc fea9 	bl	8002fe8 <HAL_GetTick>
 8006296:	60f8      	str	r0, [r7, #12]
 8006298:	e009      	b.n	80062ae <HAL_RCCEx_PeriphCLKConfig+0x72>
 800629a:	f7fc fea5 	bl	8002fe8 <HAL_GetTick>
 800629e:	4602      	mov	r2, r0
 80062a0:	68fb      	ldr	r3, [r7, #12]
 80062a2:	1ad3      	subs	r3, r2, r3
 80062a4:	2b02      	cmp	r3, #2
 80062a6:	d902      	bls.n	80062ae <HAL_RCCEx_PeriphCLKConfig+0x72>
 80062a8:	2303      	movs	r3, #3
 80062aa:	74fb      	strb	r3, [r7, #19]
 80062ac:	e005      	b.n	80062ba <HAL_RCCEx_PeriphCLKConfig+0x7e>
 80062ae:	4b30      	ldr	r3, [pc, #192]	; (8006370 <HAL_RCCEx_PeriphCLKConfig+0x134>)
 80062b0:	681b      	ldr	r3, [r3, #0]
 80062b2:	f403 7380 	and.w	r3, r3, #256	; 0x100
 80062b6:	2b00      	cmp	r3, #0
 80062b8:	d0ef      	beq.n	800629a <HAL_RCCEx_PeriphCLKConfig+0x5e>
 80062ba:	7cfb      	ldrb	r3, [r7, #19]
 80062bc:	2b00      	cmp	r3, #0
 80062be:	d159      	bne.n	8006374 <HAL_RCCEx_PeriphCLKConfig+0x138>
 80062c0:	4b2a      	ldr	r3, [pc, #168]	; (800636c <HAL_RCCEx_PeriphCLKConfig+0x130>)
 80062c2:	f8d3 3090 	ldr.w	r3, [r3, #144]	; 0x90
 80062c6:	f403 7340 	and.w	r3, r3, #768	; 0x300
 80062ca:	617b      	str	r3, [r7, #20]
 80062cc:	697b      	ldr	r3, [r7, #20]
 80062ce:	2b00      	cmp	r3, #0
 80062d0:	d01e      	beq.n	8006310 <HAL_RCCEx_PeriphCLKConfig+0xd4>
 80062d2:	687b      	ldr	r3, [r7, #4]
 80062d4:	6c1b      	ldr	r3, [r3, #64]	; 0x40
 80062d6:	697a      	ldr	r2, [r7, #20]
 80062d8:	429a      	cmp	r2, r3
 80062da:	d019      	beq.n	8006310 <HAL_RCCEx_PeriphCLKConfig+0xd4>
 80062dc:	4b23      	ldr	r3, [pc, #140]	; (800636c <HAL_RCCEx_PeriphCLKConfig+0x130>)
 80062de:	f8d3 3090 	ldr.w	r3, [r3, #144]	; 0x90
 80062e2:	f423 7340 	bic.w	r3, r3, #768	; 0x300
 80062e6:	617b      	str	r3, [r7, #20]
 80062e8:	4b20      	ldr	r3, [pc, #128]	; (800636c <HAL_RCCEx_PeriphCLKConfig+0x130>)
 80062ea:	f8d3 3090 	ldr.w	r3, [r3, #144]	; 0x90
 80062ee:	4a1f      	ldr	r2, [pc, #124]	; (800636c <HAL_RCCEx_PeriphCLKConfig+0x130>)
 80062f0:	f443 3380 	orr.w	r3, r3, #65536	; 0x10000
 80062f4:	f8c2 3090 	str.w	r3, [r2, #144]	; 0x90
 80062f8:	4b1c      	ldr	r3, [pc, #112]	; (800636c <HAL_RCCEx_PeriphCLKConfig+0x130>)
 80062fa:	f8d3 3090 	ldr.w	r3, [r3, #144]	; 0x90
 80062fe:	4a1b      	ldr	r2, [pc, #108]	; (800636c <HAL_RCCEx_PeriphCLKConfig+0x130>)
 8006300:	f423 3380 	bic.w	r3, r3, #65536	; 0x10000
 8006304:	f8c2 3090 	str.w	r3, [r2, #144]	; 0x90
 8006308:	4a18      	ldr	r2, [pc, #96]	; (800636c <HAL_RCCEx_PeriphCLKConfig+0x130>)
 800630a:	697b      	ldr	r3, [r7, #20]
 800630c:	f8c2 3090 	str.w	r3, [r2, #144]	; 0x90
 8006310:	697b      	ldr	r3, [r7, #20]
 8006312:	f003 0301 	and.w	r3, r3, #1
 8006316:	2b00      	cmp	r3, #0
 8006318:	d016      	beq.n	8006348 <HAL_RCCEx_PeriphCLKConfig+0x10c>
 800631a:	f7fc fe65 	bl	8002fe8 <HAL_GetTick>
 800631e:	60f8      	str	r0, [r7, #12]
 8006320:	e00b      	b.n	800633a <HAL_RCCEx_PeriphCLKConfig+0xfe>
 8006322:	f7fc fe61 	bl	8002fe8 <HAL_GetTick>
 8006326:	4602      	mov	r2, r0
 8006328:	68fb      	ldr	r3, [r7, #12]
 800632a:	1ad3      	subs	r3, r2, r3
 800632c:	f241 3288 	movw	r2, #5000	; 0x1388
 8006330:	4293      	cmp	r3, r2
 8006332:	d902      	bls.n	800633a <HAL_RCCEx_PeriphCLKConfig+0xfe>
 8006334:	2303      	movs	r3, #3
 8006336:	74fb      	strb	r3, [r7, #19]
 8006338:	e006      	b.n	8006348 <HAL_RCCEx_PeriphCLKConfig+0x10c>
 800633a:	4b0c      	ldr	r3, [pc, #48]	; (800636c <HAL_RCCEx_PeriphCLKConfig+0x130>)
 800633c:	f8d3 3090 	ldr.w	r3, [r3, #144]	; 0x90
 8006340:	f003 0302 	and.w	r3, r3, #2
 8006344:	2b00      	cmp	r3, #0
 8006346:	d0ec      	beq.n	8006322 <HAL_RCCEx_PeriphCLKConfig+0xe6>
 8006348:	7cfb      	ldrb	r3, [r7, #19]
 800634a:	2b00      	cmp	r3, #0
 800634c:	d10b      	bne.n	8006366 <HAL_RCCEx_PeriphCLKConfig+0x12a>
 800634e:	4b07      	ldr	r3, [pc, #28]	; (800636c <HAL_RCCEx_PeriphCLKConfig+0x130>)
 8006350:	f8d3 3090 	ldr.w	r3, [r3, #144]	; 0x90
 8006354:	f423 7240 	bic.w	r2, r3, #768	; 0x300
 8006358:	687b      	ldr	r3, [r7, #4]
 800635a:	6c1b      	ldr	r3, [r3, #64]	; 0x40
 800635c:	4903      	ldr	r1, [pc, #12]	; (800636c <HAL_RCCEx_PeriphCLKConfig+0x130>)
 800635e:	4313      	orrs	r3, r2
 8006360:	f8c1 3090 	str.w	r3, [r1, #144]	; 0x90
 8006364:	e008      	b.n	8006378 <HAL_RCCEx_PeriphCLKConfig+0x13c>
 8006366:	7cfb      	ldrb	r3, [r7, #19]
 8006368:	74bb      	strb	r3, [r7, #18]
 800636a:	e005      	b.n	8006378 <HAL_RCCEx_PeriphCLKConfig+0x13c>
 800636c:	40021000 	.word	0x40021000
 8006370:	40007000 	.word	0x40007000
 8006374:	7cfb      	ldrb	r3, [r7, #19]
 8006376:	74bb      	strb	r3, [r7, #18]
 8006378:	7c7b      	ldrb	r3, [r7, #17]
 800637a:	2b01      	cmp	r3, #1
 800637c:	d105      	bne.n	800638a <HAL_RCCEx_PeriphCLKConfig+0x14e>
 800637e:	4ba6      	ldr	r3, [pc, #664]	; (8006618 <HAL_RCCEx_PeriphCLKConfig+0x3dc>)
 8006380:	6d9b      	ldr	r3, [r3, #88]	; 0x58
 8006382:	4aa5      	ldr	r2, [pc, #660]	; (8006618 <HAL_RCCEx_PeriphCLKConfig+0x3dc>)
 8006384:	f023 5380 	bic.w	r3, r3, #268435456	; 0x10000000
 8006388:	6593      	str	r3, [r2, #88]	; 0x58
 800638a:	687b      	ldr	r3, [r7, #4]
 800638c:	681b      	ldr	r3, [r3, #0]
 800638e:	f003 0301 	and.w	r3, r3, #1
 8006392:	2b00      	cmp	r3, #0
 8006394:	d00a      	beq.n	80063ac <HAL_RCCEx_PeriphCLKConfig+0x170>
 8006396:	4ba0      	ldr	r3, [pc, #640]	; (8006618 <HAL_RCCEx_PeriphCLKConfig+0x3dc>)
 8006398:	f8d3 3088 	ldr.w	r3, [r3, #136]	; 0x88
 800639c:	f023 0203 	bic.w	r2, r3, #3
 80063a0:	687b      	ldr	r3, [r7, #4]
 80063a2:	685b      	ldr	r3, [r3, #4]
 80063a4:	499c      	ldr	r1, [pc, #624]	; (8006618 <HAL_RCCEx_PeriphCLKConfig+0x3dc>)
 80063a6:	4313      	orrs	r3, r2
 80063a8:	f8c1 3088 	str.w	r3, [r1, #136]	; 0x88
 80063ac:	687b      	ldr	r3, [r7, #4]
 80063ae:	681b      	ldr	r3, [r3, #0]
 80063b0:	f003 0302 	and.w	r3, r3, #2
 80063b4:	2b00      	cmp	r3, #0
 80063b6:	d00a      	beq.n	80063ce <HAL_RCCEx_PeriphCLKConfig+0x192>
 80063b8:	4b97      	ldr	r3, [pc, #604]	; (8006618 <HAL_RCCEx_PeriphCLKConfig+0x3dc>)
 80063ba:	f8d3 3088 	ldr.w	r3, [r3, #136]	; 0x88
 80063be:	f023 020c 	bic.w	r2, r3, #12
 80063c2:	687b      	ldr	r3, [r7, #4]
 80063c4:	689b      	ldr	r3, [r3, #8]
 80063c6:	4994      	ldr	r1, [pc, #592]	; (8006618 <HAL_RCCEx_PeriphCLKConfig+0x3dc>)
 80063c8:	4313      	orrs	r3, r2
 80063ca:	f8c1 3088 	str.w	r3, [r1, #136]	; 0x88
 80063ce:	687b      	ldr	r3, [r7, #4]
 80063d0:	681b      	ldr	r3, [r3, #0]
 80063d2:	f003 0304 	and.w	r3, r3, #4
 80063d6:	2b00      	cmp	r3, #0
 80063d8:	d00a      	beq.n	80063f0 <HAL_RCCEx_PeriphCLKConfig+0x1b4>
 80063da:	4b8f      	ldr	r3, [pc, #572]	; (8006618 <HAL_RCCEx_PeriphCLKConfig+0x3dc>)
 80063dc:	f8d3 3088 	ldr.w	r3, [r3, #136]	; 0x88
 80063e0:	f023 0230 	bic.w	r2, r3, #48	; 0x30
 80063e4:	687b      	ldr	r3, [r7, #4]
 80063e6:	68db      	ldr	r3, [r3, #12]
 80063e8:	498b      	ldr	r1, [pc, #556]	; (8006618 <HAL_RCCEx_PeriphCLKConfig+0x3dc>)
 80063ea:	4313      	orrs	r3, r2
 80063ec:	f8c1 3088 	str.w	r3, [r1, #136]	; 0x88
 80063f0:	687b      	ldr	r3, [r7, #4]
 80063f2:	681b      	ldr	r3, [r3, #0]
 80063f4:	f003 0308 	and.w	r3, r3, #8
 80063f8:	2b00      	cmp	r3, #0
 80063fa:	d00a      	beq.n	8006412 <HAL_RCCEx_PeriphCLKConfig+0x1d6>
 80063fc:	4b86      	ldr	r3, [pc, #536]	; (8006618 <HAL_RCCEx_PeriphCLKConfig+0x3dc>)
 80063fe:	f8d3 3088 	ldr.w	r3, [r3, #136]	; 0x88
 8006402:	f023 02c0 	bic.w	r2, r3, #192	; 0xc0
 8006406:	687b      	ldr	r3, [r7, #4]
 8006408:	691b      	ldr	r3, [r3, #16]
 800640a:	4983      	ldr	r1, [pc, #524]	; (8006618 <HAL_RCCEx_PeriphCLKConfig+0x3dc>)
 800640c:	4313      	orrs	r3, r2
 800640e:	f8c1 3088 	str.w	r3, [r1, #136]	; 0x88
 8006412:	687b      	ldr	r3, [r7, #4]
 8006414:	681b      	ldr	r3, [r3, #0]
 8006416:	f003 0320 	and.w	r3, r3, #32
 800641a:	2b00      	cmp	r3, #0
 800641c:	d00a      	beq.n	8006434 <HAL_RCCEx_PeriphCLKConfig+0x1f8>
 800641e:	4b7e      	ldr	r3, [pc, #504]	; (8006618 <HAL_RCCEx_PeriphCLKConfig+0x3dc>)
 8006420:	f8d3 3088 	ldr.w	r3, [r3, #136]	; 0x88
 8006424:	f423 6240 	bic.w	r2, r3, #3072	; 0xc00
 8006428:	687b      	ldr	r3, [r7, #4]
 800642a:	695b      	ldr	r3, [r3, #20]
 800642c:	497a      	ldr	r1, [pc, #488]	; (8006618 <HAL_RCCEx_PeriphCLKConfig+0x3dc>)
 800642e:	4313      	orrs	r3, r2
 8006430:	f8c1 3088 	str.w	r3, [r1, #136]	; 0x88
 8006434:	687b      	ldr	r3, [r7, #4]
 8006436:	681b      	ldr	r3, [r3, #0]
 8006438:	f003 0340 	and.w	r3, r3, #64	; 0x40
 800643c:	2b00      	cmp	r3, #0
 800643e:	d00a      	beq.n	8006456 <HAL_RCCEx_PeriphCLKConfig+0x21a>
 8006440:	4b75      	ldr	r3, [pc, #468]	; (8006618 <HAL_RCCEx_PeriphCLKConfig+0x3dc>)
 8006442:	f8d3 3088 	ldr.w	r3, [r3, #136]	; 0x88
 8006446:	f423 5240 	bic.w	r2, r3, #12288	; 0x3000
 800644a:	687b      	ldr	r3, [r7, #4]
 800644c:	699b      	ldr	r3, [r3, #24]
 800644e:	4972      	ldr	r1, [pc, #456]	; (8006618 <HAL_RCCEx_PeriphCLKConfig+0x3dc>)
 8006450:	4313      	orrs	r3, r2
 8006452:	f8c1 3088 	str.w	r3, [r1, #136]	; 0x88
 8006456:	687b      	ldr	r3, [r7, #4]
 8006458:	681b      	ldr	r3, [r3, #0]
 800645a:	f003 0380 	and.w	r3, r3, #128	; 0x80
 800645e:	2b00      	cmp	r3, #0
 8006460:	d00a      	beq.n	8006478 <HAL_RCCEx_PeriphCLKConfig+0x23c>
 8006462:	4b6d      	ldr	r3, [pc, #436]	; (8006618 <HAL_RCCEx_PeriphCLKConfig+0x3dc>)
 8006464:	f8d3 3088 	ldr.w	r3, [r3, #136]	; 0x88
 8006468:	f423 4240 	bic.w	r2, r3, #49152	; 0xc000
 800646c:	687b      	ldr	r3, [r7, #4]
 800646e:	69db      	ldr	r3, [r3, #28]
 8006470:	4969      	ldr	r1, [pc, #420]	; (8006618 <HAL_RCCEx_PeriphCLKConfig+0x3dc>)
 8006472:	4313      	orrs	r3, r2
 8006474:	f8c1 3088 	str.w	r3, [r1, #136]	; 0x88
 8006478:	687b      	ldr	r3, [r7, #4]
 800647a:	681b      	ldr	r3, [r3, #0]
 800647c:	f403 7380 	and.w	r3, r3, #256	; 0x100
 8006480:	2b00      	cmp	r3, #0
 8006482:	d00a      	beq.n	800649a <HAL_RCCEx_PeriphCLKConfig+0x25e>
 8006484:	4b64      	ldr	r3, [pc, #400]	; (8006618 <HAL_RCCEx_PeriphCLKConfig+0x3dc>)
 8006486:	f8d3 3088 	ldr.w	r3, [r3, #136]	; 0x88
 800648a:	f423 3240 	bic.w	r2, r3, #196608	; 0x30000
 800648e:	687b      	ldr	r3, [r7, #4]
 8006490:	6a1b      	ldr	r3, [r3, #32]
 8006492:	4961      	ldr	r1, [pc, #388]	; (8006618 <HAL_RCCEx_PeriphCLKConfig+0x3dc>)
 8006494:	4313      	orrs	r3, r2
 8006496:	f8c1 3088 	str.w	r3, [r1, #136]	; 0x88
 800649a:	687b      	ldr	r3, [r7, #4]
 800649c:	681b      	ldr	r3, [r3, #0]
 800649e:	f403 7300 	and.w	r3, r3, #512	; 0x200
 80064a2:	2b00      	cmp	r3, #0
 80064a4:	d00a      	beq.n	80064bc <HAL_RCCEx_PeriphCLKConfig+0x280>
 80064a6:	4b5c      	ldr	r3, [pc, #368]	; (8006618 <HAL_RCCEx_PeriphCLKConfig+0x3dc>)
 80064a8:	f8d3 3088 	ldr.w	r3, [r3, #136]	; 0x88
 80064ac:	f423 2240 	bic.w	r2, r3, #786432	; 0xc0000
 80064b0:	687b      	ldr	r3, [r7, #4]
 80064b2:	6a5b      	ldr	r3, [r3, #36]	; 0x24
 80064b4:	4958      	ldr	r1, [pc, #352]	; (8006618 <HAL_RCCEx_PeriphCLKConfig+0x3dc>)
 80064b6:	4313      	orrs	r3, r2
 80064b8:	f8c1 3088 	str.w	r3, [r1, #136]	; 0x88
 80064bc:	687b      	ldr	r3, [r7, #4]
 80064be:	681b      	ldr	r3, [r3, #0]
 80064c0:	f403 6380 	and.w	r3, r3, #1024	; 0x400
 80064c4:	2b00      	cmp	r3, #0
 80064c6:	d015      	beq.n	80064f4 <HAL_RCCEx_PeriphCLKConfig+0x2b8>
 80064c8:	4b53      	ldr	r3, [pc, #332]	; (8006618 <HAL_RCCEx_PeriphCLKConfig+0x3dc>)
 80064ca:	f8d3 3088 	ldr.w	r3, [r3, #136]	; 0x88
 80064ce:	f423 1240 	bic.w	r2, r3, #3145728	; 0x300000
 80064d2:	687b      	ldr	r3, [r7, #4]
 80064d4:	6a9b      	ldr	r3, [r3, #40]	; 0x28
 80064d6:	4950      	ldr	r1, [pc, #320]	; (8006618 <HAL_RCCEx_PeriphCLKConfig+0x3dc>)
 80064d8:	4313      	orrs	r3, r2
 80064da:	f8c1 3088 	str.w	r3, [r1, #136]	; 0x88
 80064de:	687b      	ldr	r3, [r7, #4]
 80064e0:	6a9b      	ldr	r3, [r3, #40]	; 0x28
 80064e2:	f5b3 1f80 	cmp.w	r3, #1048576	; 0x100000
 80064e6:	d105      	bne.n	80064f4 <HAL_RCCEx_PeriphCLKConfig+0x2b8>
 80064e8:	4b4b      	ldr	r3, [pc, #300]	; (8006618 <HAL_RCCEx_PeriphCLKConfig+0x3dc>)
 80064ea:	68db      	ldr	r3, [r3, #12]
 80064ec:	4a4a      	ldr	r2, [pc, #296]	; (8006618 <HAL_RCCEx_PeriphCLKConfig+0x3dc>)
 80064ee:	f443 1380 	orr.w	r3, r3, #1048576	; 0x100000
 80064f2:	60d3      	str	r3, [r2, #12]
 80064f4:	687b      	ldr	r3, [r7, #4]
 80064f6:	681b      	ldr	r3, [r3, #0]
 80064f8:	f403 6300 	and.w	r3, r3, #2048	; 0x800
 80064fc:	2b00      	cmp	r3, #0
 80064fe:	d015      	beq.n	800652c <HAL_RCCEx_PeriphCLKConfig+0x2f0>
 8006500:	4b45      	ldr	r3, [pc, #276]	; (8006618 <HAL_RCCEx_PeriphCLKConfig+0x3dc>)
 8006502:	f8d3 3088 	ldr.w	r3, [r3, #136]	; 0x88
 8006506:	f423 0240 	bic.w	r2, r3, #12582912	; 0xc00000
 800650a:	687b      	ldr	r3, [r7, #4]
 800650c:	6adb      	ldr	r3, [r3, #44]	; 0x2c
 800650e:	4942      	ldr	r1, [pc, #264]	; (8006618 <HAL_RCCEx_PeriphCLKConfig+0x3dc>)
 8006510:	4313      	orrs	r3, r2
 8006512:	f8c1 3088 	str.w	r3, [r1, #136]	; 0x88
 8006516:	687b      	ldr	r3, [r7, #4]
 8006518:	6adb      	ldr	r3, [r3, #44]	; 0x2c
 800651a:	f5b3 0f80 	cmp.w	r3, #4194304	; 0x400000
 800651e:	d105      	bne.n	800652c <HAL_RCCEx_PeriphCLKConfig+0x2f0>
 8006520:	4b3d      	ldr	r3, [pc, #244]	; (8006618 <HAL_RCCEx_PeriphCLKConfig+0x3dc>)
 8006522:	68db      	ldr	r3, [r3, #12]
 8006524:	4a3c      	ldr	r2, [pc, #240]	; (8006618 <HAL_RCCEx_PeriphCLKConfig+0x3dc>)
 8006526:	f443 1380 	orr.w	r3, r3, #1048576	; 0x100000
 800652a:	60d3      	str	r3, [r2, #12]
 800652c:	687b      	ldr	r3, [r7, #4]
 800652e:	681b      	ldr	r3, [r3, #0]
 8006530:	f403 5380 	and.w	r3, r3, #4096	; 0x1000
 8006534:	2b00      	cmp	r3, #0
 8006536:	d015      	beq.n	8006564 <HAL_RCCEx_PeriphCLKConfig+0x328>
 8006538:	4b37      	ldr	r3, [pc, #220]	; (8006618 <HAL_RCCEx_PeriphCLKConfig+0x3dc>)
 800653a:	f8d3 3088 	ldr.w	r3, [r3, #136]	; 0x88
 800653e:	f023 7240 	bic.w	r2, r3, #50331648	; 0x3000000
 8006542:	687b      	ldr	r3, [r7, #4]
 8006544:	6b1b      	ldr	r3, [r3, #48]	; 0x30
 8006546:	4934      	ldr	r1, [pc, #208]	; (8006618 <HAL_RCCEx_PeriphCLKConfig+0x3dc>)
 8006548:	4313      	orrs	r3, r2
 800654a:	f8c1 3088 	str.w	r3, [r1, #136]	; 0x88
 800654e:	687b      	ldr	r3, [r7, #4]
 8006550:	6b1b      	ldr	r3, [r3, #48]	; 0x30
 8006552:	f1b3 7f80 	cmp.w	r3, #16777216	; 0x1000000
 8006556:	d105      	bne.n	8006564 <HAL_RCCEx_PeriphCLKConfig+0x328>
 8006558:	4b2f      	ldr	r3, [pc, #188]	; (8006618 <HAL_RCCEx_PeriphCLKConfig+0x3dc>)
 800655a:	68db      	ldr	r3, [r3, #12]
 800655c:	4a2e      	ldr	r2, [pc, #184]	; (8006618 <HAL_RCCEx_PeriphCLKConfig+0x3dc>)
 800655e:	f443 1380 	orr.w	r3, r3, #1048576	; 0x100000
 8006562:	60d3      	str	r3, [r2, #12]
 8006564:	687b      	ldr	r3, [r7, #4]
 8006566:	681b      	ldr	r3, [r3, #0]
 8006568:	f403 5300 	and.w	r3, r3, #8192	; 0x2000
 800656c:	2b00      	cmp	r3, #0
 800656e:	d015      	beq.n	800659c <HAL_RCCEx_PeriphCLKConfig+0x360>
 8006570:	4b29      	ldr	r3, [pc, #164]	; (8006618 <HAL_RCCEx_PeriphCLKConfig+0x3dc>)
 8006572:	f8d3 3088 	ldr.w	r3, [r3, #136]	; 0x88
 8006576:	f023 6240 	bic.w	r2, r3, #201326592	; 0xc000000
 800657a:	687b      	ldr	r3, [r7, #4]
 800657c:	6b5b      	ldr	r3, [r3, #52]	; 0x34
 800657e:	4926      	ldr	r1, [pc, #152]	; (8006618 <HAL_RCCEx_PeriphCLKConfig+0x3dc>)
 8006580:	4313      	orrs	r3, r2
 8006582:	f8c1 3088 	str.w	r3, [r1, #136]	; 0x88
 8006586:	687b      	ldr	r3, [r7, #4]
 8006588:	6b5b      	ldr	r3, [r3, #52]	; 0x34
 800658a:	f1b3 6f00 	cmp.w	r3, #134217728	; 0x8000000
 800658e:	d105      	bne.n	800659c <HAL_RCCEx_PeriphCLKConfig+0x360>
 8006590:	4b21      	ldr	r3, [pc, #132]	; (8006618 <HAL_RCCEx_PeriphCLKConfig+0x3dc>)
 8006592:	68db      	ldr	r3, [r3, #12]
 8006594:	4a20      	ldr	r2, [pc, #128]	; (8006618 <HAL_RCCEx_PeriphCLKConfig+0x3dc>)
 8006596:	f443 1380 	orr.w	r3, r3, #1048576	; 0x100000
 800659a:	60d3      	str	r3, [r2, #12]
 800659c:	687b      	ldr	r3, [r7, #4]
 800659e:	681b      	ldr	r3, [r3, #0]
 80065a0:	f403 4380 	and.w	r3, r3, #16384	; 0x4000
 80065a4:	2b00      	cmp	r3, #0
 80065a6:	d015      	beq.n	80065d4 <HAL_RCCEx_PeriphCLKConfig+0x398>
 80065a8:	4b1b      	ldr	r3, [pc, #108]	; (8006618 <HAL_RCCEx_PeriphCLKConfig+0x3dc>)
 80065aa:	f8d3 3088 	ldr.w	r3, [r3, #136]	; 0x88
 80065ae:	f023 6240 	bic.w	r2, r3, #201326592	; 0xc000000
 80065b2:	687b      	ldr	r3, [r7, #4]
 80065b4:	6b9b      	ldr	r3, [r3, #56]	; 0x38
 80065b6:	4918      	ldr	r1, [pc, #96]	; (8006618 <HAL_RCCEx_PeriphCLKConfig+0x3dc>)
 80065b8:	4313      	orrs	r3, r2
 80065ba:	f8c1 3088 	str.w	r3, [r1, #136]	; 0x88
 80065be:	687b      	ldr	r3, [r7, #4]
 80065c0:	6b9b      	ldr	r3, [r3, #56]	; 0x38
 80065c2:	f1b3 6f00 	cmp.w	r3, #134217728	; 0x8000000
 80065c6:	d105      	bne.n	80065d4 <HAL_RCCEx_PeriphCLKConfig+0x398>
 80065c8:	4b13      	ldr	r3, [pc, #76]	; (8006618 <HAL_RCCEx_PeriphCLKConfig+0x3dc>)
 80065ca:	68db      	ldr	r3, [r3, #12]
 80065cc:	4a12      	ldr	r2, [pc, #72]	; (8006618 <HAL_RCCEx_PeriphCLKConfig+0x3dc>)
 80065ce:	f443 1380 	orr.w	r3, r3, #1048576	; 0x100000
 80065d2:	60d3      	str	r3, [r2, #12]
 80065d4:	687b      	ldr	r3, [r7, #4]
 80065d6:	681b      	ldr	r3, [r3, #0]
 80065d8:	f403 4300 	and.w	r3, r3, #32768	; 0x8000
 80065dc:	2b00      	cmp	r3, #0
 80065de:	d015      	beq.n	800660c <HAL_RCCEx_PeriphCLKConfig+0x3d0>
 80065e0:	4b0d      	ldr	r3, [pc, #52]	; (8006618 <HAL_RCCEx_PeriphCLKConfig+0x3dc>)
 80065e2:	f8d3 3088 	ldr.w	r3, [r3, #136]	; 0x88
 80065e6:	f023 5240 	bic.w	r2, r3, #805306368	; 0x30000000
 80065ea:	687b      	ldr	r3, [r7, #4]
 80065ec:	6bdb      	ldr	r3, [r3, #60]	; 0x3c
 80065ee:	490a      	ldr	r1, [pc, #40]	; (8006618 <HAL_RCCEx_PeriphCLKConfig+0x3dc>)
 80065f0:	4313      	orrs	r3, r2
 80065f2:	f8c1 3088 	str.w	r3, [r1, #136]	; 0x88
 80065f6:	687b      	ldr	r3, [r7, #4]
 80065f8:	6bdb      	ldr	r3, [r3, #60]	; 0x3c
 80065fa:	f1b3 5f80 	cmp.w	r3, #268435456	; 0x10000000
 80065fe:	d105      	bne.n	800660c <HAL_RCCEx_PeriphCLKConfig+0x3d0>
 8006600:	4b05      	ldr	r3, [pc, #20]	; (8006618 <HAL_RCCEx_PeriphCLKConfig+0x3dc>)
 8006602:	68db      	ldr	r3, [r3, #12]
 8006604:	4a04      	ldr	r2, [pc, #16]	; (8006618 <HAL_RCCEx_PeriphCLKConfig+0x3dc>)
 8006606:	f443 3380 	orr.w	r3, r3, #65536	; 0x10000
 800660a:	60d3      	str	r3, [r2, #12]
 800660c:	7cbb      	ldrb	r3, [r7, #18]
 800660e:	4618      	mov	r0, r3
 8006610:	3718      	adds	r7, #24
 8006612:	46bd      	mov	sp, r7
 8006614:	bd80      	pop	{r7, pc}
 8006616:	bf00      	nop
 8006618:	40021000 	.word	0x40021000

0800661c <HAL_SPI_Init>:
 800661c:	b580      	push	{r7, lr}
 800661e:	b084      	sub	sp, #16
 8006620:	af00      	add	r7, sp, #0
 8006622:	6078      	str	r0, [r7, #4]
 8006624:	687b      	ldr	r3, [r7, #4]
 8006626:	2b00      	cmp	r3, #0
 8006628:	d101      	bne.n	800662e <HAL_SPI_Init+0x12>
 800662a:	2301      	movs	r3, #1
 800662c:	e09d      	b.n	800676a <HAL_SPI_Init+0x14e>
 800662e:	687b      	ldr	r3, [r7, #4]
 8006630:	6a5b      	ldr	r3, [r3, #36]	; 0x24
 8006632:	2b00      	cmp	r3, #0
 8006634:	d108      	bne.n	8006648 <HAL_SPI_Init+0x2c>
 8006636:	687b      	ldr	r3, [r7, #4]
 8006638:	685b      	ldr	r3, [r3, #4]
 800663a:	f5b3 7f82 	cmp.w	r3, #260	; 0x104
 800663e:	d009      	beq.n	8006654 <HAL_SPI_Init+0x38>
 8006640:	687b      	ldr	r3, [r7, #4]
 8006642:	2200      	movs	r2, #0
 8006644:	61da      	str	r2, [r3, #28]
 8006646:	e005      	b.n	8006654 <HAL_SPI_Init+0x38>
 8006648:	687b      	ldr	r3, [r7, #4]
 800664a:	2200      	movs	r2, #0
 800664c:	611a      	str	r2, [r3, #16]
 800664e:	687b      	ldr	r3, [r7, #4]
 8006650:	2200      	movs	r2, #0
 8006652:	615a      	str	r2, [r3, #20]
 8006654:	687b      	ldr	r3, [r7, #4]
 8006656:	2200      	movs	r2, #0
 8006658:	629a      	str	r2, [r3, #40]	; 0x28
 800665a:	687b      	ldr	r3, [r7, #4]
 800665c:	f893 305d 	ldrb.w	r3, [r3, #93]	; 0x5d
 8006660:	b2db      	uxtb	r3, r3
 8006662:	2b00      	cmp	r3, #0
 8006664:	d106      	bne.n	8006674 <HAL_SPI_Init+0x58>
 8006666:	687b      	ldr	r3, [r7, #4]
 8006668:	2200      	movs	r2, #0
 800666a:	f883 205c 	strb.w	r2, [r3, #92]	; 0x5c
 800666e:	6878      	ldr	r0, [r7, #4]
 8006670:	f7fc fb90 	bl	8002d94 <HAL_SPI_MspInit>
 8006674:	687b      	ldr	r3, [r7, #4]
 8006676:	2202      	movs	r2, #2
 8006678:	f883 205d 	strb.w	r2, [r3, #93]	; 0x5d
 800667c:	687b      	ldr	r3, [r7, #4]
 800667e:	681b      	ldr	r3, [r3, #0]
 8006680:	681a      	ldr	r2, [r3, #0]
 8006682:	687b      	ldr	r3, [r7, #4]
 8006684:	681b      	ldr	r3, [r3, #0]
 8006686:	f022 0240 	bic.w	r2, r2, #64	; 0x40
 800668a:	601a      	str	r2, [r3, #0]
 800668c:	687b      	ldr	r3, [r7, #4]
 800668e:	68db      	ldr	r3, [r3, #12]
 8006690:	f5b3 6fe0 	cmp.w	r3, #1792	; 0x700
 8006694:	d902      	bls.n	800669c <HAL_SPI_Init+0x80>
 8006696:	2300      	movs	r3, #0
 8006698:	60fb      	str	r3, [r7, #12]
 800669a:	e002      	b.n	80066a2 <HAL_SPI_Init+0x86>
 800669c:	f44f 5380 	mov.w	r3, #4096	; 0x1000
 80066a0:	60fb      	str	r3, [r7, #12]
 80066a2:	687b      	ldr	r3, [r7, #4]
 80066a4:	68db      	ldr	r3, [r3, #12]
 80066a6:	f5b3 6f70 	cmp.w	r3, #3840	; 0xf00
 80066aa:	d007      	beq.n	80066bc <HAL_SPI_Init+0xa0>
 80066ac:	687b      	ldr	r3, [r7, #4]
 80066ae:	68db      	ldr	r3, [r3, #12]
 80066b0:	f5b3 6fe0 	cmp.w	r3, #1792	; 0x700
 80066b4:	d002      	beq.n	80066bc <HAL_SPI_Init+0xa0>
 80066b6:	687b      	ldr	r3, [r7, #4]
 80066b8:	2200      	movs	r2, #0
 80066ba:	629a      	str	r2, [r3, #40]	; 0x28
 80066bc:	687b      	ldr	r3, [r7, #4]
 80066be:	685b      	ldr	r3, [r3, #4]
 80066c0:	f403 7282 	and.w	r2, r3, #260	; 0x104
 80066c4:	687b      	ldr	r3, [r7, #4]
 80066c6:	689b      	ldr	r3, [r3, #8]
 80066c8:	f403 4304 	and.w	r3, r3, #33792	; 0x8400
 80066cc:	431a      	orrs	r2, r3
 80066ce:	687b      	ldr	r3, [r7, #4]
 80066d0:	691b      	ldr	r3, [r3, #16]
 80066d2:	f003 0302 	and.w	r3, r3, #2
 80066d6:	431a      	orrs	r2, r3
 80066d8:	687b      	ldr	r3, [r7, #4]
 80066da:	695b      	ldr	r3, [r3, #20]
 80066dc:	f003 0301 	and.w	r3, r3, #1
 80066e0:	431a      	orrs	r2, r3
 80066e2:	687b      	ldr	r3, [r7, #4]
 80066e4:	699b      	ldr	r3, [r3, #24]
 80066e6:	f403 7300 	and.w	r3, r3, #512	; 0x200
 80066ea:	431a      	orrs	r2, r3
 80066ec:	687b      	ldr	r3, [r7, #4]
 80066ee:	69db      	ldr	r3, [r3, #28]
 80066f0:	f003 0338 	and.w	r3, r3, #56	; 0x38
 80066f4:	431a      	orrs	r2, r3
 80066f6:	687b      	ldr	r3, [r7, #4]
 80066f8:	6a1b      	ldr	r3, [r3, #32]
 80066fa:	f003 0380 	and.w	r3, r3, #128	; 0x80
 80066fe:	ea42 0103 	orr.w	r1, r2, r3
 8006702:	687b      	ldr	r3, [r7, #4]
 8006704:	6a9b      	ldr	r3, [r3, #40]	; 0x28
 8006706:	f403 5200 	and.w	r2, r3, #8192	; 0x2000
 800670a:	687b      	ldr	r3, [r7, #4]
 800670c:	681b      	ldr	r3, [r3, #0]
 800670e:	430a      	orrs	r2, r1
 8006710:	601a      	str	r2, [r3, #0]
 8006712:	687b      	ldr	r3, [r7, #4]
 8006714:	699b      	ldr	r3, [r3, #24]
 8006716:	0c1b      	lsrs	r3, r3, #16
 8006718:	f003 0204 	and.w	r2, r3, #4
 800671c:	687b      	ldr	r3, [r7, #4]
 800671e:	6a5b      	ldr	r3, [r3, #36]	; 0x24
 8006720:	f003 0310 	and.w	r3, r3, #16
 8006724:	431a      	orrs	r2, r3
 8006726:	687b      	ldr	r3, [r7, #4]
 8006728:	6b5b      	ldr	r3, [r3, #52]	; 0x34
 800672a:	f003 0308 	and.w	r3, r3, #8
 800672e:	431a      	orrs	r2, r3
 8006730:	687b      	ldr	r3, [r7, #4]
 8006732:	68db      	ldr	r3, [r3, #12]
 8006734:	f403 6370 	and.w	r3, r3, #3840	; 0xf00
 8006738:	ea42 0103 	orr.w	r1, r2, r3
 800673c:	68fb      	ldr	r3, [r7, #12]
 800673e:	f403 5280 	and.w	r2, r3, #4096	; 0x1000
 8006742:	687b      	ldr	r3, [r7, #4]
 8006744:	681b      	ldr	r3, [r3, #0]
 8006746:	430a      	orrs	r2, r1
 8006748:	605a      	str	r2, [r3, #4]
 800674a:	687b      	ldr	r3, [r7, #4]
 800674c:	681b      	ldr	r3, [r3, #0]
 800674e:	69da      	ldr	r2, [r3, #28]
 8006750:	687b      	ldr	r3, [r7, #4]
 8006752:	681b      	ldr	r3, [r3, #0]
 8006754:	f422 6200 	bic.w	r2, r2, #2048	; 0x800
 8006758:	61da      	str	r2, [r3, #28]
 800675a:	687b      	ldr	r3, [r7, #4]
 800675c:	2200      	movs	r2, #0
 800675e:	661a      	str	r2, [r3, #96]	; 0x60
 8006760:	687b      	ldr	r3, [r7, #4]
 8006762:	2201      	movs	r2, #1
 8006764:	f883 205d 	strb.w	r2, [r3, #93]	; 0x5d
 8006768:	2300      	movs	r3, #0
 800676a:	4618      	mov	r0, r3
 800676c:	3710      	adds	r7, #16
 800676e:	46bd      	mov	sp, r7
 8006770:	bd80      	pop	{r7, pc}

08006772 <HAL_SPI_Transmit>:
 8006772:	b580      	push	{r7, lr}
 8006774:	b088      	sub	sp, #32
 8006776:	af00      	add	r7, sp, #0
 8006778:	60f8      	str	r0, [r7, #12]
 800677a:	60b9      	str	r1, [r7, #8]
 800677c:	603b      	str	r3, [r7, #0]
 800677e:	4613      	mov	r3, r2
 8006780:	80fb      	strh	r3, [r7, #6]
 8006782:	2300      	movs	r3, #0
 8006784:	77fb      	strb	r3, [r7, #31]
 8006786:	68fb      	ldr	r3, [r7, #12]
 8006788:	f893 305c 	ldrb.w	r3, [r3, #92]	; 0x5c
 800678c:	2b01      	cmp	r3, #1
 800678e:	d101      	bne.n	8006794 <HAL_SPI_Transmit+0x22>
 8006790:	2302      	movs	r3, #2
 8006792:	e15f      	b.n	8006a54 <HAL_SPI_Transmit+0x2e2>
 8006794:	68fb      	ldr	r3, [r7, #12]
 8006796:	2201      	movs	r2, #1
 8006798:	f883 205c 	strb.w	r2, [r3, #92]	; 0x5c
 800679c:	f7fc fc24 	bl	8002fe8 <HAL_GetTick>
 80067a0:	61b8      	str	r0, [r7, #24]
 80067a2:	88fb      	ldrh	r3, [r7, #6]
 80067a4:	82fb      	strh	r3, [r7, #22]
 80067a6:	68fb      	ldr	r3, [r7, #12]
 80067a8:	f893 305d 	ldrb.w	r3, [r3, #93]	; 0x5d
 80067ac:	b2db      	uxtb	r3, r3
 80067ae:	2b01      	cmp	r3, #1
 80067b0:	d002      	beq.n	80067b8 <HAL_SPI_Transmit+0x46>
 80067b2:	2302      	movs	r3, #2
 80067b4:	77fb      	strb	r3, [r7, #31]
 80067b6:	e148      	b.n	8006a4a <HAL_SPI_Transmit+0x2d8>
 80067b8:	68bb      	ldr	r3, [r7, #8]
 80067ba:	2b00      	cmp	r3, #0
 80067bc:	d002      	beq.n	80067c4 <HAL_SPI_Transmit+0x52>
 80067be:	88fb      	ldrh	r3, [r7, #6]
 80067c0:	2b00      	cmp	r3, #0
 80067c2:	d102      	bne.n	80067ca <HAL_SPI_Transmit+0x58>
 80067c4:	2301      	movs	r3, #1
 80067c6:	77fb      	strb	r3, [r7, #31]
 80067c8:	e13f      	b.n	8006a4a <HAL_SPI_Transmit+0x2d8>
 80067ca:	68fb      	ldr	r3, [r7, #12]
 80067cc:	2203      	movs	r2, #3
 80067ce:	f883 205d 	strb.w	r2, [r3, #93]	; 0x5d
 80067d2:	68fb      	ldr	r3, [r7, #12]
 80067d4:	2200      	movs	r2, #0
 80067d6:	661a      	str	r2, [r3, #96]	; 0x60
 80067d8:	68fb      	ldr	r3, [r7, #12]
 80067da:	68ba      	ldr	r2, [r7, #8]
 80067dc:	639a      	str	r2, [r3, #56]	; 0x38
 80067de:	68fb      	ldr	r3, [r7, #12]
 80067e0:	88fa      	ldrh	r2, [r7, #6]
 80067e2:	879a      	strh	r2, [r3, #60]	; 0x3c
 80067e4:	68fb      	ldr	r3, [r7, #12]
 80067e6:	88fa      	ldrh	r2, [r7, #6]
 80067e8:	87da      	strh	r2, [r3, #62]	; 0x3e
 80067ea:	68fb      	ldr	r3, [r7, #12]
 80067ec:	2200      	movs	r2, #0
 80067ee:	641a      	str	r2, [r3, #64]	; 0x40
 80067f0:	68fb      	ldr	r3, [r7, #12]
 80067f2:	2200      	movs	r2, #0
 80067f4:	f8a3 2044 	strh.w	r2, [r3, #68]	; 0x44
 80067f8:	68fb      	ldr	r3, [r7, #12]
 80067fa:	2200      	movs	r2, #0
 80067fc:	f8a3 2046 	strh.w	r2, [r3, #70]	; 0x46
 8006800:	68fb      	ldr	r3, [r7, #12]
 8006802:	2200      	movs	r2, #0
 8006804:	651a      	str	r2, [r3, #80]	; 0x50
 8006806:	68fb      	ldr	r3, [r7, #12]
 8006808:	2200      	movs	r2, #0
 800680a:	64da      	str	r2, [r3, #76]	; 0x4c
 800680c:	68fb      	ldr	r3, [r7, #12]
 800680e:	689b      	ldr	r3, [r3, #8]
 8006810:	f5b3 4f00 	cmp.w	r3, #32768	; 0x8000
 8006814:	d10f      	bne.n	8006836 <HAL_SPI_Transmit+0xc4>
 8006816:	68fb      	ldr	r3, [r7, #12]
 8006818:	681b      	ldr	r3, [r3, #0]
 800681a:	681a      	ldr	r2, [r3, #0]
 800681c:	68fb      	ldr	r3, [r7, #12]
 800681e:	681b      	ldr	r3, [r3, #0]
 8006820:	f022 0240 	bic.w	r2, r2, #64	; 0x40
 8006824:	601a      	str	r2, [r3, #0]
 8006826:	68fb      	ldr	r3, [r7, #12]
 8006828:	681b      	ldr	r3, [r3, #0]
 800682a:	681a      	ldr	r2, [r3, #0]
 800682c:	68fb      	ldr	r3, [r7, #12]
 800682e:	681b      	ldr	r3, [r3, #0]
 8006830:	f442 4280 	orr.w	r2, r2, #16384	; 0x4000
 8006834:	601a      	str	r2, [r3, #0]
 8006836:	68fb      	ldr	r3, [r7, #12]
 8006838:	681b      	ldr	r3, [r3, #0]
 800683a:	681b      	ldr	r3, [r3, #0]
 800683c:	f003 0340 	and.w	r3, r3, #64	; 0x40
 8006840:	2b40      	cmp	r3, #64	; 0x40
 8006842:	d007      	beq.n	8006854 <HAL_SPI_Transmit+0xe2>
 8006844:	68fb      	ldr	r3, [r7, #12]
 8006846:	681b      	ldr	r3, [r3, #0]
 8006848:	681a      	ldr	r2, [r3, #0]
 800684a:	68fb      	ldr	r3, [r7, #12]
 800684c:	681b      	ldr	r3, [r3, #0]
 800684e:	f042 0240 	orr.w	r2, r2, #64	; 0x40
 8006852:	601a      	str	r2, [r3, #0]
 8006854:	68fb      	ldr	r3, [r7, #12]
 8006856:	68db      	ldr	r3, [r3, #12]
 8006858:	f5b3 6fe0 	cmp.w	r3, #1792	; 0x700
 800685c:	d94f      	bls.n	80068fe <HAL_SPI_Transmit+0x18c>
 800685e:	68fb      	ldr	r3, [r7, #12]
 8006860:	685b      	ldr	r3, [r3, #4]
 8006862:	2b00      	cmp	r3, #0
 8006864:	d002      	beq.n	800686c <HAL_SPI_Transmit+0xfa>
 8006866:	8afb      	ldrh	r3, [r7, #22]
 8006868:	2b01      	cmp	r3, #1
 800686a:	d142      	bne.n	80068f2 <HAL_SPI_Transmit+0x180>
 800686c:	68fb      	ldr	r3, [r7, #12]
 800686e:	6b9b      	ldr	r3, [r3, #56]	; 0x38
 8006870:	881a      	ldrh	r2, [r3, #0]
 8006872:	68fb      	ldr	r3, [r7, #12]
 8006874:	681b      	ldr	r3, [r3, #0]
 8006876:	60da      	str	r2, [r3, #12]
 8006878:	68fb      	ldr	r3, [r7, #12]
 800687a:	6b9b      	ldr	r3, [r3, #56]	; 0x38
 800687c:	1c9a      	adds	r2, r3, #2
 800687e:	68fb      	ldr	r3, [r7, #12]
 8006880:	639a      	str	r2, [r3, #56]	; 0x38
 8006882:	68fb      	ldr	r3, [r7, #12]
 8006884:	8fdb      	ldrh	r3, [r3, #62]	; 0x3e
 8006886:	b29b      	uxth	r3, r3
 8006888:	3b01      	subs	r3, #1
 800688a:	b29a      	uxth	r2, r3
 800688c:	68fb      	ldr	r3, [r7, #12]
 800688e:	87da      	strh	r2, [r3, #62]	; 0x3e
 8006890:	e02f      	b.n	80068f2 <HAL_SPI_Transmit+0x180>
 8006892:	68fb      	ldr	r3, [r7, #12]
 8006894:	681b      	ldr	r3, [r3, #0]
 8006896:	689b      	ldr	r3, [r3, #8]
 8006898:	f003 0302 	and.w	r3, r3, #2
 800689c:	2b02      	cmp	r3, #2
 800689e:	d112      	bne.n	80068c6 <HAL_SPI_Transmit+0x154>
 80068a0:	68fb      	ldr	r3, [r7, #12]
 80068a2:	6b9b      	ldr	r3, [r3, #56]	; 0x38
 80068a4:	881a      	ldrh	r2, [r3, #0]
 80068a6:	68fb      	ldr	r3, [r7, #12]
 80068a8:	681b      	ldr	r3, [r3, #0]
 80068aa:	60da      	str	r2, [r3, #12]
 80068ac:	68fb      	ldr	r3, [r7, #12]
 80068ae:	6b9b      	ldr	r3, [r3, #56]	; 0x38
 80068b0:	1c9a      	adds	r2, r3, #2
 80068b2:	68fb      	ldr	r3, [r7, #12]
 80068b4:	639a      	str	r2, [r3, #56]	; 0x38
 80068b6:	68fb      	ldr	r3, [r7, #12]
 80068b8:	8fdb      	ldrh	r3, [r3, #62]	; 0x3e
 80068ba:	b29b      	uxth	r3, r3
 80068bc:	3b01      	subs	r3, #1
 80068be:	b29a      	uxth	r2, r3
 80068c0:	68fb      	ldr	r3, [r7, #12]
 80068c2:	87da      	strh	r2, [r3, #62]	; 0x3e
 80068c4:	e015      	b.n	80068f2 <HAL_SPI_Transmit+0x180>
 80068c6:	f7fc fb8f 	bl	8002fe8 <HAL_GetTick>
 80068ca:	4602      	mov	r2, r0
 80068cc:	69bb      	ldr	r3, [r7, #24]
 80068ce:	1ad3      	subs	r3, r2, r3
 80068d0:	683a      	ldr	r2, [r7, #0]
 80068d2:	429a      	cmp	r2, r3
 80068d4:	d803      	bhi.n	80068de <HAL_SPI_Transmit+0x16c>
 80068d6:	683b      	ldr	r3, [r7, #0]
 80068d8:	f1b3 3fff 	cmp.w	r3, #4294967295
 80068dc:	d102      	bne.n	80068e4 <HAL_SPI_Transmit+0x172>
 80068de:	683b      	ldr	r3, [r7, #0]
 80068e0:	2b00      	cmp	r3, #0
 80068e2:	d106      	bne.n	80068f2 <HAL_SPI_Transmit+0x180>
 80068e4:	2303      	movs	r3, #3
 80068e6:	77fb      	strb	r3, [r7, #31]
 80068e8:	68fb      	ldr	r3, [r7, #12]
 80068ea:	2201      	movs	r2, #1
 80068ec:	f883 205d 	strb.w	r2, [r3, #93]	; 0x5d
 80068f0:	e0ab      	b.n	8006a4a <HAL_SPI_Transmit+0x2d8>
 80068f2:	68fb      	ldr	r3, [r7, #12]
 80068f4:	8fdb      	ldrh	r3, [r3, #62]	; 0x3e
 80068f6:	b29b      	uxth	r3, r3
 80068f8:	2b00      	cmp	r3, #0
 80068fa:	d1ca      	bne.n	8006892 <HAL_SPI_Transmit+0x120>
 80068fc:	e080      	b.n	8006a00 <HAL_SPI_Transmit+0x28e>
 80068fe:	68fb      	ldr	r3, [r7, #12]
 8006900:	685b      	ldr	r3, [r3, #4]
 8006902:	2b00      	cmp	r3, #0
 8006904:	d002      	beq.n	800690c <HAL_SPI_Transmit+0x19a>
 8006906:	8afb      	ldrh	r3, [r7, #22]
 8006908:	2b01      	cmp	r3, #1
 800690a:	d174      	bne.n	80069f6 <HAL_SPI_Transmit+0x284>
 800690c:	68fb      	ldr	r3, [r7, #12]
 800690e:	8fdb      	ldrh	r3, [r3, #62]	; 0x3e
 8006910:	b29b      	uxth	r3, r3
 8006912:	2b01      	cmp	r3, #1
 8006914:	d912      	bls.n	800693c <HAL_SPI_Transmit+0x1ca>
 8006916:	68fb      	ldr	r3, [r7, #12]
 8006918:	6b9b      	ldr	r3, [r3, #56]	; 0x38
 800691a:	881a      	ldrh	r2, [r3, #0]
 800691c:	68fb      	ldr	r3, [r7, #12]
 800691e:	681b      	ldr	r3, [r3, #0]
 8006920:	60da      	str	r2, [r3, #12]
 8006922:	68fb      	ldr	r3, [r7, #12]
 8006924:	6b9b      	ldr	r3, [r3, #56]	; 0x38
 8006926:	1c9a      	adds	r2, r3, #2
 8006928:	68fb      	ldr	r3, [r7, #12]
 800692a:	639a      	str	r2, [r3, #56]	; 0x38
 800692c:	68fb      	ldr	r3, [r7, #12]
 800692e:	8fdb      	ldrh	r3, [r3, #62]	; 0x3e
 8006930:	b29b      	uxth	r3, r3
 8006932:	3b02      	subs	r3, #2
 8006934:	b29a      	uxth	r2, r3
 8006936:	68fb      	ldr	r3, [r7, #12]
 8006938:	87da      	strh	r2, [r3, #62]	; 0x3e
 800693a:	e05c      	b.n	80069f6 <HAL_SPI_Transmit+0x284>
 800693c:	68fb      	ldr	r3, [r7, #12]
 800693e:	6b9a      	ldr	r2, [r3, #56]	; 0x38
 8006940:	68fb      	ldr	r3, [r7, #12]
 8006942:	681b      	ldr	r3, [r3, #0]
 8006944:	330c      	adds	r3, #12
 8006946:	7812      	ldrb	r2, [r2, #0]
 8006948:	701a      	strb	r2, [r3, #0]
 800694a:	68fb      	ldr	r3, [r7, #12]
 800694c:	6b9b      	ldr	r3, [r3, #56]	; 0x38
 800694e:	1c5a      	adds	r2, r3, #1
 8006950:	68fb      	ldr	r3, [r7, #12]
 8006952:	639a      	str	r2, [r3, #56]	; 0x38
 8006954:	68fb      	ldr	r3, [r7, #12]
 8006956:	8fdb      	ldrh	r3, [r3, #62]	; 0x3e
 8006958:	b29b      	uxth	r3, r3
 800695a:	3b01      	subs	r3, #1
 800695c:	b29a      	uxth	r2, r3
 800695e:	68fb      	ldr	r3, [r7, #12]
 8006960:	87da      	strh	r2, [r3, #62]	; 0x3e
 8006962:	e048      	b.n	80069f6 <HAL_SPI_Transmit+0x284>
 8006964:	68fb      	ldr	r3, [r7, #12]
 8006966:	681b      	ldr	r3, [r3, #0]
 8006968:	689b      	ldr	r3, [r3, #8]
 800696a:	f003 0302 	and.w	r3, r3, #2
 800696e:	2b02      	cmp	r3, #2
 8006970:	d12b      	bne.n	80069ca <HAL_SPI_Transmit+0x258>
 8006972:	68fb      	ldr	r3, [r7, #12]
 8006974:	8fdb      	ldrh	r3, [r3, #62]	; 0x3e
 8006976:	b29b      	uxth	r3, r3
 8006978:	2b01      	cmp	r3, #1
 800697a:	d912      	bls.n	80069a2 <HAL_SPI_Transmit+0x230>
 800697c:	68fb      	ldr	r3, [r7, #12]
 800697e:	6b9b      	ldr	r3, [r3, #56]	; 0x38
 8006980:	881a      	ldrh	r2, [r3, #0]
 8006982:	68fb      	ldr	r3, [r7, #12]
 8006984:	681b      	ldr	r3, [r3, #0]
 8006986:	60da      	str	r2, [r3, #12]
 8006988:	68fb      	ldr	r3, [r7, #12]
 800698a:	6b9b      	ldr	r3, [r3, #56]	; 0x38
 800698c:	1c9a      	adds	r2, r3, #2
 800698e:	68fb      	ldr	r3, [r7, #12]
 8006990:	639a      	str	r2, [r3, #56]	; 0x38
 8006992:	68fb      	ldr	r3, [r7, #12]
 8006994:	8fdb      	ldrh	r3, [r3, #62]	; 0x3e
 8006996:	b29b      	uxth	r3, r3
 8006998:	3b02      	subs	r3, #2
 800699a:	b29a      	uxth	r2, r3
 800699c:	68fb      	ldr	r3, [r7, #12]
 800699e:	87da      	strh	r2, [r3, #62]	; 0x3e
 80069a0:	e029      	b.n	80069f6 <HAL_SPI_Transmit+0x284>
 80069a2:	68fb      	ldr	r3, [r7, #12]
 80069a4:	6b9a      	ldr	r2, [r3, #56]	; 0x38
 80069a6:	68fb      	ldr	r3, [r7, #12]
 80069a8:	681b      	ldr	r3, [r3, #0]
 80069aa:	330c      	adds	r3, #12
 80069ac:	7812      	ldrb	r2, [r2, #0]
 80069ae:	701a      	strb	r2, [r3, #0]
 80069b0:	68fb      	ldr	r3, [r7, #12]
 80069b2:	6b9b      	ldr	r3, [r3, #56]	; 0x38
 80069b4:	1c5a      	adds	r2, r3, #1
 80069b6:	68fb      	ldr	r3, [r7, #12]
 80069b8:	639a      	str	r2, [r3, #56]	; 0x38
 80069ba:	68fb      	ldr	r3, [r7, #12]
 80069bc:	8fdb      	ldrh	r3, [r3, #62]	; 0x3e
 80069be:	b29b      	uxth	r3, r3
 80069c0:	3b01      	subs	r3, #1
 80069c2:	b29a      	uxth	r2, r3
 80069c4:	68fb      	ldr	r3, [r7, #12]
 80069c6:	87da      	strh	r2, [r3, #62]	; 0x3e
 80069c8:	e015      	b.n	80069f6 <HAL_SPI_Transmit+0x284>
 80069ca:	f7fc fb0d 	bl	8002fe8 <HAL_GetTick>
 80069ce:	4602      	mov	r2, r0
 80069d0:	69bb      	ldr	r3, [r7, #24]
 80069d2:	1ad3      	subs	r3, r2, r3
 80069d4:	683a      	ldr	r2, [r7, #0]
 80069d6:	429a      	cmp	r2, r3
 80069d8:	d803      	bhi.n	80069e2 <HAL_SPI_Transmit+0x270>
 80069da:	683b      	ldr	r3, [r7, #0]
 80069dc:	f1b3 3fff 	cmp.w	r3, #4294967295
 80069e0:	d102      	bne.n	80069e8 <HAL_SPI_Transmit+0x276>
 80069e2:	683b      	ldr	r3, [r7, #0]
 80069e4:	2b00      	cmp	r3, #0
 80069e6:	d106      	bne.n	80069f6 <HAL_SPI_Transmit+0x284>
 80069e8:	2303      	movs	r3, #3
 80069ea:	77fb      	strb	r3, [r7, #31]
 80069ec:	68fb      	ldr	r3, [r7, #12]
 80069ee:	2201      	movs	r2, #1
 80069f0:	f883 205d 	strb.w	r2, [r3, #93]	; 0x5d
 80069f4:	e029      	b.n	8006a4a <HAL_SPI_Transmit+0x2d8>
 80069f6:	68fb      	ldr	r3, [r7, #12]
 80069f8:	8fdb      	ldrh	r3, [r3, #62]	; 0x3e
 80069fa:	b29b      	uxth	r3, r3
 80069fc:	2b00      	cmp	r3, #0
 80069fe:	d1b1      	bne.n	8006964 <HAL_SPI_Transmit+0x1f2>
 8006a00:	69ba      	ldr	r2, [r7, #24]
 8006a02:	6839      	ldr	r1, [r7, #0]
 8006a04:	68f8      	ldr	r0, [r7, #12]
 8006a06:	f000 fcf9 	bl	80073fc <SPI_EndRxTxTransaction>
 8006a0a:	4603      	mov	r3, r0
 8006a0c:	2b00      	cmp	r3, #0
 8006a0e:	d002      	beq.n	8006a16 <HAL_SPI_Transmit+0x2a4>
 8006a10:	68fb      	ldr	r3, [r7, #12]
 8006a12:	2220      	movs	r2, #32
 8006a14:	661a      	str	r2, [r3, #96]	; 0x60
 8006a16:	68fb      	ldr	r3, [r7, #12]
 8006a18:	689b      	ldr	r3, [r3, #8]
 8006a1a:	2b00      	cmp	r3, #0
 8006a1c:	d10a      	bne.n	8006a34 <HAL_SPI_Transmit+0x2c2>
 8006a1e:	2300      	movs	r3, #0
 8006a20:	613b      	str	r3, [r7, #16]
 8006a22:	68fb      	ldr	r3, [r7, #12]
 8006a24:	681b      	ldr	r3, [r3, #0]
 8006a26:	68db      	ldr	r3, [r3, #12]
 8006a28:	613b      	str	r3, [r7, #16]
 8006a2a:	68fb      	ldr	r3, [r7, #12]
 8006a2c:	681b      	ldr	r3, [r3, #0]
 8006a2e:	689b      	ldr	r3, [r3, #8]
 8006a30:	613b      	str	r3, [r7, #16]
 8006a32:	693b      	ldr	r3, [r7, #16]
 8006a34:	68fb      	ldr	r3, [r7, #12]
 8006a36:	6e1b      	ldr	r3, [r3, #96]	; 0x60
 8006a38:	2b00      	cmp	r3, #0
 8006a3a:	d002      	beq.n	8006a42 <HAL_SPI_Transmit+0x2d0>
 8006a3c:	2301      	movs	r3, #1
 8006a3e:	77fb      	strb	r3, [r7, #31]
 8006a40:	e003      	b.n	8006a4a <HAL_SPI_Transmit+0x2d8>
 8006a42:	68fb      	ldr	r3, [r7, #12]
 8006a44:	2201      	movs	r2, #1
 8006a46:	f883 205d 	strb.w	r2, [r3, #93]	; 0x5d
 8006a4a:	68fb      	ldr	r3, [r7, #12]
 8006a4c:	2200      	movs	r2, #0
 8006a4e:	f883 205c 	strb.w	r2, [r3, #92]	; 0x5c
 8006a52:	7ffb      	ldrb	r3, [r7, #31]
 8006a54:	4618      	mov	r0, r3
 8006a56:	3720      	adds	r7, #32
 8006a58:	46bd      	mov	sp, r7
 8006a5a:	bd80      	pop	{r7, pc}

08006a5c <HAL_SPI_Receive>:
 8006a5c:	b580      	push	{r7, lr}
 8006a5e:	b088      	sub	sp, #32
 8006a60:	af02      	add	r7, sp, #8
 8006a62:	60f8      	str	r0, [r7, #12]
 8006a64:	60b9      	str	r1, [r7, #8]
 8006a66:	603b      	str	r3, [r7, #0]
 8006a68:	4613      	mov	r3, r2
 8006a6a:	80fb      	strh	r3, [r7, #6]
 8006a6c:	2300      	movs	r3, #0
 8006a6e:	75fb      	strb	r3, [r7, #23]
 8006a70:	68fb      	ldr	r3, [r7, #12]
 8006a72:	f893 305d 	ldrb.w	r3, [r3, #93]	; 0x5d
 8006a76:	b2db      	uxtb	r3, r3
 8006a78:	2b01      	cmp	r3, #1
 8006a7a:	d002      	beq.n	8006a82 <HAL_SPI_Receive+0x26>
 8006a7c:	2302      	movs	r3, #2
 8006a7e:	75fb      	strb	r3, [r7, #23]
 8006a80:	e11a      	b.n	8006cb8 <HAL_SPI_Receive+0x25c>
 8006a82:	68fb      	ldr	r3, [r7, #12]
 8006a84:	685b      	ldr	r3, [r3, #4]
 8006a86:	f5b3 7f82 	cmp.w	r3, #260	; 0x104
 8006a8a:	d112      	bne.n	8006ab2 <HAL_SPI_Receive+0x56>
 8006a8c:	68fb      	ldr	r3, [r7, #12]
 8006a8e:	689b      	ldr	r3, [r3, #8]
 8006a90:	2b00      	cmp	r3, #0
 8006a92:	d10e      	bne.n	8006ab2 <HAL_SPI_Receive+0x56>
 8006a94:	68fb      	ldr	r3, [r7, #12]
 8006a96:	2204      	movs	r2, #4
 8006a98:	f883 205d 	strb.w	r2, [r3, #93]	; 0x5d
 8006a9c:	88fa      	ldrh	r2, [r7, #6]
 8006a9e:	683b      	ldr	r3, [r7, #0]
 8006aa0:	9300      	str	r3, [sp, #0]
 8006aa2:	4613      	mov	r3, r2
 8006aa4:	68ba      	ldr	r2, [r7, #8]
 8006aa6:	68b9      	ldr	r1, [r7, #8]
 8006aa8:	68f8      	ldr	r0, [r7, #12]
 8006aaa:	f000 f90e 	bl	8006cca <HAL_SPI_TransmitReceive>
 8006aae:	4603      	mov	r3, r0
 8006ab0:	e107      	b.n	8006cc2 <HAL_SPI_Receive+0x266>
 8006ab2:	68fb      	ldr	r3, [r7, #12]
 8006ab4:	f893 305c 	ldrb.w	r3, [r3, #92]	; 0x5c
 8006ab8:	2b01      	cmp	r3, #1
 8006aba:	d101      	bne.n	8006ac0 <HAL_SPI_Receive+0x64>
 8006abc:	2302      	movs	r3, #2
 8006abe:	e100      	b.n	8006cc2 <HAL_SPI_Receive+0x266>
 8006ac0:	68fb      	ldr	r3, [r7, #12]
 8006ac2:	2201      	movs	r2, #1
 8006ac4:	f883 205c 	strb.w	r2, [r3, #92]	; 0x5c
 8006ac8:	f7fc fa8e 	bl	8002fe8 <HAL_GetTick>
 8006acc:	6138      	str	r0, [r7, #16]
 8006ace:	68bb      	ldr	r3, [r7, #8]
 8006ad0:	2b00      	cmp	r3, #0
 8006ad2:	d002      	beq.n	8006ada <HAL_SPI_Receive+0x7e>
 8006ad4:	88fb      	ldrh	r3, [r7, #6]
 8006ad6:	2b00      	cmp	r3, #0
 8006ad8:	d102      	bne.n	8006ae0 <HAL_SPI_Receive+0x84>
 8006ada:	2301      	movs	r3, #1
 8006adc:	75fb      	strb	r3, [r7, #23]
 8006ade:	e0eb      	b.n	8006cb8 <HAL_SPI_Receive+0x25c>
 8006ae0:	68fb      	ldr	r3, [r7, #12]
 8006ae2:	2204      	movs	r2, #4
 8006ae4:	f883 205d 	strb.w	r2, [r3, #93]	; 0x5d
 8006ae8:	68fb      	ldr	r3, [r7, #12]
 8006aea:	2200      	movs	r2, #0
 8006aec:	661a      	str	r2, [r3, #96]	; 0x60
 8006aee:	68fb      	ldr	r3, [r7, #12]
 8006af0:	68ba      	ldr	r2, [r7, #8]
 8006af2:	641a      	str	r2, [r3, #64]	; 0x40
 8006af4:	68fb      	ldr	r3, [r7, #12]
 8006af6:	88fa      	ldrh	r2, [r7, #6]
 8006af8:	f8a3 2044 	strh.w	r2, [r3, #68]	; 0x44
 8006afc:	68fb      	ldr	r3, [r7, #12]
 8006afe:	88fa      	ldrh	r2, [r7, #6]
 8006b00:	f8a3 2046 	strh.w	r2, [r3, #70]	; 0x46
 8006b04:	68fb      	ldr	r3, [r7, #12]
 8006b06:	2200      	movs	r2, #0
 8006b08:	639a      	str	r2, [r3, #56]	; 0x38
 8006b0a:	68fb      	ldr	r3, [r7, #12]
 8006b0c:	2200      	movs	r2, #0
 8006b0e:	879a      	strh	r2, [r3, #60]	; 0x3c
 8006b10:	68fb      	ldr	r3, [r7, #12]
 8006b12:	2200      	movs	r2, #0
 8006b14:	87da      	strh	r2, [r3, #62]	; 0x3e
 8006b16:	68fb      	ldr	r3, [r7, #12]
 8006b18:	2200      	movs	r2, #0
 8006b1a:	64da      	str	r2, [r3, #76]	; 0x4c
 8006b1c:	68fb      	ldr	r3, [r7, #12]
 8006b1e:	2200      	movs	r2, #0
 8006b20:	651a      	str	r2, [r3, #80]	; 0x50
 8006b22:	68fb      	ldr	r3, [r7, #12]
 8006b24:	68db      	ldr	r3, [r3, #12]
 8006b26:	f5b3 6fe0 	cmp.w	r3, #1792	; 0x700
 8006b2a:	d908      	bls.n	8006b3e <HAL_SPI_Receive+0xe2>
 8006b2c:	68fb      	ldr	r3, [r7, #12]
 8006b2e:	681b      	ldr	r3, [r3, #0]
 8006b30:	685a      	ldr	r2, [r3, #4]
 8006b32:	68fb      	ldr	r3, [r7, #12]
 8006b34:	681b      	ldr	r3, [r3, #0]
 8006b36:	f422 5280 	bic.w	r2, r2, #4096	; 0x1000
 8006b3a:	605a      	str	r2, [r3, #4]
 8006b3c:	e007      	b.n	8006b4e <HAL_SPI_Receive+0xf2>
 8006b3e:	68fb      	ldr	r3, [r7, #12]
 8006b40:	681b      	ldr	r3, [r3, #0]
 8006b42:	685a      	ldr	r2, [r3, #4]
 8006b44:	68fb      	ldr	r3, [r7, #12]
 8006b46:	681b      	ldr	r3, [r3, #0]
 8006b48:	f442 5280 	orr.w	r2, r2, #4096	; 0x1000
 8006b4c:	605a      	str	r2, [r3, #4]
 8006b4e:	68fb      	ldr	r3, [r7, #12]
 8006b50:	689b      	ldr	r3, [r3, #8]
 8006b52:	f5b3 4f00 	cmp.w	r3, #32768	; 0x8000
 8006b56:	d10f      	bne.n	8006b78 <HAL_SPI_Receive+0x11c>
 8006b58:	68fb      	ldr	r3, [r7, #12]
 8006b5a:	681b      	ldr	r3, [r3, #0]
 8006b5c:	681a      	ldr	r2, [r3, #0]
 8006b5e:	68fb      	ldr	r3, [r7, #12]
 8006b60:	681b      	ldr	r3, [r3, #0]
 8006b62:	f022 0240 	bic.w	r2, r2, #64	; 0x40
 8006b66:	601a      	str	r2, [r3, #0]
 8006b68:	68fb      	ldr	r3, [r7, #12]
 8006b6a:	681b      	ldr	r3, [r3, #0]
 8006b6c:	681a      	ldr	r2, [r3, #0]
 8006b6e:	68fb      	ldr	r3, [r7, #12]
 8006b70:	681b      	ldr	r3, [r3, #0]
 8006b72:	f422 4280 	bic.w	r2, r2, #16384	; 0x4000
 8006b76:	601a      	str	r2, [r3, #0]
 8006b78:	68fb      	ldr	r3, [r7, #12]
 8006b7a:	681b      	ldr	r3, [r3, #0]
 8006b7c:	681b      	ldr	r3, [r3, #0]
 8006b7e:	f003 0340 	and.w	r3, r3, #64	; 0x40
 8006b82:	2b40      	cmp	r3, #64	; 0x40
 8006b84:	d007      	beq.n	8006b96 <HAL_SPI_Receive+0x13a>
 8006b86:	68fb      	ldr	r3, [r7, #12]
 8006b88:	681b      	ldr	r3, [r3, #0]
 8006b8a:	681a      	ldr	r2, [r3, #0]
 8006b8c:	68fb      	ldr	r3, [r7, #12]
 8006b8e:	681b      	ldr	r3, [r3, #0]
 8006b90:	f042 0240 	orr.w	r2, r2, #64	; 0x40
 8006b94:	601a      	str	r2, [r3, #0]
 8006b96:	68fb      	ldr	r3, [r7, #12]
 8006b98:	68db      	ldr	r3, [r3, #12]
 8006b9a:	f5b3 6fe0 	cmp.w	r3, #1792	; 0x700
 8006b9e:	d86f      	bhi.n	8006c80 <HAL_SPI_Receive+0x224>
 8006ba0:	e034      	b.n	8006c0c <HAL_SPI_Receive+0x1b0>
 8006ba2:	68fb      	ldr	r3, [r7, #12]
 8006ba4:	681b      	ldr	r3, [r3, #0]
 8006ba6:	689b      	ldr	r3, [r3, #8]
 8006ba8:	f003 0301 	and.w	r3, r3, #1
 8006bac:	2b01      	cmp	r3, #1
 8006bae:	d117      	bne.n	8006be0 <HAL_SPI_Receive+0x184>
 8006bb0:	68fb      	ldr	r3, [r7, #12]
 8006bb2:	681b      	ldr	r3, [r3, #0]
 8006bb4:	f103 020c 	add.w	r2, r3, #12
 8006bb8:	68fb      	ldr	r3, [r7, #12]
 8006bba:	6c1b      	ldr	r3, [r3, #64]	; 0x40
 8006bbc:	7812      	ldrb	r2, [r2, #0]
 8006bbe:	b2d2      	uxtb	r2, r2
 8006bc0:	701a      	strb	r2, [r3, #0]
 8006bc2:	68fb      	ldr	r3, [r7, #12]
 8006bc4:	6c1b      	ldr	r3, [r3, #64]	; 0x40
 8006bc6:	1c5a      	adds	r2, r3, #1
 8006bc8:	68fb      	ldr	r3, [r7, #12]
 8006bca:	641a      	str	r2, [r3, #64]	; 0x40
 8006bcc:	68fb      	ldr	r3, [r7, #12]
 8006bce:	f8b3 3046 	ldrh.w	r3, [r3, #70]	; 0x46
 8006bd2:	b29b      	uxth	r3, r3
 8006bd4:	3b01      	subs	r3, #1
 8006bd6:	b29a      	uxth	r2, r3
 8006bd8:	68fb      	ldr	r3, [r7, #12]
 8006bda:	f8a3 2046 	strh.w	r2, [r3, #70]	; 0x46
 8006bde:	e015      	b.n	8006c0c <HAL_SPI_Receive+0x1b0>
 8006be0:	f7fc fa02 	bl	8002fe8 <HAL_GetTick>
 8006be4:	4602      	mov	r2, r0
 8006be6:	693b      	ldr	r3, [r7, #16]
 8006be8:	1ad3      	subs	r3, r2, r3
 8006bea:	683a      	ldr	r2, [r7, #0]
 8006bec:	429a      	cmp	r2, r3
 8006bee:	d803      	bhi.n	8006bf8 <HAL_SPI_Receive+0x19c>
 8006bf0:	683b      	ldr	r3, [r7, #0]
 8006bf2:	f1b3 3fff 	cmp.w	r3, #4294967295
 8006bf6:	d102      	bne.n	8006bfe <HAL_SPI_Receive+0x1a2>
 8006bf8:	683b      	ldr	r3, [r7, #0]
 8006bfa:	2b00      	cmp	r3, #0
 8006bfc:	d106      	bne.n	8006c0c <HAL_SPI_Receive+0x1b0>
 8006bfe:	2303      	movs	r3, #3
 8006c00:	75fb      	strb	r3, [r7, #23]
 8006c02:	68fb      	ldr	r3, [r7, #12]
 8006c04:	2201      	movs	r2, #1
 8006c06:	f883 205d 	strb.w	r2, [r3, #93]	; 0x5d
 8006c0a:	e055      	b.n	8006cb8 <HAL_SPI_Receive+0x25c>
 8006c0c:	68fb      	ldr	r3, [r7, #12]
 8006c0e:	f8b3 3046 	ldrh.w	r3, [r3, #70]	; 0x46
 8006c12:	b29b      	uxth	r3, r3
 8006c14:	2b00      	cmp	r3, #0
 8006c16:	d1c4      	bne.n	8006ba2 <HAL_SPI_Receive+0x146>
 8006c18:	e038      	b.n	8006c8c <HAL_SPI_Receive+0x230>
 8006c1a:	68fb      	ldr	r3, [r7, #12]
 8006c1c:	681b      	ldr	r3, [r3, #0]
 8006c1e:	689b      	ldr	r3, [r3, #8]
 8006c20:	f003 0301 	and.w	r3, r3, #1
 8006c24:	2b01      	cmp	r3, #1
 8006c26:	d115      	bne.n	8006c54 <HAL_SPI_Receive+0x1f8>
 8006c28:	68fb      	ldr	r3, [r7, #12]
 8006c2a:	681b      	ldr	r3, [r3, #0]
 8006c2c:	68da      	ldr	r2, [r3, #12]
 8006c2e:	68fb      	ldr	r3, [r7, #12]
 8006c30:	6c1b      	ldr	r3, [r3, #64]	; 0x40
 8006c32:	b292      	uxth	r2, r2
 8006c34:	801a      	strh	r2, [r3, #0]
 8006c36:	68fb      	ldr	r3, [r7, #12]
 8006c38:	6c1b      	ldr	r3, [r3, #64]	; 0x40
 8006c3a:	1c9a      	adds	r2, r3, #2
 8006c3c:	68fb      	ldr	r3, [r7, #12]
 8006c3e:	641a      	str	r2, [r3, #64]	; 0x40
 8006c40:	68fb      	ldr	r3, [r7, #12]
 8006c42:	f8b3 3046 	ldrh.w	r3, [r3, #70]	; 0x46
 8006c46:	b29b      	uxth	r3, r3
 8006c48:	3b01      	subs	r3, #1
 8006c4a:	b29a      	uxth	r2, r3
 8006c4c:	68fb      	ldr	r3, [r7, #12]
 8006c4e:	f8a3 2046 	strh.w	r2, [r3, #70]	; 0x46
 8006c52:	e015      	b.n	8006c80 <HAL_SPI_Receive+0x224>
 8006c54:	f7fc f9c8 	bl	8002fe8 <HAL_GetTick>
 8006c58:	4602      	mov	r2, r0
 8006c5a:	693b      	ldr	r3, [r7, #16]
 8006c5c:	1ad3      	subs	r3, r2, r3
 8006c5e:	683a      	ldr	r2, [r7, #0]
 8006c60:	429a      	cmp	r2, r3
 8006c62:	d803      	bhi.n	8006c6c <HAL_SPI_Receive+0x210>
 8006c64:	683b      	ldr	r3, [r7, #0]
 8006c66:	f1b3 3fff 	cmp.w	r3, #4294967295
 8006c6a:	d102      	bne.n	8006c72 <HAL_SPI_Receive+0x216>
 8006c6c:	683b      	ldr	r3, [r7, #0]
 8006c6e:	2b00      	cmp	r3, #0
 8006c70:	d106      	bne.n	8006c80 <HAL_SPI_Receive+0x224>
 8006c72:	2303      	movs	r3, #3
 8006c74:	75fb      	strb	r3, [r7, #23]
 8006c76:	68fb      	ldr	r3, [r7, #12]
 8006c78:	2201      	movs	r2, #1
 8006c7a:	f883 205d 	strb.w	r2, [r3, #93]	; 0x5d
 8006c7e:	e01b      	b.n	8006cb8 <HAL_SPI_Receive+0x25c>
 8006c80:	68fb      	ldr	r3, [r7, #12]
 8006c82:	f8b3 3046 	ldrh.w	r3, [r3, #70]	; 0x46
 8006c86:	b29b      	uxth	r3, r3
 8006c88:	2b00      	cmp	r3, #0
 8006c8a:	d1c6      	bne.n	8006c1a <HAL_SPI_Receive+0x1be>
 8006c8c:	693a      	ldr	r2, [r7, #16]
 8006c8e:	6839      	ldr	r1, [r7, #0]
 8006c90:	68f8      	ldr	r0, [r7, #12]
 8006c92:	f000 fb5b 	bl	800734c <SPI_EndRxTransaction>
 8006c96:	4603      	mov	r3, r0
 8006c98:	2b00      	cmp	r3, #0
 8006c9a:	d002      	beq.n	8006ca2 <HAL_SPI_Receive+0x246>
 8006c9c:	68fb      	ldr	r3, [r7, #12]
 8006c9e:	2220      	movs	r2, #32
 8006ca0:	661a      	str	r2, [r3, #96]	; 0x60
 8006ca2:	68fb      	ldr	r3, [r7, #12]
 8006ca4:	6e1b      	ldr	r3, [r3, #96]	; 0x60
 8006ca6:	2b00      	cmp	r3, #0
 8006ca8:	d002      	beq.n	8006cb0 <HAL_SPI_Receive+0x254>
 8006caa:	2301      	movs	r3, #1
 8006cac:	75fb      	strb	r3, [r7, #23]
 8006cae:	e003      	b.n	8006cb8 <HAL_SPI_Receive+0x25c>
 8006cb0:	68fb      	ldr	r3, [r7, #12]
 8006cb2:	2201      	movs	r2, #1
 8006cb4:	f883 205d 	strb.w	r2, [r3, #93]	; 0x5d
 8006cb8:	68fb      	ldr	r3, [r7, #12]
 8006cba:	2200      	movs	r2, #0
 8006cbc:	f883 205c 	strb.w	r2, [r3, #92]	; 0x5c
 8006cc0:	7dfb      	ldrb	r3, [r7, #23]
 8006cc2:	4618      	mov	r0, r3
 8006cc4:	3718      	adds	r7, #24
 8006cc6:	46bd      	mov	sp, r7
 8006cc8:	bd80      	pop	{r7, pc}

08006cca <HAL_SPI_TransmitReceive>:
 8006cca:	b580      	push	{r7, lr}
 8006ccc:	b08a      	sub	sp, #40	; 0x28
 8006cce:	af00      	add	r7, sp, #0
 8006cd0:	60f8      	str	r0, [r7, #12]
 8006cd2:	60b9      	str	r1, [r7, #8]
 8006cd4:	607a      	str	r2, [r7, #4]
 8006cd6:	807b      	strh	r3, [r7, #2]
 8006cd8:	2301      	movs	r3, #1
 8006cda:	627b      	str	r3, [r7, #36]	; 0x24
 8006cdc:	2300      	movs	r3, #0
 8006cde:	f887 3023 	strb.w	r3, [r7, #35]	; 0x23
 8006ce2:	68fb      	ldr	r3, [r7, #12]
 8006ce4:	f893 305c 	ldrb.w	r3, [r3, #92]	; 0x5c
 8006ce8:	2b01      	cmp	r3, #1
 8006cea:	d101      	bne.n	8006cf0 <HAL_SPI_TransmitReceive+0x26>
 8006cec:	2302      	movs	r3, #2
 8006cee:	e20a      	b.n	8007106 <HAL_SPI_TransmitReceive+0x43c>
 8006cf0:	68fb      	ldr	r3, [r7, #12]
 8006cf2:	2201      	movs	r2, #1
 8006cf4:	f883 205c 	strb.w	r2, [r3, #92]	; 0x5c
 8006cf8:	f7fc f976 	bl	8002fe8 <HAL_GetTick>
 8006cfc:	61f8      	str	r0, [r7, #28]
 8006cfe:	68fb      	ldr	r3, [r7, #12]
 8006d00:	f893 305d 	ldrb.w	r3, [r3, #93]	; 0x5d
 8006d04:	76fb      	strb	r3, [r7, #27]
 8006d06:	68fb      	ldr	r3, [r7, #12]
 8006d08:	685b      	ldr	r3, [r3, #4]
 8006d0a:	617b      	str	r3, [r7, #20]
 8006d0c:	887b      	ldrh	r3, [r7, #2]
 8006d0e:	827b      	strh	r3, [r7, #18]
 8006d10:	887b      	ldrh	r3, [r7, #2]
 8006d12:	823b      	strh	r3, [r7, #16]
 8006d14:	7efb      	ldrb	r3, [r7, #27]
 8006d16:	2b01      	cmp	r3, #1
 8006d18:	d00e      	beq.n	8006d38 <HAL_SPI_TransmitReceive+0x6e>
 8006d1a:	697b      	ldr	r3, [r7, #20]
 8006d1c:	f5b3 7f82 	cmp.w	r3, #260	; 0x104
 8006d20:	d106      	bne.n	8006d30 <HAL_SPI_TransmitReceive+0x66>
 8006d22:	68fb      	ldr	r3, [r7, #12]
 8006d24:	689b      	ldr	r3, [r3, #8]
 8006d26:	2b00      	cmp	r3, #0
 8006d28:	d102      	bne.n	8006d30 <HAL_SPI_TransmitReceive+0x66>
 8006d2a:	7efb      	ldrb	r3, [r7, #27]
 8006d2c:	2b04      	cmp	r3, #4
 8006d2e:	d003      	beq.n	8006d38 <HAL_SPI_TransmitReceive+0x6e>
 8006d30:	2302      	movs	r3, #2
 8006d32:	f887 3023 	strb.w	r3, [r7, #35]	; 0x23
 8006d36:	e1e0      	b.n	80070fa <HAL_SPI_TransmitReceive+0x430>
 8006d38:	68bb      	ldr	r3, [r7, #8]
 8006d3a:	2b00      	cmp	r3, #0
 8006d3c:	d005      	beq.n	8006d4a <HAL_SPI_TransmitReceive+0x80>
 8006d3e:	687b      	ldr	r3, [r7, #4]
 8006d40:	2b00      	cmp	r3, #0
 8006d42:	d002      	beq.n	8006d4a <HAL_SPI_TransmitReceive+0x80>
 8006d44:	887b      	ldrh	r3, [r7, #2]
 8006d46:	2b00      	cmp	r3, #0
 8006d48:	d103      	bne.n	8006d52 <HAL_SPI_TransmitReceive+0x88>
 8006d4a:	2301      	movs	r3, #1
 8006d4c:	f887 3023 	strb.w	r3, [r7, #35]	; 0x23
 8006d50:	e1d3      	b.n	80070fa <HAL_SPI_TransmitReceive+0x430>
 8006d52:	68fb      	ldr	r3, [r7, #12]
 8006d54:	f893 305d 	ldrb.w	r3, [r3, #93]	; 0x5d
 8006d58:	b2db      	uxtb	r3, r3
 8006d5a:	2b04      	cmp	r3, #4
 8006d5c:	d003      	beq.n	8006d66 <HAL_SPI_TransmitReceive+0x9c>
 8006d5e:	68fb      	ldr	r3, [r7, #12]
 8006d60:	2205      	movs	r2, #5
 8006d62:	f883 205d 	strb.w	r2, [r3, #93]	; 0x5d
 8006d66:	68fb      	ldr	r3, [r7, #12]
 8006d68:	2200      	movs	r2, #0
 8006d6a:	661a      	str	r2, [r3, #96]	; 0x60
 8006d6c:	68fb      	ldr	r3, [r7, #12]
 8006d6e:	687a      	ldr	r2, [r7, #4]
 8006d70:	641a      	str	r2, [r3, #64]	; 0x40
 8006d72:	68fb      	ldr	r3, [r7, #12]
 8006d74:	887a      	ldrh	r2, [r7, #2]
 8006d76:	f8a3 2046 	strh.w	r2, [r3, #70]	; 0x46
 8006d7a:	68fb      	ldr	r3, [r7, #12]
 8006d7c:	887a      	ldrh	r2, [r7, #2]
 8006d7e:	f8a3 2044 	strh.w	r2, [r3, #68]	; 0x44
 8006d82:	68fb      	ldr	r3, [r7, #12]
 8006d84:	68ba      	ldr	r2, [r7, #8]
 8006d86:	639a      	str	r2, [r3, #56]	; 0x38
 8006d88:	68fb      	ldr	r3, [r7, #12]
 8006d8a:	887a      	ldrh	r2, [r7, #2]
 8006d8c:	87da      	strh	r2, [r3, #62]	; 0x3e
 8006d8e:	68fb      	ldr	r3, [r7, #12]
 8006d90:	887a      	ldrh	r2, [r7, #2]
 8006d92:	879a      	strh	r2, [r3, #60]	; 0x3c
 8006d94:	68fb      	ldr	r3, [r7, #12]
 8006d96:	2200      	movs	r2, #0
 8006d98:	64da      	str	r2, [r3, #76]	; 0x4c
 8006d9a:	68fb      	ldr	r3, [r7, #12]
 8006d9c:	2200      	movs	r2, #0
 8006d9e:	651a      	str	r2, [r3, #80]	; 0x50
 8006da0:	68fb      	ldr	r3, [r7, #12]
 8006da2:	68db      	ldr	r3, [r3, #12]
 8006da4:	f5b3 6fe0 	cmp.w	r3, #1792	; 0x700
 8006da8:	d802      	bhi.n	8006db0 <HAL_SPI_TransmitReceive+0xe6>
 8006daa:	8a3b      	ldrh	r3, [r7, #16]
 8006dac:	2b01      	cmp	r3, #1
 8006dae:	d908      	bls.n	8006dc2 <HAL_SPI_TransmitReceive+0xf8>
 8006db0:	68fb      	ldr	r3, [r7, #12]
 8006db2:	681b      	ldr	r3, [r3, #0]
 8006db4:	685a      	ldr	r2, [r3, #4]
 8006db6:	68fb      	ldr	r3, [r7, #12]
 8006db8:	681b      	ldr	r3, [r3, #0]
 8006dba:	f422 5280 	bic.w	r2, r2, #4096	; 0x1000
 8006dbe:	605a      	str	r2, [r3, #4]
 8006dc0:	e007      	b.n	8006dd2 <HAL_SPI_TransmitReceive+0x108>
 8006dc2:	68fb      	ldr	r3, [r7, #12]
 8006dc4:	681b      	ldr	r3, [r3, #0]
 8006dc6:	685a      	ldr	r2, [r3, #4]
 8006dc8:	68fb      	ldr	r3, [r7, #12]
 8006dca:	681b      	ldr	r3, [r3, #0]
 8006dcc:	f442 5280 	orr.w	r2, r2, #4096	; 0x1000
 8006dd0:	605a      	str	r2, [r3, #4]
 8006dd2:	68fb      	ldr	r3, [r7, #12]
 8006dd4:	681b      	ldr	r3, [r3, #0]
 8006dd6:	681b      	ldr	r3, [r3, #0]
 8006dd8:	f003 0340 	and.w	r3, r3, #64	; 0x40
 8006ddc:	2b40      	cmp	r3, #64	; 0x40
 8006dde:	d007      	beq.n	8006df0 <HAL_SPI_TransmitReceive+0x126>
 8006de0:	68fb      	ldr	r3, [r7, #12]
 8006de2:	681b      	ldr	r3, [r3, #0]
 8006de4:	681a      	ldr	r2, [r3, #0]
 8006de6:	68fb      	ldr	r3, [r7, #12]
 8006de8:	681b      	ldr	r3, [r3, #0]
 8006dea:	f042 0240 	orr.w	r2, r2, #64	; 0x40
 8006dee:	601a      	str	r2, [r3, #0]
 8006df0:	68fb      	ldr	r3, [r7, #12]
 8006df2:	68db      	ldr	r3, [r3, #12]
 8006df4:	f5b3 6fe0 	cmp.w	r3, #1792	; 0x700
 8006df8:	f240 8081 	bls.w	8006efe <HAL_SPI_TransmitReceive+0x234>
 8006dfc:	68fb      	ldr	r3, [r7, #12]
 8006dfe:	685b      	ldr	r3, [r3, #4]
 8006e00:	2b00      	cmp	r3, #0
 8006e02:	d002      	beq.n	8006e0a <HAL_SPI_TransmitReceive+0x140>
 8006e04:	8a7b      	ldrh	r3, [r7, #18]
 8006e06:	2b01      	cmp	r3, #1
 8006e08:	d16d      	bne.n	8006ee6 <HAL_SPI_TransmitReceive+0x21c>
 8006e0a:	68fb      	ldr	r3, [r7, #12]
 8006e0c:	6b9b      	ldr	r3, [r3, #56]	; 0x38
 8006e0e:	881a      	ldrh	r2, [r3, #0]
 8006e10:	68fb      	ldr	r3, [r7, #12]
 8006e12:	681b      	ldr	r3, [r3, #0]
 8006e14:	60da      	str	r2, [r3, #12]
 8006e16:	68fb      	ldr	r3, [r7, #12]
 8006e18:	6b9b      	ldr	r3, [r3, #56]	; 0x38
 8006e1a:	1c9a      	adds	r2, r3, #2
 8006e1c:	68fb      	ldr	r3, [r7, #12]
 8006e1e:	639a      	str	r2, [r3, #56]	; 0x38
 8006e20:	68fb      	ldr	r3, [r7, #12]
 8006e22:	8fdb      	ldrh	r3, [r3, #62]	; 0x3e
 8006e24:	b29b      	uxth	r3, r3
 8006e26:	3b01      	subs	r3, #1
 8006e28:	b29a      	uxth	r2, r3
 8006e2a:	68fb      	ldr	r3, [r7, #12]
 8006e2c:	87da      	strh	r2, [r3, #62]	; 0x3e
 8006e2e:	e05a      	b.n	8006ee6 <HAL_SPI_TransmitReceive+0x21c>
 8006e30:	68fb      	ldr	r3, [r7, #12]
 8006e32:	681b      	ldr	r3, [r3, #0]
 8006e34:	689b      	ldr	r3, [r3, #8]
 8006e36:	f003 0302 	and.w	r3, r3, #2
 8006e3a:	2b02      	cmp	r3, #2
 8006e3c:	d11b      	bne.n	8006e76 <HAL_SPI_TransmitReceive+0x1ac>
 8006e3e:	68fb      	ldr	r3, [r7, #12]
 8006e40:	8fdb      	ldrh	r3, [r3, #62]	; 0x3e
 8006e42:	b29b      	uxth	r3, r3
 8006e44:	2b00      	cmp	r3, #0
 8006e46:	d016      	beq.n	8006e76 <HAL_SPI_TransmitReceive+0x1ac>
 8006e48:	6a7b      	ldr	r3, [r7, #36]	; 0x24
 8006e4a:	2b01      	cmp	r3, #1
 8006e4c:	d113      	bne.n	8006e76 <HAL_SPI_TransmitReceive+0x1ac>
 8006e4e:	68fb      	ldr	r3, [r7, #12]
 8006e50:	6b9b      	ldr	r3, [r3, #56]	; 0x38
 8006e52:	881a      	ldrh	r2, [r3, #0]
 8006e54:	68fb      	ldr	r3, [r7, #12]
 8006e56:	681b      	ldr	r3, [r3, #0]
 8006e58:	60da      	str	r2, [r3, #12]
 8006e5a:	68fb      	ldr	r3, [r7, #12]
 8006e5c:	6b9b      	ldr	r3, [r3, #56]	; 0x38
 8006e5e:	1c9a      	adds	r2, r3, #2
 8006e60:	68fb      	ldr	r3, [r7, #12]
 8006e62:	639a      	str	r2, [r3, #56]	; 0x38
 8006e64:	68fb      	ldr	r3, [r7, #12]
 8006e66:	8fdb      	ldrh	r3, [r3, #62]	; 0x3e
 8006e68:	b29b      	uxth	r3, r3
 8006e6a:	3b01      	subs	r3, #1
 8006e6c:	b29a      	uxth	r2, r3
 8006e6e:	68fb      	ldr	r3, [r7, #12]
 8006e70:	87da      	strh	r2, [r3, #62]	; 0x3e
 8006e72:	2300      	movs	r3, #0
 8006e74:	627b      	str	r3, [r7, #36]	; 0x24
 8006e76:	68fb      	ldr	r3, [r7, #12]
 8006e78:	681b      	ldr	r3, [r3, #0]
 8006e7a:	689b      	ldr	r3, [r3, #8]
 8006e7c:	f003 0301 	and.w	r3, r3, #1
 8006e80:	2b01      	cmp	r3, #1
 8006e82:	d11c      	bne.n	8006ebe <HAL_SPI_TransmitReceive+0x1f4>
 8006e84:	68fb      	ldr	r3, [r7, #12]
 8006e86:	f8b3 3046 	ldrh.w	r3, [r3, #70]	; 0x46
 8006e8a:	b29b      	uxth	r3, r3
 8006e8c:	2b00      	cmp	r3, #0
 8006e8e:	d016      	beq.n	8006ebe <HAL_SPI_TransmitReceive+0x1f4>
 8006e90:	68fb      	ldr	r3, [r7, #12]
 8006e92:	681b      	ldr	r3, [r3, #0]
 8006e94:	68da      	ldr	r2, [r3, #12]
 8006e96:	68fb      	ldr	r3, [r7, #12]
 8006e98:	6c1b      	ldr	r3, [r3, #64]	; 0x40
 8006e9a:	b292      	uxth	r2, r2
 8006e9c:	801a      	strh	r2, [r3, #0]
 8006e9e:	68fb      	ldr	r3, [r7, #12]
 8006ea0:	6c1b      	ldr	r3, [r3, #64]	; 0x40
 8006ea2:	1c9a      	adds	r2, r3, #2
 8006ea4:	68fb      	ldr	r3, [r7, #12]
 8006ea6:	641a      	str	r2, [r3, #64]	; 0x40
 8006ea8:	68fb      	ldr	r3, [r7, #12]
 8006eaa:	f8b3 3046 	ldrh.w	r3, [r3, #70]	; 0x46
 8006eae:	b29b      	uxth	r3, r3
 8006eb0:	3b01      	subs	r3, #1
 8006eb2:	b29a      	uxth	r2, r3
 8006eb4:	68fb      	ldr	r3, [r7, #12]
 8006eb6:	f8a3 2046 	strh.w	r2, [r3, #70]	; 0x46
 8006eba:	2301      	movs	r3, #1
 8006ebc:	627b      	str	r3, [r7, #36]	; 0x24
 8006ebe:	f7fc f893 	bl	8002fe8 <HAL_GetTick>
 8006ec2:	4602      	mov	r2, r0
 8006ec4:	69fb      	ldr	r3, [r7, #28]
 8006ec6:	1ad3      	subs	r3, r2, r3
 8006ec8:	6b3a      	ldr	r2, [r7, #48]	; 0x30
 8006eca:	429a      	cmp	r2, r3
 8006ecc:	d80b      	bhi.n	8006ee6 <HAL_SPI_TransmitReceive+0x21c>
 8006ece:	6b3b      	ldr	r3, [r7, #48]	; 0x30
 8006ed0:	f1b3 3fff 	cmp.w	r3, #4294967295
 8006ed4:	d007      	beq.n	8006ee6 <HAL_SPI_TransmitReceive+0x21c>
 8006ed6:	2303      	movs	r3, #3
 8006ed8:	f887 3023 	strb.w	r3, [r7, #35]	; 0x23
 8006edc:	68fb      	ldr	r3, [r7, #12]
 8006ede:	2201      	movs	r2, #1
 8006ee0:	f883 205d 	strb.w	r2, [r3, #93]	; 0x5d
 8006ee4:	e109      	b.n	80070fa <HAL_SPI_TransmitReceive+0x430>
 8006ee6:	68fb      	ldr	r3, [r7, #12]
 8006ee8:	8fdb      	ldrh	r3, [r3, #62]	; 0x3e
 8006eea:	b29b      	uxth	r3, r3
 8006eec:	2b00      	cmp	r3, #0
 8006eee:	d19f      	bne.n	8006e30 <HAL_SPI_TransmitReceive+0x166>
 8006ef0:	68fb      	ldr	r3, [r7, #12]
 8006ef2:	f8b3 3046 	ldrh.w	r3, [r3, #70]	; 0x46
 8006ef6:	b29b      	uxth	r3, r3
 8006ef8:	2b00      	cmp	r3, #0
 8006efa:	d199      	bne.n	8006e30 <HAL_SPI_TransmitReceive+0x166>
 8006efc:	e0e3      	b.n	80070c6 <HAL_SPI_TransmitReceive+0x3fc>
 8006efe:	68fb      	ldr	r3, [r7, #12]
 8006f00:	685b      	ldr	r3, [r3, #4]
 8006f02:	2b00      	cmp	r3, #0
 8006f04:	d003      	beq.n	8006f0e <HAL_SPI_TransmitReceive+0x244>
 8006f06:	8a7b      	ldrh	r3, [r7, #18]
 8006f08:	2b01      	cmp	r3, #1
 8006f0a:	f040 80cf 	bne.w	80070ac <HAL_SPI_TransmitReceive+0x3e2>
 8006f0e:	68fb      	ldr	r3, [r7, #12]
 8006f10:	8fdb      	ldrh	r3, [r3, #62]	; 0x3e
 8006f12:	b29b      	uxth	r3, r3
 8006f14:	2b01      	cmp	r3, #1
 8006f16:	d912      	bls.n	8006f3e <HAL_SPI_TransmitReceive+0x274>
 8006f18:	68fb      	ldr	r3, [r7, #12]
 8006f1a:	6b9b      	ldr	r3, [r3, #56]	; 0x38
 8006f1c:	881a      	ldrh	r2, [r3, #0]
 8006f1e:	68fb      	ldr	r3, [r7, #12]
 8006f20:	681b      	ldr	r3, [r3, #0]
 8006f22:	60da      	str	r2, [r3, #12]
 8006f24:	68fb      	ldr	r3, [r7, #12]
 8006f26:	6b9b      	ldr	r3, [r3, #56]	; 0x38
 8006f28:	1c9a      	adds	r2, r3, #2
 8006f2a:	68fb      	ldr	r3, [r7, #12]
 8006f2c:	639a      	str	r2, [r3, #56]	; 0x38
 8006f2e:	68fb      	ldr	r3, [r7, #12]
 8006f30:	8fdb      	ldrh	r3, [r3, #62]	; 0x3e
 8006f32:	b29b      	uxth	r3, r3
 8006f34:	3b02      	subs	r3, #2
 8006f36:	b29a      	uxth	r2, r3
 8006f38:	68fb      	ldr	r3, [r7, #12]
 8006f3a:	87da      	strh	r2, [r3, #62]	; 0x3e
 8006f3c:	e0b6      	b.n	80070ac <HAL_SPI_TransmitReceive+0x3e2>
 8006f3e:	68fb      	ldr	r3, [r7, #12]
 8006f40:	6b9a      	ldr	r2, [r3, #56]	; 0x38
 8006f42:	68fb      	ldr	r3, [r7, #12]
 8006f44:	681b      	ldr	r3, [r3, #0]
 8006f46:	330c      	adds	r3, #12
 8006f48:	7812      	ldrb	r2, [r2, #0]
 8006f4a:	701a      	strb	r2, [r3, #0]
 8006f4c:	68fb      	ldr	r3, [r7, #12]
 8006f4e:	6b9b      	ldr	r3, [r3, #56]	; 0x38
 8006f50:	1c5a      	adds	r2, r3, #1
 8006f52:	68fb      	ldr	r3, [r7, #12]
 8006f54:	639a      	str	r2, [r3, #56]	; 0x38
 8006f56:	68fb      	ldr	r3, [r7, #12]
 8006f58:	8fdb      	ldrh	r3, [r3, #62]	; 0x3e
 8006f5a:	b29b      	uxth	r3, r3
 8006f5c:	3b01      	subs	r3, #1
 8006f5e:	b29a      	uxth	r2, r3
 8006f60:	68fb      	ldr	r3, [r7, #12]
 8006f62:	87da      	strh	r2, [r3, #62]	; 0x3e
 8006f64:	e0a2      	b.n	80070ac <HAL_SPI_TransmitReceive+0x3e2>
 8006f66:	68fb      	ldr	r3, [r7, #12]
 8006f68:	681b      	ldr	r3, [r3, #0]
 8006f6a:	689b      	ldr	r3, [r3, #8]
 8006f6c:	f003 0302 	and.w	r3, r3, #2
 8006f70:	2b02      	cmp	r3, #2
 8006f72:	d134      	bne.n	8006fde <HAL_SPI_TransmitReceive+0x314>
 8006f74:	68fb      	ldr	r3, [r7, #12]
 8006f76:	8fdb      	ldrh	r3, [r3, #62]	; 0x3e
 8006f78:	b29b      	uxth	r3, r3
 8006f7a:	2b00      	cmp	r3, #0
 8006f7c:	d02f      	beq.n	8006fde <HAL_SPI_TransmitReceive+0x314>
 8006f7e:	6a7b      	ldr	r3, [r7, #36]	; 0x24
 8006f80:	2b01      	cmp	r3, #1
 8006f82:	d12c      	bne.n	8006fde <HAL_SPI_TransmitReceive+0x314>
 8006f84:	68fb      	ldr	r3, [r7, #12]
 8006f86:	8fdb      	ldrh	r3, [r3, #62]	; 0x3e
 8006f88:	b29b      	uxth	r3, r3
 8006f8a:	2b01      	cmp	r3, #1
 8006f8c:	d912      	bls.n	8006fb4 <HAL_SPI_TransmitReceive+0x2ea>
 8006f8e:	68fb      	ldr	r3, [r7, #12]
 8006f90:	6b9b      	ldr	r3, [r3, #56]	; 0x38
 8006f92:	881a      	ldrh	r2, [r3, #0]
 8006f94:	68fb      	ldr	r3, [r7, #12]
 8006f96:	681b      	ldr	r3, [r3, #0]
 8006f98:	60da      	str	r2, [r3, #12]
 8006f9a:	68fb      	ldr	r3, [r7, #12]
 8006f9c:	6b9b      	ldr	r3, [r3, #56]	; 0x38
 8006f9e:	1c9a      	adds	r2, r3, #2
 8006fa0:	68fb      	ldr	r3, [r7, #12]
 8006fa2:	639a      	str	r2, [r3, #56]	; 0x38
 8006fa4:	68fb      	ldr	r3, [r7, #12]
 8006fa6:	8fdb      	ldrh	r3, [r3, #62]	; 0x3e
 8006fa8:	b29b      	uxth	r3, r3
 8006faa:	3b02      	subs	r3, #2
 8006fac:	b29a      	uxth	r2, r3
 8006fae:	68fb      	ldr	r3, [r7, #12]
 8006fb0:	87da      	strh	r2, [r3, #62]	; 0x3e
 8006fb2:	e012      	b.n	8006fda <HAL_SPI_TransmitReceive+0x310>
 8006fb4:	68fb      	ldr	r3, [r7, #12]
 8006fb6:	6b9a      	ldr	r2, [r3, #56]	; 0x38
 8006fb8:	68fb      	ldr	r3, [r7, #12]
 8006fba:	681b      	ldr	r3, [r3, #0]
 8006fbc:	330c      	adds	r3, #12
 8006fbe:	7812      	ldrb	r2, [r2, #0]
 8006fc0:	701a      	strb	r2, [r3, #0]
 8006fc2:	68fb      	ldr	r3, [r7, #12]
 8006fc4:	6b9b      	ldr	r3, [r3, #56]	; 0x38
 8006fc6:	1c5a      	adds	r2, r3, #1
 8006fc8:	68fb      	ldr	r3, [r7, #12]
 8006fca:	639a      	str	r2, [r3, #56]	; 0x38
 8006fcc:	68fb      	ldr	r3, [r7, #12]
 8006fce:	8fdb      	ldrh	r3, [r3, #62]	; 0x3e
 8006fd0:	b29b      	uxth	r3, r3
 8006fd2:	3b01      	subs	r3, #1
 8006fd4:	b29a      	uxth	r2, r3
 8006fd6:	68fb      	ldr	r3, [r7, #12]
 8006fd8:	87da      	strh	r2, [r3, #62]	; 0x3e
 8006fda:	2300      	movs	r3, #0
 8006fdc:	627b      	str	r3, [r7, #36]	; 0x24
 8006fde:	68fb      	ldr	r3, [r7, #12]
 8006fe0:	681b      	ldr	r3, [r3, #0]
 8006fe2:	689b      	ldr	r3, [r3, #8]
 8006fe4:	f003 0301 	and.w	r3, r3, #1
 8006fe8:	2b01      	cmp	r3, #1
 8006fea:	d148      	bne.n	800707e <HAL_SPI_TransmitReceive+0x3b4>
 8006fec:	68fb      	ldr	r3, [r7, #12]
 8006fee:	f8b3 3046 	ldrh.w	r3, [r3, #70]	; 0x46
 8006ff2:	b29b      	uxth	r3, r3
 8006ff4:	2b00      	cmp	r3, #0
 8006ff6:	d042      	beq.n	800707e <HAL_SPI_TransmitReceive+0x3b4>
 8006ff8:	68fb      	ldr	r3, [r7, #12]
 8006ffa:	f8b3 3046 	ldrh.w	r3, [r3, #70]	; 0x46
 8006ffe:	b29b      	uxth	r3, r3
 8007000:	2b01      	cmp	r3, #1
 8007002:	d923      	bls.n	800704c <HAL_SPI_TransmitReceive+0x382>
 8007004:	68fb      	ldr	r3, [r7, #12]
 8007006:	681b      	ldr	r3, [r3, #0]
 8007008:	68da      	ldr	r2, [r3, #12]
 800700a:	68fb      	ldr	r3, [r7, #12]
 800700c:	6c1b      	ldr	r3, [r3, #64]	; 0x40
 800700e:	b292      	uxth	r2, r2
 8007010:	801a      	strh	r2, [r3, #0]
 8007012:	68fb      	ldr	r3, [r7, #12]
 8007014:	6c1b      	ldr	r3, [r3, #64]	; 0x40
 8007016:	1c9a      	adds	r2, r3, #2
 8007018:	68fb      	ldr	r3, [r7, #12]
 800701a:	641a      	str	r2, [r3, #64]	; 0x40
 800701c:	68fb      	ldr	r3, [r7, #12]
 800701e:	f8b3 3046 	ldrh.w	r3, [r3, #70]	; 0x46
 8007022:	b29b      	uxth	r3, r3
 8007024:	3b02      	subs	r3, #2
 8007026:	b29a      	uxth	r2, r3
 8007028:	68fb      	ldr	r3, [r7, #12]
 800702a:	f8a3 2046 	strh.w	r2, [r3, #70]	; 0x46
 800702e:	68fb      	ldr	r3, [r7, #12]
 8007030:	f8b3 3046 	ldrh.w	r3, [r3, #70]	; 0x46
 8007034:	b29b      	uxth	r3, r3
 8007036:	2b01      	cmp	r3, #1
 8007038:	d81f      	bhi.n	800707a <HAL_SPI_TransmitReceive+0x3b0>
 800703a:	68fb      	ldr	r3, [r7, #12]
 800703c:	681b      	ldr	r3, [r3, #0]
 800703e:	685a      	ldr	r2, [r3, #4]
 8007040:	68fb      	ldr	r3, [r7, #12]
 8007042:	681b      	ldr	r3, [r3, #0]
 8007044:	f442 5280 	orr.w	r2, r2, #4096	; 0x1000
 8007048:	605a      	str	r2, [r3, #4]
 800704a:	e016      	b.n	800707a <HAL_SPI_TransmitReceive+0x3b0>
 800704c:	68fb      	ldr	r3, [r7, #12]
 800704e:	681b      	ldr	r3, [r3, #0]
 8007050:	f103 020c 	add.w	r2, r3, #12
 8007054:	68fb      	ldr	r3, [r7, #12]
 8007056:	6c1b      	ldr	r3, [r3, #64]	; 0x40
 8007058:	7812      	ldrb	r2, [r2, #0]
 800705a:	b2d2      	uxtb	r2, r2
 800705c:	701a      	strb	r2, [r3, #0]
 800705e:	68fb      	ldr	r3, [r7, #12]
 8007060:	6c1b      	ldr	r3, [r3, #64]	; 0x40
 8007062:	1c5a      	adds	r2, r3, #1
 8007064:	68fb      	ldr	r3, [r7, #12]
 8007066:	641a      	str	r2, [r3, #64]	; 0x40
 8007068:	68fb      	ldr	r3, [r7, #12]
 800706a:	f8b3 3046 	ldrh.w	r3, [r3, #70]	; 0x46
 800706e:	b29b      	uxth	r3, r3
 8007070:	3b01      	subs	r3, #1
 8007072:	b29a      	uxth	r2, r3
 8007074:	68fb      	ldr	r3, [r7, #12]
 8007076:	f8a3 2046 	strh.w	r2, [r3, #70]	; 0x46
 800707a:	2301      	movs	r3, #1
 800707c:	627b      	str	r3, [r7, #36]	; 0x24
 800707e:	f7fb ffb3 	bl	8002fe8 <HAL_GetTick>
 8007082:	4602      	mov	r2, r0
 8007084:	69fb      	ldr	r3, [r7, #28]
 8007086:	1ad3      	subs	r3, r2, r3
 8007088:	6b3a      	ldr	r2, [r7, #48]	; 0x30
 800708a:	429a      	cmp	r2, r3
 800708c:	d803      	bhi.n	8007096 <HAL_SPI_TransmitReceive+0x3cc>
 800708e:	6b3b      	ldr	r3, [r7, #48]	; 0x30
 8007090:	f1b3 3fff 	cmp.w	r3, #4294967295
 8007094:	d102      	bne.n	800709c <HAL_SPI_TransmitReceive+0x3d2>
 8007096:	6b3b      	ldr	r3, [r7, #48]	; 0x30
 8007098:	2b00      	cmp	r3, #0
 800709a:	d107      	bne.n	80070ac <HAL_SPI_TransmitReceive+0x3e2>
 800709c:	2303      	movs	r3, #3
 800709e:	f887 3023 	strb.w	r3, [r7, #35]	; 0x23
 80070a2:	68fb      	ldr	r3, [r7, #12]
 80070a4:	2201      	movs	r2, #1
 80070a6:	f883 205d 	strb.w	r2, [r3, #93]	; 0x5d
 80070aa:	e026      	b.n	80070fa <HAL_SPI_TransmitReceive+0x430>
 80070ac:	68fb      	ldr	r3, [r7, #12]
 80070ae:	8fdb      	ldrh	r3, [r3, #62]	; 0x3e
 80070b0:	b29b      	uxth	r3, r3
 80070b2:	2b00      	cmp	r3, #0
 80070b4:	f47f af57 	bne.w	8006f66 <HAL_SPI_TransmitReceive+0x29c>
 80070b8:	68fb      	ldr	r3, [r7, #12]
 80070ba:	f8b3 3046 	ldrh.w	r3, [r3, #70]	; 0x46
 80070be:	b29b      	uxth	r3, r3
 80070c0:	2b00      	cmp	r3, #0
 80070c2:	f47f af50 	bne.w	8006f66 <HAL_SPI_TransmitReceive+0x29c>
 80070c6:	69fa      	ldr	r2, [r7, #28]
 80070c8:	6b39      	ldr	r1, [r7, #48]	; 0x30
 80070ca:	68f8      	ldr	r0, [r7, #12]
 80070cc:	f000 f996 	bl	80073fc <SPI_EndRxTxTransaction>
 80070d0:	4603      	mov	r3, r0
 80070d2:	2b00      	cmp	r3, #0
 80070d4:	d005      	beq.n	80070e2 <HAL_SPI_TransmitReceive+0x418>
 80070d6:	2301      	movs	r3, #1
 80070d8:	f887 3023 	strb.w	r3, [r7, #35]	; 0x23
 80070dc:	68fb      	ldr	r3, [r7, #12]
 80070de:	2220      	movs	r2, #32
 80070e0:	661a      	str	r2, [r3, #96]	; 0x60
 80070e2:	68fb      	ldr	r3, [r7, #12]
 80070e4:	6e1b      	ldr	r3, [r3, #96]	; 0x60
 80070e6:	2b00      	cmp	r3, #0
 80070e8:	d003      	beq.n	80070f2 <HAL_SPI_TransmitReceive+0x428>
 80070ea:	2301      	movs	r3, #1
 80070ec:	f887 3023 	strb.w	r3, [r7, #35]	; 0x23
 80070f0:	e003      	b.n	80070fa <HAL_SPI_TransmitReceive+0x430>
 80070f2:	68fb      	ldr	r3, [r7, #12]
 80070f4:	2201      	movs	r2, #1
 80070f6:	f883 205d 	strb.w	r2, [r3, #93]	; 0x5d
 80070fa:	68fb      	ldr	r3, [r7, #12]
 80070fc:	2200      	movs	r2, #0
 80070fe:	f883 205c 	strb.w	r2, [r3, #92]	; 0x5c
 8007102:	f897 3023 	ldrb.w	r3, [r7, #35]	; 0x23
 8007106:	4618      	mov	r0, r3
 8007108:	3728      	adds	r7, #40	; 0x28
 800710a:	46bd      	mov	sp, r7
 800710c:	bd80      	pop	{r7, pc}
	...

08007110 <SPI_WaitFlagStateUntilTimeout>:
 8007110:	b580      	push	{r7, lr}
 8007112:	b088      	sub	sp, #32
 8007114:	af00      	add	r7, sp, #0
 8007116:	60f8      	str	r0, [r7, #12]
 8007118:	60b9      	str	r1, [r7, #8]
 800711a:	603b      	str	r3, [r7, #0]
 800711c:	4613      	mov	r3, r2
 800711e:	71fb      	strb	r3, [r7, #7]
 8007120:	f7fb ff62 	bl	8002fe8 <HAL_GetTick>
 8007124:	4602      	mov	r2, r0
 8007126:	6abb      	ldr	r3, [r7, #40]	; 0x28
 8007128:	1a9b      	subs	r3, r3, r2
 800712a:	683a      	ldr	r2, [r7, #0]
 800712c:	4413      	add	r3, r2
 800712e:	61fb      	str	r3, [r7, #28]
 8007130:	f7fb ff5a 	bl	8002fe8 <HAL_GetTick>
 8007134:	61b8      	str	r0, [r7, #24]
 8007136:	4b39      	ldr	r3, [pc, #228]	; (800721c <SPI_WaitFlagStateUntilTimeout+0x10c>)
 8007138:	681b      	ldr	r3, [r3, #0]
 800713a:	015b      	lsls	r3, r3, #5
 800713c:	0d1b      	lsrs	r3, r3, #20
 800713e:	69fa      	ldr	r2, [r7, #28]
 8007140:	fb02 f303 	mul.w	r3, r2, r3
 8007144:	617b      	str	r3, [r7, #20]
 8007146:	e054      	b.n	80071f2 <SPI_WaitFlagStateUntilTimeout+0xe2>
 8007148:	683b      	ldr	r3, [r7, #0]
 800714a:	f1b3 3fff 	cmp.w	r3, #4294967295
 800714e:	d050      	beq.n	80071f2 <SPI_WaitFlagStateUntilTimeout+0xe2>
 8007150:	f7fb ff4a 	bl	8002fe8 <HAL_GetTick>
 8007154:	4602      	mov	r2, r0
 8007156:	69bb      	ldr	r3, [r7, #24]
 8007158:	1ad3      	subs	r3, r2, r3
 800715a:	69fa      	ldr	r2, [r7, #28]
 800715c:	429a      	cmp	r2, r3
 800715e:	d902      	bls.n	8007166 <SPI_WaitFlagStateUntilTimeout+0x56>
 8007160:	69fb      	ldr	r3, [r7, #28]
 8007162:	2b00      	cmp	r3, #0
 8007164:	d13d      	bne.n	80071e2 <SPI_WaitFlagStateUntilTimeout+0xd2>
 8007166:	68fb      	ldr	r3, [r7, #12]
 8007168:	681b      	ldr	r3, [r3, #0]
 800716a:	685a      	ldr	r2, [r3, #4]
 800716c:	68fb      	ldr	r3, [r7, #12]
 800716e:	681b      	ldr	r3, [r3, #0]
 8007170:	f022 02e0 	bic.w	r2, r2, #224	; 0xe0
 8007174:	605a      	str	r2, [r3, #4]
 8007176:	68fb      	ldr	r3, [r7, #12]
 8007178:	685b      	ldr	r3, [r3, #4]
 800717a:	f5b3 7f82 	cmp.w	r3, #260	; 0x104
 800717e:	d111      	bne.n	80071a4 <SPI_WaitFlagStateUntilTimeout+0x94>
 8007180:	68fb      	ldr	r3, [r7, #12]
 8007182:	689b      	ldr	r3, [r3, #8]
 8007184:	f5b3 4f00 	cmp.w	r3, #32768	; 0x8000
 8007188:	d004      	beq.n	8007194 <SPI_WaitFlagStateUntilTimeout+0x84>
 800718a:	68fb      	ldr	r3, [r7, #12]
 800718c:	689b      	ldr	r3, [r3, #8]
 800718e:	f5b3 6f80 	cmp.w	r3, #1024	; 0x400
 8007192:	d107      	bne.n	80071a4 <SPI_WaitFlagStateUntilTimeout+0x94>
 8007194:	68fb      	ldr	r3, [r7, #12]
 8007196:	681b      	ldr	r3, [r3, #0]
 8007198:	681a      	ldr	r2, [r3, #0]
 800719a:	68fb      	ldr	r3, [r7, #12]
 800719c:	681b      	ldr	r3, [r3, #0]
 800719e:	f022 0240 	bic.w	r2, r2, #64	; 0x40
 80071a2:	601a      	str	r2, [r3, #0]
 80071a4:	68fb      	ldr	r3, [r7, #12]
 80071a6:	6a9b      	ldr	r3, [r3, #40]	; 0x28
 80071a8:	f5b3 5f00 	cmp.w	r3, #8192	; 0x2000
 80071ac:	d10f      	bne.n	80071ce <SPI_WaitFlagStateUntilTimeout+0xbe>
 80071ae:	68fb      	ldr	r3, [r7, #12]
 80071b0:	681b      	ldr	r3, [r3, #0]
 80071b2:	681a      	ldr	r2, [r3, #0]
 80071b4:	68fb      	ldr	r3, [r7, #12]
 80071b6:	681b      	ldr	r3, [r3, #0]
 80071b8:	f422 5200 	bic.w	r2, r2, #8192	; 0x2000
 80071bc:	601a      	str	r2, [r3, #0]
 80071be:	68fb      	ldr	r3, [r7, #12]
 80071c0:	681b      	ldr	r3, [r3, #0]
 80071c2:	681a      	ldr	r2, [r3, #0]
 80071c4:	68fb      	ldr	r3, [r7, #12]
 80071c6:	681b      	ldr	r3, [r3, #0]
 80071c8:	f442 5200 	orr.w	r2, r2, #8192	; 0x2000
 80071cc:	601a      	str	r2, [r3, #0]
 80071ce:	68fb      	ldr	r3, [r7, #12]
 80071d0:	2201      	movs	r2, #1
 80071d2:	f883 205d 	strb.w	r2, [r3, #93]	; 0x5d
 80071d6:	68fb      	ldr	r3, [r7, #12]
 80071d8:	2200      	movs	r2, #0
 80071da:	f883 205c 	strb.w	r2, [r3, #92]	; 0x5c
 80071de:	2303      	movs	r3, #3
 80071e0:	e017      	b.n	8007212 <SPI_WaitFlagStateUntilTimeout+0x102>
 80071e2:	697b      	ldr	r3, [r7, #20]
 80071e4:	2b00      	cmp	r3, #0
 80071e6:	d101      	bne.n	80071ec <SPI_WaitFlagStateUntilTimeout+0xdc>
 80071e8:	2300      	movs	r3, #0
 80071ea:	61fb      	str	r3, [r7, #28]
 80071ec:	697b      	ldr	r3, [r7, #20]
 80071ee:	3b01      	subs	r3, #1
 80071f0:	617b      	str	r3, [r7, #20]
 80071f2:	68fb      	ldr	r3, [r7, #12]
 80071f4:	681b      	ldr	r3, [r3, #0]
 80071f6:	689a      	ldr	r2, [r3, #8]
 80071f8:	68bb      	ldr	r3, [r7, #8]
 80071fa:	4013      	ands	r3, r2
 80071fc:	68ba      	ldr	r2, [r7, #8]
 80071fe:	429a      	cmp	r2, r3
 8007200:	bf0c      	ite	eq
 8007202:	2301      	moveq	r3, #1
 8007204:	2300      	movne	r3, #0
 8007206:	b2db      	uxtb	r3, r3
 8007208:	461a      	mov	r2, r3
 800720a:	79fb      	ldrb	r3, [r7, #7]
 800720c:	429a      	cmp	r2, r3
 800720e:	d19b      	bne.n	8007148 <SPI_WaitFlagStateUntilTimeout+0x38>
 8007210:	2300      	movs	r3, #0
 8007212:	4618      	mov	r0, r3
 8007214:	3720      	adds	r7, #32
 8007216:	46bd      	mov	sp, r7
 8007218:	bd80      	pop	{r7, pc}
 800721a:	bf00      	nop
 800721c:	20000008 	.word	0x20000008

08007220 <SPI_WaitFifoStateUntilTimeout>:
 8007220:	b580      	push	{r7, lr}
 8007222:	b08a      	sub	sp, #40	; 0x28
 8007224:	af00      	add	r7, sp, #0
 8007226:	60f8      	str	r0, [r7, #12]
 8007228:	60b9      	str	r1, [r7, #8]
 800722a:	607a      	str	r2, [r7, #4]
 800722c:	603b      	str	r3, [r7, #0]
 800722e:	2300      	movs	r3, #0
 8007230:	75fb      	strb	r3, [r7, #23]
 8007232:	f7fb fed9 	bl	8002fe8 <HAL_GetTick>
 8007236:	4602      	mov	r2, r0
 8007238:	6b3b      	ldr	r3, [r7, #48]	; 0x30
 800723a:	1a9b      	subs	r3, r3, r2
 800723c:	683a      	ldr	r2, [r7, #0]
 800723e:	4413      	add	r3, r2
 8007240:	627b      	str	r3, [r7, #36]	; 0x24
 8007242:	f7fb fed1 	bl	8002fe8 <HAL_GetTick>
 8007246:	6238      	str	r0, [r7, #32]
 8007248:	68fb      	ldr	r3, [r7, #12]
 800724a:	681b      	ldr	r3, [r3, #0]
 800724c:	330c      	adds	r3, #12
 800724e:	61fb      	str	r3, [r7, #28]
 8007250:	4b3d      	ldr	r3, [pc, #244]	; (8007348 <SPI_WaitFifoStateUntilTimeout+0x128>)
 8007252:	681a      	ldr	r2, [r3, #0]
 8007254:	4613      	mov	r3, r2
 8007256:	009b      	lsls	r3, r3, #2
 8007258:	4413      	add	r3, r2
 800725a:	00da      	lsls	r2, r3, #3
 800725c:	1ad3      	subs	r3, r2, r3
 800725e:	0d1b      	lsrs	r3, r3, #20
 8007260:	6a7a      	ldr	r2, [r7, #36]	; 0x24
 8007262:	fb02 f303 	mul.w	r3, r2, r3
 8007266:	61bb      	str	r3, [r7, #24]
 8007268:	e060      	b.n	800732c <SPI_WaitFifoStateUntilTimeout+0x10c>
 800726a:	68bb      	ldr	r3, [r7, #8]
 800726c:	f5b3 6fc0 	cmp.w	r3, #1536	; 0x600
 8007270:	d107      	bne.n	8007282 <SPI_WaitFifoStateUntilTimeout+0x62>
 8007272:	687b      	ldr	r3, [r7, #4]
 8007274:	2b00      	cmp	r3, #0
 8007276:	d104      	bne.n	8007282 <SPI_WaitFifoStateUntilTimeout+0x62>
 8007278:	69fb      	ldr	r3, [r7, #28]
 800727a:	781b      	ldrb	r3, [r3, #0]
 800727c:	b2db      	uxtb	r3, r3
 800727e:	75fb      	strb	r3, [r7, #23]
 8007280:	7dfb      	ldrb	r3, [r7, #23]
 8007282:	683b      	ldr	r3, [r7, #0]
 8007284:	f1b3 3fff 	cmp.w	r3, #4294967295
 8007288:	d050      	beq.n	800732c <SPI_WaitFifoStateUntilTimeout+0x10c>
 800728a:	f7fb fead 	bl	8002fe8 <HAL_GetTick>
 800728e:	4602      	mov	r2, r0
 8007290:	6a3b      	ldr	r3, [r7, #32]
 8007292:	1ad3      	subs	r3, r2, r3
 8007294:	6a7a      	ldr	r2, [r7, #36]	; 0x24
 8007296:	429a      	cmp	r2, r3
 8007298:	d902      	bls.n	80072a0 <SPI_WaitFifoStateUntilTimeout+0x80>
 800729a:	6a7b      	ldr	r3, [r7, #36]	; 0x24
 800729c:	2b00      	cmp	r3, #0
 800729e:	d13d      	bne.n	800731c <SPI_WaitFifoStateUntilTimeout+0xfc>
 80072a0:	68fb      	ldr	r3, [r7, #12]
 80072a2:	681b      	ldr	r3, [r3, #0]
 80072a4:	685a      	ldr	r2, [r3, #4]
 80072a6:	68fb      	ldr	r3, [r7, #12]
 80072a8:	681b      	ldr	r3, [r3, #0]
 80072aa:	f022 02e0 	bic.w	r2, r2, #224	; 0xe0
 80072ae:	605a      	str	r2, [r3, #4]
 80072b0:	68fb      	ldr	r3, [r7, #12]
 80072b2:	685b      	ldr	r3, [r3, #4]
 80072b4:	f5b3 7f82 	cmp.w	r3, #260	; 0x104
 80072b8:	d111      	bne.n	80072de <SPI_WaitFifoStateUntilTimeout+0xbe>
 80072ba:	68fb      	ldr	r3, [r7, #12]
 80072bc:	689b      	ldr	r3, [r3, #8]
 80072be:	f5b3 4f00 	cmp.w	r3, #32768	; 0x8000
 80072c2:	d004      	beq.n	80072ce <SPI_WaitFifoStateUntilTimeout+0xae>
 80072c4:	68fb      	ldr	r3, [r7, #12]
 80072c6:	689b      	ldr	r3, [r3, #8]
 80072c8:	f5b3 6f80 	cmp.w	r3, #1024	; 0x400
 80072cc:	d107      	bne.n	80072de <SPI_WaitFifoStateUntilTimeout+0xbe>
 80072ce:	68fb      	ldr	r3, [r7, #12]
 80072d0:	681b      	ldr	r3, [r3, #0]
 80072d2:	681a      	ldr	r2, [r3, #0]
 80072d4:	68fb      	ldr	r3, [r7, #12]
 80072d6:	681b      	ldr	r3, [r3, #0]
 80072d8:	f022 0240 	bic.w	r2, r2, #64	; 0x40
 80072dc:	601a      	str	r2, [r3, #0]
 80072de:	68fb      	ldr	r3, [r7, #12]
 80072e0:	6a9b      	ldr	r3, [r3, #40]	; 0x28
 80072e2:	f5b3 5f00 	cmp.w	r3, #8192	; 0x2000
 80072e6:	d10f      	bne.n	8007308 <SPI_WaitFifoStateUntilTimeout+0xe8>
 80072e8:	68fb      	ldr	r3, [r7, #12]
 80072ea:	681b      	ldr	r3, [r3, #0]
 80072ec:	681a      	ldr	r2, [r3, #0]
 80072ee:	68fb      	ldr	r3, [r7, #12]
 80072f0:	681b      	ldr	r3, [r3, #0]
 80072f2:	f422 5200 	bic.w	r2, r2, #8192	; 0x2000
 80072f6:	601a      	str	r2, [r3, #0]
 80072f8:	68fb      	ldr	r3, [r7, #12]
 80072fa:	681b      	ldr	r3, [r3, #0]
 80072fc:	681a      	ldr	r2, [r3, #0]
 80072fe:	68fb      	ldr	r3, [r7, #12]
 8007300:	681b      	ldr	r3, [r3, #0]
 8007302:	f442 5200 	orr.w	r2, r2, #8192	; 0x2000
 8007306:	601a      	str	r2, [r3, #0]
 8007308:	68fb      	ldr	r3, [r7, #12]
 800730a:	2201      	movs	r2, #1
 800730c:	f883 205d 	strb.w	r2, [r3, #93]	; 0x5d
 8007310:	68fb      	ldr	r3, [r7, #12]
 8007312:	2200      	movs	r2, #0
 8007314:	f883 205c 	strb.w	r2, [r3, #92]	; 0x5c
 8007318:	2303      	movs	r3, #3
 800731a:	e010      	b.n	800733e <SPI_WaitFifoStateUntilTimeout+0x11e>
 800731c:	69bb      	ldr	r3, [r7, #24]
 800731e:	2b00      	cmp	r3, #0
 8007320:	d101      	bne.n	8007326 <SPI_WaitFifoStateUntilTimeout+0x106>
 8007322:	2300      	movs	r3, #0
 8007324:	627b      	str	r3, [r7, #36]	; 0x24
 8007326:	69bb      	ldr	r3, [r7, #24]
 8007328:	3b01      	subs	r3, #1
 800732a:	61bb      	str	r3, [r7, #24]
 800732c:	68fb      	ldr	r3, [r7, #12]
 800732e:	681b      	ldr	r3, [r3, #0]
 8007330:	689a      	ldr	r2, [r3, #8]
 8007332:	68bb      	ldr	r3, [r7, #8]
 8007334:	4013      	ands	r3, r2
 8007336:	687a      	ldr	r2, [r7, #4]
 8007338:	429a      	cmp	r2, r3
 800733a:	d196      	bne.n	800726a <SPI_WaitFifoStateUntilTimeout+0x4a>
 800733c:	2300      	movs	r3, #0
 800733e:	4618      	mov	r0, r3
 8007340:	3728      	adds	r7, #40	; 0x28
 8007342:	46bd      	mov	sp, r7
 8007344:	bd80      	pop	{r7, pc}
 8007346:	bf00      	nop
 8007348:	20000008 	.word	0x20000008

0800734c <SPI_EndRxTransaction>:
 800734c:	b580      	push	{r7, lr}
 800734e:	b086      	sub	sp, #24
 8007350:	af02      	add	r7, sp, #8
 8007352:	60f8      	str	r0, [r7, #12]
 8007354:	60b9      	str	r1, [r7, #8]
 8007356:	607a      	str	r2, [r7, #4]
 8007358:	68fb      	ldr	r3, [r7, #12]
 800735a:	685b      	ldr	r3, [r3, #4]
 800735c:	f5b3 7f82 	cmp.w	r3, #260	; 0x104
 8007360:	d111      	bne.n	8007386 <SPI_EndRxTransaction+0x3a>
 8007362:	68fb      	ldr	r3, [r7, #12]
 8007364:	689b      	ldr	r3, [r3, #8]
 8007366:	f5b3 4f00 	cmp.w	r3, #32768	; 0x8000
 800736a:	d004      	beq.n	8007376 <SPI_EndRxTransaction+0x2a>
 800736c:	68fb      	ldr	r3, [r7, #12]
 800736e:	689b      	ldr	r3, [r3, #8]
 8007370:	f5b3 6f80 	cmp.w	r3, #1024	; 0x400
 8007374:	d107      	bne.n	8007386 <SPI_EndRxTransaction+0x3a>
 8007376:	68fb      	ldr	r3, [r7, #12]
 8007378:	681b      	ldr	r3, [r3, #0]
 800737a:	681a      	ldr	r2, [r3, #0]
 800737c:	68fb      	ldr	r3, [r7, #12]
 800737e:	681b      	ldr	r3, [r3, #0]
 8007380:	f022 0240 	bic.w	r2, r2, #64	; 0x40
 8007384:	601a      	str	r2, [r3, #0]
 8007386:	687b      	ldr	r3, [r7, #4]
 8007388:	9300      	str	r3, [sp, #0]
 800738a:	68bb      	ldr	r3, [r7, #8]
 800738c:	2200      	movs	r2, #0
 800738e:	2180      	movs	r1, #128	; 0x80
 8007390:	68f8      	ldr	r0, [r7, #12]
 8007392:	f7ff febd 	bl	8007110 <SPI_WaitFlagStateUntilTimeout>
 8007396:	4603      	mov	r3, r0
 8007398:	2b00      	cmp	r3, #0
 800739a:	d007      	beq.n	80073ac <SPI_EndRxTransaction+0x60>
 800739c:	68fb      	ldr	r3, [r7, #12]
 800739e:	6e1b      	ldr	r3, [r3, #96]	; 0x60
 80073a0:	f043 0220 	orr.w	r2, r3, #32
 80073a4:	68fb      	ldr	r3, [r7, #12]
 80073a6:	661a      	str	r2, [r3, #96]	; 0x60
 80073a8:	2303      	movs	r3, #3
 80073aa:	e023      	b.n	80073f4 <SPI_EndRxTransaction+0xa8>
 80073ac:	68fb      	ldr	r3, [r7, #12]
 80073ae:	685b      	ldr	r3, [r3, #4]
 80073b0:	f5b3 7f82 	cmp.w	r3, #260	; 0x104
 80073b4:	d11d      	bne.n	80073f2 <SPI_EndRxTransaction+0xa6>
 80073b6:	68fb      	ldr	r3, [r7, #12]
 80073b8:	689b      	ldr	r3, [r3, #8]
 80073ba:	f5b3 4f00 	cmp.w	r3, #32768	; 0x8000
 80073be:	d004      	beq.n	80073ca <SPI_EndRxTransaction+0x7e>
 80073c0:	68fb      	ldr	r3, [r7, #12]
 80073c2:	689b      	ldr	r3, [r3, #8]
 80073c4:	f5b3 6f80 	cmp.w	r3, #1024	; 0x400
 80073c8:	d113      	bne.n	80073f2 <SPI_EndRxTransaction+0xa6>
 80073ca:	687b      	ldr	r3, [r7, #4]
 80073cc:	9300      	str	r3, [sp, #0]
 80073ce:	68bb      	ldr	r3, [r7, #8]
 80073d0:	2200      	movs	r2, #0
 80073d2:	f44f 61c0 	mov.w	r1, #1536	; 0x600
 80073d6:	68f8      	ldr	r0, [r7, #12]
 80073d8:	f7ff ff22 	bl	8007220 <SPI_WaitFifoStateUntilTimeout>
 80073dc:	4603      	mov	r3, r0
 80073de:	2b00      	cmp	r3, #0
 80073e0:	d007      	beq.n	80073f2 <SPI_EndRxTransaction+0xa6>
 80073e2:	68fb      	ldr	r3, [r7, #12]
 80073e4:	6e1b      	ldr	r3, [r3, #96]	; 0x60
 80073e6:	f043 0220 	orr.w	r2, r3, #32
 80073ea:	68fb      	ldr	r3, [r7, #12]
 80073ec:	661a      	str	r2, [r3, #96]	; 0x60
 80073ee:	2303      	movs	r3, #3
 80073f0:	e000      	b.n	80073f4 <SPI_EndRxTransaction+0xa8>
 80073f2:	2300      	movs	r3, #0
 80073f4:	4618      	mov	r0, r3
 80073f6:	3710      	adds	r7, #16
 80073f8:	46bd      	mov	sp, r7
 80073fa:	bd80      	pop	{r7, pc}

080073fc <SPI_EndRxTxTransaction>:
 80073fc:	b580      	push	{r7, lr}
 80073fe:	b086      	sub	sp, #24
 8007400:	af02      	add	r7, sp, #8
 8007402:	60f8      	str	r0, [r7, #12]
 8007404:	60b9      	str	r1, [r7, #8]
 8007406:	607a      	str	r2, [r7, #4]
 8007408:	687b      	ldr	r3, [r7, #4]
 800740a:	9300      	str	r3, [sp, #0]
 800740c:	68bb      	ldr	r3, [r7, #8]
 800740e:	2200      	movs	r2, #0
 8007410:	f44f 51c0 	mov.w	r1, #6144	; 0x1800
 8007414:	68f8      	ldr	r0, [r7, #12]
 8007416:	f7ff ff03 	bl	8007220 <SPI_WaitFifoStateUntilTimeout>
 800741a:	4603      	mov	r3, r0
 800741c:	2b00      	cmp	r3, #0
 800741e:	d007      	beq.n	8007430 <SPI_EndRxTxTransaction+0x34>
 8007420:	68fb      	ldr	r3, [r7, #12]
 8007422:	6e1b      	ldr	r3, [r3, #96]	; 0x60
 8007424:	f043 0220 	orr.w	r2, r3, #32
 8007428:	68fb      	ldr	r3, [r7, #12]
 800742a:	661a      	str	r2, [r3, #96]	; 0x60
 800742c:	2303      	movs	r3, #3
 800742e:	e027      	b.n	8007480 <SPI_EndRxTxTransaction+0x84>
 8007430:	687b      	ldr	r3, [r7, #4]
 8007432:	9300      	str	r3, [sp, #0]
 8007434:	68bb      	ldr	r3, [r7, #8]
 8007436:	2200      	movs	r2, #0
 8007438:	2180      	movs	r1, #128	; 0x80
 800743a:	68f8      	ldr	r0, [r7, #12]
 800743c:	f7ff fe68 	bl	8007110 <SPI_WaitFlagStateUntilTimeout>
 8007440:	4603      	mov	r3, r0
 8007442:	2b00      	cmp	r3, #0
 8007444:	d007      	beq.n	8007456 <SPI_EndRxTxTransaction+0x5a>
 8007446:	68fb      	ldr	r3, [r7, #12]
 8007448:	6e1b      	ldr	r3, [r3, #96]	; 0x60
 800744a:	f043 0220 	orr.w	r2, r3, #32
 800744e:	68fb      	ldr	r3, [r7, #12]
 8007450:	661a      	str	r2, [r3, #96]	; 0x60
 8007452:	2303      	movs	r3, #3
 8007454:	e014      	b.n	8007480 <SPI_EndRxTxTransaction+0x84>
 8007456:	687b      	ldr	r3, [r7, #4]
 8007458:	9300      	str	r3, [sp, #0]
 800745a:	68bb      	ldr	r3, [r7, #8]
 800745c:	2200      	movs	r2, #0
 800745e:	f44f 61c0 	mov.w	r1, #1536	; 0x600
 8007462:	68f8      	ldr	r0, [r7, #12]
 8007464:	f7ff fedc 	bl	8007220 <SPI_WaitFifoStateUntilTimeout>
 8007468:	4603      	mov	r3, r0
 800746a:	2b00      	cmp	r3, #0
 800746c:	d007      	beq.n	800747e <SPI_EndRxTxTransaction+0x82>
 800746e:	68fb      	ldr	r3, [r7, #12]
 8007470:	6e1b      	ldr	r3, [r3, #96]	; 0x60
 8007472:	f043 0220 	orr.w	r2, r3, #32
 8007476:	68fb      	ldr	r3, [r7, #12]
 8007478:	661a      	str	r2, [r3, #96]	; 0x60
 800747a:	2303      	movs	r3, #3
 800747c:	e000      	b.n	8007480 <SPI_EndRxTxTransaction+0x84>
 800747e:	2300      	movs	r3, #0
 8007480:	4618      	mov	r0, r3
 8007482:	3710      	adds	r7, #16
 8007484:	46bd      	mov	sp, r7
 8007486:	bd80      	pop	{r7, pc}

08007488 <HAL_UART_Init>:
 8007488:	b580      	push	{r7, lr}
 800748a:	b082      	sub	sp, #8
 800748c:	af00      	add	r7, sp, #0
 800748e:	6078      	str	r0, [r7, #4]
 8007490:	687b      	ldr	r3, [r7, #4]
 8007492:	2b00      	cmp	r3, #0
 8007494:	d101      	bne.n	800749a <HAL_UART_Init+0x12>
 8007496:	2301      	movs	r3, #1
 8007498:	e042      	b.n	8007520 <HAL_UART_Init+0x98>
 800749a:	687b      	ldr	r3, [r7, #4]
 800749c:	f8d3 3088 	ldr.w	r3, [r3, #136]	; 0x88
 80074a0:	2b00      	cmp	r3, #0
 80074a2:	d106      	bne.n	80074b2 <HAL_UART_Init+0x2a>
 80074a4:	687b      	ldr	r3, [r7, #4]
 80074a6:	2200      	movs	r2, #0
 80074a8:	f883 2084 	strb.w	r2, [r3, #132]	; 0x84
 80074ac:	6878      	ldr	r0, [r7, #4]
 80074ae:	f7fb fbab 	bl	8002c08 <HAL_UART_MspInit>
 80074b2:	687b      	ldr	r3, [r7, #4]
 80074b4:	2224      	movs	r2, #36	; 0x24
 80074b6:	f8c3 2088 	str.w	r2, [r3, #136]	; 0x88
 80074ba:	687b      	ldr	r3, [r7, #4]
 80074bc:	681b      	ldr	r3, [r3, #0]
 80074be:	681a      	ldr	r2, [r3, #0]
 80074c0:	687b      	ldr	r3, [r7, #4]
 80074c2:	681b      	ldr	r3, [r3, #0]
 80074c4:	f022 0201 	bic.w	r2, r2, #1
 80074c8:	601a      	str	r2, [r3, #0]
 80074ca:	687b      	ldr	r3, [r7, #4]
 80074cc:	6a9b      	ldr	r3, [r3, #40]	; 0x28
 80074ce:	2b00      	cmp	r3, #0
 80074d0:	d002      	beq.n	80074d8 <HAL_UART_Init+0x50>
 80074d2:	6878      	ldr	r0, [r7, #4]
 80074d4:	f000 fe38 	bl	8008148 <UART_AdvFeatureConfig>
 80074d8:	6878      	ldr	r0, [r7, #4]
 80074da:	f000 fb69 	bl	8007bb0 <UART_SetConfig>
 80074de:	4603      	mov	r3, r0
 80074e0:	2b01      	cmp	r3, #1
 80074e2:	d101      	bne.n	80074e8 <HAL_UART_Init+0x60>
 80074e4:	2301      	movs	r3, #1
 80074e6:	e01b      	b.n	8007520 <HAL_UART_Init+0x98>
 80074e8:	687b      	ldr	r3, [r7, #4]
 80074ea:	681b      	ldr	r3, [r3, #0]
 80074ec:	685a      	ldr	r2, [r3, #4]
 80074ee:	687b      	ldr	r3, [r7, #4]
 80074f0:	681b      	ldr	r3, [r3, #0]
 80074f2:	f422 4290 	bic.w	r2, r2, #18432	; 0x4800
 80074f6:	605a      	str	r2, [r3, #4]
 80074f8:	687b      	ldr	r3, [r7, #4]
 80074fa:	681b      	ldr	r3, [r3, #0]
 80074fc:	689a      	ldr	r2, [r3, #8]
 80074fe:	687b      	ldr	r3, [r7, #4]
 8007500:	681b      	ldr	r3, [r3, #0]
 8007502:	f022 022a 	bic.w	r2, r2, #42	; 0x2a
 8007506:	609a      	str	r2, [r3, #8]
 8007508:	687b      	ldr	r3, [r7, #4]
 800750a:	681b      	ldr	r3, [r3, #0]
 800750c:	681a      	ldr	r2, [r3, #0]
 800750e:	687b      	ldr	r3, [r7, #4]
 8007510:	681b      	ldr	r3, [r3, #0]
 8007512:	f042 0201 	orr.w	r2, r2, #1
 8007516:	601a      	str	r2, [r3, #0]
 8007518:	6878      	ldr	r0, [r7, #4]
 800751a:	f000 feb7 	bl	800828c <UART_CheckIdleState>
 800751e:	4603      	mov	r3, r0
 8007520:	4618      	mov	r0, r3
 8007522:	3708      	adds	r7, #8
 8007524:	46bd      	mov	sp, r7
 8007526:	bd80      	pop	{r7, pc}

08007528 <HAL_UART_IRQHandler>:
 8007528:	b580      	push	{r7, lr}
 800752a:	b0ba      	sub	sp, #232	; 0xe8
 800752c:	af00      	add	r7, sp, #0
 800752e:	6078      	str	r0, [r7, #4]
 8007530:	687b      	ldr	r3, [r7, #4]
 8007532:	681b      	ldr	r3, [r3, #0]
 8007534:	69db      	ldr	r3, [r3, #28]
 8007536:	f8c7 30e4 	str.w	r3, [r7, #228]	; 0xe4
 800753a:	687b      	ldr	r3, [r7, #4]
 800753c:	681b      	ldr	r3, [r3, #0]
 800753e:	681b      	ldr	r3, [r3, #0]
 8007540:	f8c7 30e0 	str.w	r3, [r7, #224]	; 0xe0
 8007544:	687b      	ldr	r3, [r7, #4]
 8007546:	681b      	ldr	r3, [r3, #0]
 8007548:	689b      	ldr	r3, [r3, #8]
 800754a:	f8c7 30dc 	str.w	r3, [r7, #220]	; 0xdc
 800754e:	f8d7 20e4 	ldr.w	r2, [r7, #228]	; 0xe4
 8007552:	f640 030f 	movw	r3, #2063	; 0x80f
 8007556:	4013      	ands	r3, r2
 8007558:	f8c7 30d8 	str.w	r3, [r7, #216]	; 0xd8
 800755c:	f8d7 30d8 	ldr.w	r3, [r7, #216]	; 0xd8
 8007560:	2b00      	cmp	r3, #0
 8007562:	d11b      	bne.n	800759c <HAL_UART_IRQHandler+0x74>
 8007564:	f8d7 30e4 	ldr.w	r3, [r7, #228]	; 0xe4
 8007568:	f003 0320 	and.w	r3, r3, #32
 800756c:	2b00      	cmp	r3, #0
 800756e:	d015      	beq.n	800759c <HAL_UART_IRQHandler+0x74>
 8007570:	f8d7 30e0 	ldr.w	r3, [r7, #224]	; 0xe0
 8007574:	f003 0320 	and.w	r3, r3, #32
 8007578:	2b00      	cmp	r3, #0
 800757a:	d105      	bne.n	8007588 <HAL_UART_IRQHandler+0x60>
 800757c:	f8d7 30dc 	ldr.w	r3, [r7, #220]	; 0xdc
 8007580:	f003 5380 	and.w	r3, r3, #268435456	; 0x10000000
 8007584:	2b00      	cmp	r3, #0
 8007586:	d009      	beq.n	800759c <HAL_UART_IRQHandler+0x74>
 8007588:	687b      	ldr	r3, [r7, #4]
 800758a:	6f5b      	ldr	r3, [r3, #116]	; 0x74
 800758c:	2b00      	cmp	r3, #0
 800758e:	f000 82e3 	beq.w	8007b58 <HAL_UART_IRQHandler+0x630>
 8007592:	687b      	ldr	r3, [r7, #4]
 8007594:	6f5b      	ldr	r3, [r3, #116]	; 0x74
 8007596:	6878      	ldr	r0, [r7, #4]
 8007598:	4798      	blx	r3
 800759a:	e2dd      	b.n	8007b58 <HAL_UART_IRQHandler+0x630>
 800759c:	f8d7 30d8 	ldr.w	r3, [r7, #216]	; 0xd8
 80075a0:	2b00      	cmp	r3, #0
 80075a2:	f000 8123 	beq.w	80077ec <HAL_UART_IRQHandler+0x2c4>
 80075a6:	f8d7 20dc 	ldr.w	r2, [r7, #220]	; 0xdc
 80075aa:	4b8d      	ldr	r3, [pc, #564]	; (80077e0 <HAL_UART_IRQHandler+0x2b8>)
 80075ac:	4013      	ands	r3, r2
 80075ae:	2b00      	cmp	r3, #0
 80075b0:	d106      	bne.n	80075c0 <HAL_UART_IRQHandler+0x98>
 80075b2:	f8d7 20e0 	ldr.w	r2, [r7, #224]	; 0xe0
 80075b6:	4b8b      	ldr	r3, [pc, #556]	; (80077e4 <HAL_UART_IRQHandler+0x2bc>)
 80075b8:	4013      	ands	r3, r2
 80075ba:	2b00      	cmp	r3, #0
 80075bc:	f000 8116 	beq.w	80077ec <HAL_UART_IRQHandler+0x2c4>
 80075c0:	f8d7 30e4 	ldr.w	r3, [r7, #228]	; 0xe4
 80075c4:	f003 0301 	and.w	r3, r3, #1
 80075c8:	2b00      	cmp	r3, #0
 80075ca:	d011      	beq.n	80075f0 <HAL_UART_IRQHandler+0xc8>
 80075cc:	f8d7 30e0 	ldr.w	r3, [r7, #224]	; 0xe0
 80075d0:	f403 7380 	and.w	r3, r3, #256	; 0x100
 80075d4:	2b00      	cmp	r3, #0
 80075d6:	d00b      	beq.n	80075f0 <HAL_UART_IRQHandler+0xc8>
 80075d8:	687b      	ldr	r3, [r7, #4]
 80075da:	681b      	ldr	r3, [r3, #0]
 80075dc:	2201      	movs	r2, #1
 80075de:	621a      	str	r2, [r3, #32]
 80075e0:	687b      	ldr	r3, [r7, #4]
 80075e2:	f8d3 3090 	ldr.w	r3, [r3, #144]	; 0x90
 80075e6:	f043 0201 	orr.w	r2, r3, #1
 80075ea:	687b      	ldr	r3, [r7, #4]
 80075ec:	f8c3 2090 	str.w	r2, [r3, #144]	; 0x90
 80075f0:	f8d7 30e4 	ldr.w	r3, [r7, #228]	; 0xe4
 80075f4:	f003 0302 	and.w	r3, r3, #2
 80075f8:	2b00      	cmp	r3, #0
 80075fa:	d011      	beq.n	8007620 <HAL_UART_IRQHandler+0xf8>
 80075fc:	f8d7 30dc 	ldr.w	r3, [r7, #220]	; 0xdc
 8007600:	f003 0301 	and.w	r3, r3, #1
 8007604:	2b00      	cmp	r3, #0
 8007606:	d00b      	beq.n	8007620 <HAL_UART_IRQHandler+0xf8>
 8007608:	687b      	ldr	r3, [r7, #4]
 800760a:	681b      	ldr	r3, [r3, #0]
 800760c:	2202      	movs	r2, #2
 800760e:	621a      	str	r2, [r3, #32]
 8007610:	687b      	ldr	r3, [r7, #4]
 8007612:	f8d3 3090 	ldr.w	r3, [r3, #144]	; 0x90
 8007616:	f043 0204 	orr.w	r2, r3, #4
 800761a:	687b      	ldr	r3, [r7, #4]
 800761c:	f8c3 2090 	str.w	r2, [r3, #144]	; 0x90
 8007620:	f8d7 30e4 	ldr.w	r3, [r7, #228]	; 0xe4
 8007624:	f003 0304 	and.w	r3, r3, #4
 8007628:	2b00      	cmp	r3, #0
 800762a:	d011      	beq.n	8007650 <HAL_UART_IRQHandler+0x128>
 800762c:	f8d7 30dc 	ldr.w	r3, [r7, #220]	; 0xdc
 8007630:	f003 0301 	and.w	r3, r3, #1
 8007634:	2b00      	cmp	r3, #0
 8007636:	d00b      	beq.n	8007650 <HAL_UART_IRQHandler+0x128>
 8007638:	687b      	ldr	r3, [r7, #4]
 800763a:	681b      	ldr	r3, [r3, #0]
 800763c:	2204      	movs	r2, #4
 800763e:	621a      	str	r2, [r3, #32]
 8007640:	687b      	ldr	r3, [r7, #4]
 8007642:	f8d3 3090 	ldr.w	r3, [r3, #144]	; 0x90
 8007646:	f043 0202 	orr.w	r2, r3, #2
 800764a:	687b      	ldr	r3, [r7, #4]
 800764c:	f8c3 2090 	str.w	r2, [r3, #144]	; 0x90
 8007650:	f8d7 30e4 	ldr.w	r3, [r7, #228]	; 0xe4
 8007654:	f003 0308 	and.w	r3, r3, #8
 8007658:	2b00      	cmp	r3, #0
 800765a:	d017      	beq.n	800768c <HAL_UART_IRQHandler+0x164>
 800765c:	f8d7 30e0 	ldr.w	r3, [r7, #224]	; 0xe0
 8007660:	f003 0320 	and.w	r3, r3, #32
 8007664:	2b00      	cmp	r3, #0
 8007666:	d105      	bne.n	8007674 <HAL_UART_IRQHandler+0x14c>
 8007668:	f8d7 20dc 	ldr.w	r2, [r7, #220]	; 0xdc
 800766c:	4b5c      	ldr	r3, [pc, #368]	; (80077e0 <HAL_UART_IRQHandler+0x2b8>)
 800766e:	4013      	ands	r3, r2
 8007670:	2b00      	cmp	r3, #0
 8007672:	d00b      	beq.n	800768c <HAL_UART_IRQHandler+0x164>
 8007674:	687b      	ldr	r3, [r7, #4]
 8007676:	681b      	ldr	r3, [r3, #0]
 8007678:	2208      	movs	r2, #8
 800767a:	621a      	str	r2, [r3, #32]
 800767c:	687b      	ldr	r3, [r7, #4]
 800767e:	f8d3 3090 	ldr.w	r3, [r3, #144]	; 0x90
 8007682:	f043 0208 	orr.w	r2, r3, #8
 8007686:	687b      	ldr	r3, [r7, #4]
 8007688:	f8c3 2090 	str.w	r2, [r3, #144]	; 0x90
 800768c:	f8d7 30e4 	ldr.w	r3, [r7, #228]	; 0xe4
 8007690:	f403 6300 	and.w	r3, r3, #2048	; 0x800
 8007694:	2b00      	cmp	r3, #0
 8007696:	d012      	beq.n	80076be <HAL_UART_IRQHandler+0x196>
 8007698:	f8d7 30e0 	ldr.w	r3, [r7, #224]	; 0xe0
 800769c:	f003 6380 	and.w	r3, r3, #67108864	; 0x4000000
 80076a0:	2b00      	cmp	r3, #0
 80076a2:	d00c      	beq.n	80076be <HAL_UART_IRQHandler+0x196>
 80076a4:	687b      	ldr	r3, [r7, #4]
 80076a6:	681b      	ldr	r3, [r3, #0]
 80076a8:	f44f 6200 	mov.w	r2, #2048	; 0x800
 80076ac:	621a      	str	r2, [r3, #32]
 80076ae:	687b      	ldr	r3, [r7, #4]
 80076b0:	f8d3 3090 	ldr.w	r3, [r3, #144]	; 0x90
 80076b4:	f043 0220 	orr.w	r2, r3, #32
 80076b8:	687b      	ldr	r3, [r7, #4]
 80076ba:	f8c3 2090 	str.w	r2, [r3, #144]	; 0x90
 80076be:	687b      	ldr	r3, [r7, #4]
 80076c0:	f8d3 3090 	ldr.w	r3, [r3, #144]	; 0x90
 80076c4:	2b00      	cmp	r3, #0
 80076c6:	f000 8249 	beq.w	8007b5c <HAL_UART_IRQHandler+0x634>
 80076ca:	f8d7 30e4 	ldr.w	r3, [r7, #228]	; 0xe4
 80076ce:	f003 0320 	and.w	r3, r3, #32
 80076d2:	2b00      	cmp	r3, #0
 80076d4:	d013      	beq.n	80076fe <HAL_UART_IRQHandler+0x1d6>
 80076d6:	f8d7 30e0 	ldr.w	r3, [r7, #224]	; 0xe0
 80076da:	f003 0320 	and.w	r3, r3, #32
 80076de:	2b00      	cmp	r3, #0
 80076e0:	d105      	bne.n	80076ee <HAL_UART_IRQHandler+0x1c6>
 80076e2:	f8d7 30dc 	ldr.w	r3, [r7, #220]	; 0xdc
 80076e6:	f003 5380 	and.w	r3, r3, #268435456	; 0x10000000
 80076ea:	2b00      	cmp	r3, #0
 80076ec:	d007      	beq.n	80076fe <HAL_UART_IRQHandler+0x1d6>
 80076ee:	687b      	ldr	r3, [r7, #4]
 80076f0:	6f5b      	ldr	r3, [r3, #116]	; 0x74
 80076f2:	2b00      	cmp	r3, #0
 80076f4:	d003      	beq.n	80076fe <HAL_UART_IRQHandler+0x1d6>
 80076f6:	687b      	ldr	r3, [r7, #4]
 80076f8:	6f5b      	ldr	r3, [r3, #116]	; 0x74
 80076fa:	6878      	ldr	r0, [r7, #4]
 80076fc:	4798      	blx	r3
 80076fe:	687b      	ldr	r3, [r7, #4]
 8007700:	f8d3 3090 	ldr.w	r3, [r3, #144]	; 0x90
 8007704:	f8c7 30d4 	str.w	r3, [r7, #212]	; 0xd4
 8007708:	687b      	ldr	r3, [r7, #4]
 800770a:	681b      	ldr	r3, [r3, #0]
 800770c:	689b      	ldr	r3, [r3, #8]
 800770e:	f003 0340 	and.w	r3, r3, #64	; 0x40
 8007712:	2b40      	cmp	r3, #64	; 0x40
 8007714:	d005      	beq.n	8007722 <HAL_UART_IRQHandler+0x1fa>
 8007716:	f8d7 30d4 	ldr.w	r3, [r7, #212]	; 0xd4
 800771a:	f003 0328 	and.w	r3, r3, #40	; 0x28
 800771e:	2b00      	cmp	r3, #0
 8007720:	d054      	beq.n	80077cc <HAL_UART_IRQHandler+0x2a4>
 8007722:	6878      	ldr	r0, [r7, #4]
 8007724:	f000 fec9 	bl	80084ba <UART_EndRxTransfer>
 8007728:	687b      	ldr	r3, [r7, #4]
 800772a:	681b      	ldr	r3, [r3, #0]
 800772c:	689b      	ldr	r3, [r3, #8]
 800772e:	f003 0340 	and.w	r3, r3, #64	; 0x40
 8007732:	2b40      	cmp	r3, #64	; 0x40
 8007734:	d146      	bne.n	80077c4 <HAL_UART_IRQHandler+0x29c>
 8007736:	687b      	ldr	r3, [r7, #4]
 8007738:	681b      	ldr	r3, [r3, #0]
 800773a:	3308      	adds	r3, #8
 800773c:	f8c7 309c 	str.w	r3, [r7, #156]	; 0x9c
 8007740:	f8d7 309c 	ldr.w	r3, [r7, #156]	; 0x9c
 8007744:	e853 3f00 	ldrex	r3, [r3]
 8007748:	f8c7 3098 	str.w	r3, [r7, #152]	; 0x98
 800774c:	f8d7 3098 	ldr.w	r3, [r7, #152]	; 0x98
 8007750:	f023 0340 	bic.w	r3, r3, #64	; 0x40
 8007754:	f8c7 30d0 	str.w	r3, [r7, #208]	; 0xd0
 8007758:	687b      	ldr	r3, [r7, #4]
 800775a:	681b      	ldr	r3, [r3, #0]
 800775c:	3308      	adds	r3, #8
 800775e:	f8d7 20d0 	ldr.w	r2, [r7, #208]	; 0xd0
 8007762:	f8c7 20a8 	str.w	r2, [r7, #168]	; 0xa8
 8007766:	f8c7 30a4 	str.w	r3, [r7, #164]	; 0xa4
 800776a:	f8d7 10a4 	ldr.w	r1, [r7, #164]	; 0xa4
 800776e:	f8d7 20a8 	ldr.w	r2, [r7, #168]	; 0xa8
 8007772:	e841 2300 	strex	r3, r2, [r1]
 8007776:	f8c7 30a0 	str.w	r3, [r7, #160]	; 0xa0
 800777a:	f8d7 30a0 	ldr.w	r3, [r7, #160]	; 0xa0
 800777e:	2b00      	cmp	r3, #0
 8007780:	d1d9      	bne.n	8007736 <HAL_UART_IRQHandler+0x20e>
 8007782:	687b      	ldr	r3, [r7, #4]
 8007784:	f8d3 3080 	ldr.w	r3, [r3, #128]	; 0x80
 8007788:	2b00      	cmp	r3, #0
 800778a:	d017      	beq.n	80077bc <HAL_UART_IRQHandler+0x294>
 800778c:	687b      	ldr	r3, [r7, #4]
 800778e:	f8d3 3080 	ldr.w	r3, [r3, #128]	; 0x80
 8007792:	4a15      	ldr	r2, [pc, #84]	; (80077e8 <HAL_UART_IRQHandler+0x2c0>)
 8007794:	639a      	str	r2, [r3, #56]	; 0x38
 8007796:	687b      	ldr	r3, [r7, #4]
 8007798:	f8d3 3080 	ldr.w	r3, [r3, #128]	; 0x80
 800779c:	4618      	mov	r0, r3
 800779e:	f7fb fdb9 	bl	8003314 <HAL_DMA_Abort_IT>
 80077a2:	4603      	mov	r3, r0
 80077a4:	2b00      	cmp	r3, #0
 80077a6:	d019      	beq.n	80077dc <HAL_UART_IRQHandler+0x2b4>
 80077a8:	687b      	ldr	r3, [r7, #4]
 80077aa:	f8d3 3080 	ldr.w	r3, [r3, #128]	; 0x80
 80077ae:	6b9b      	ldr	r3, [r3, #56]	; 0x38
 80077b0:	687a      	ldr	r2, [r7, #4]
 80077b2:	f8d2 2080 	ldr.w	r2, [r2, #128]	; 0x80
 80077b6:	4610      	mov	r0, r2
 80077b8:	4798      	blx	r3
 80077ba:	e00f      	b.n	80077dc <HAL_UART_IRQHandler+0x2b4>
 80077bc:	6878      	ldr	r0, [r7, #4]
 80077be:	f000 f9e1 	bl	8007b84 <HAL_UART_ErrorCallback>
 80077c2:	e00b      	b.n	80077dc <HAL_UART_IRQHandler+0x2b4>
 80077c4:	6878      	ldr	r0, [r7, #4]
 80077c6:	f000 f9dd 	bl	8007b84 <HAL_UART_ErrorCallback>
 80077ca:	e007      	b.n	80077dc <HAL_UART_IRQHandler+0x2b4>
 80077cc:	6878      	ldr	r0, [r7, #4]
 80077ce:	f000 f9d9 	bl	8007b84 <HAL_UART_ErrorCallback>
 80077d2:	687b      	ldr	r3, [r7, #4]
 80077d4:	2200      	movs	r2, #0
 80077d6:	f8c3 2090 	str.w	r2, [r3, #144]	; 0x90
 80077da:	e1bf      	b.n	8007b5c <HAL_UART_IRQHandler+0x634>
 80077dc:	bf00      	nop
 80077de:	e1bd      	b.n	8007b5c <HAL_UART_IRQHandler+0x634>
 80077e0:	10000001 	.word	0x10000001
 80077e4:	04000120 	.word	0x04000120
 80077e8:	08008587 	.word	0x08008587
 80077ec:	687b      	ldr	r3, [r7, #4]
 80077ee:	6edb      	ldr	r3, [r3, #108]	; 0x6c
 80077f0:	2b01      	cmp	r3, #1
 80077f2:	f040 8153 	bne.w	8007a9c <HAL_UART_IRQHandler+0x574>
 80077f6:	f8d7 30e4 	ldr.w	r3, [r7, #228]	; 0xe4
 80077fa:	f003 0310 	and.w	r3, r3, #16
 80077fe:	2b00      	cmp	r3, #0
 8007800:	f000 814c 	beq.w	8007a9c <HAL_UART_IRQHandler+0x574>
 8007804:	f8d7 30e0 	ldr.w	r3, [r7, #224]	; 0xe0
 8007808:	f003 0310 	and.w	r3, r3, #16
 800780c:	2b00      	cmp	r3, #0
 800780e:	f000 8145 	beq.w	8007a9c <HAL_UART_IRQHandler+0x574>
 8007812:	687b      	ldr	r3, [r7, #4]
 8007814:	681b      	ldr	r3, [r3, #0]
 8007816:	2210      	movs	r2, #16
 8007818:	621a      	str	r2, [r3, #32]
 800781a:	687b      	ldr	r3, [r7, #4]
 800781c:	681b      	ldr	r3, [r3, #0]
 800781e:	689b      	ldr	r3, [r3, #8]
 8007820:	f003 0340 	and.w	r3, r3, #64	; 0x40
 8007824:	2b40      	cmp	r3, #64	; 0x40
 8007826:	f040 80bb 	bne.w	80079a0 <HAL_UART_IRQHandler+0x478>
 800782a:	687b      	ldr	r3, [r7, #4]
 800782c:	f8d3 3080 	ldr.w	r3, [r3, #128]	; 0x80
 8007830:	681b      	ldr	r3, [r3, #0]
 8007832:	685b      	ldr	r3, [r3, #4]
 8007834:	f8a7 30be 	strh.w	r3, [r7, #190]	; 0xbe
 8007838:	f8b7 30be 	ldrh.w	r3, [r7, #190]	; 0xbe
 800783c:	2b00      	cmp	r3, #0
 800783e:	f000 818f 	beq.w	8007b60 <HAL_UART_IRQHandler+0x638>
 8007842:	687b      	ldr	r3, [r7, #4]
 8007844:	f8b3 305c 	ldrh.w	r3, [r3, #92]	; 0x5c
 8007848:	f8b7 20be 	ldrh.w	r2, [r7, #190]	; 0xbe
 800784c:	429a      	cmp	r2, r3
 800784e:	f080 8187 	bcs.w	8007b60 <HAL_UART_IRQHandler+0x638>
 8007852:	687b      	ldr	r3, [r7, #4]
 8007854:	f8b7 20be 	ldrh.w	r2, [r7, #190]	; 0xbe
 8007858:	f8a3 205e 	strh.w	r2, [r3, #94]	; 0x5e
 800785c:	687b      	ldr	r3, [r7, #4]
 800785e:	f8d3 3080 	ldr.w	r3, [r3, #128]	; 0x80
 8007862:	681b      	ldr	r3, [r3, #0]
 8007864:	681b      	ldr	r3, [r3, #0]
 8007866:	f003 0320 	and.w	r3, r3, #32
 800786a:	2b00      	cmp	r3, #0
 800786c:	f040 8087 	bne.w	800797e <HAL_UART_IRQHandler+0x456>
 8007870:	687b      	ldr	r3, [r7, #4]
 8007872:	681b      	ldr	r3, [r3, #0]
 8007874:	f8c7 3088 	str.w	r3, [r7, #136]	; 0x88
 8007878:	f8d7 3088 	ldr.w	r3, [r7, #136]	; 0x88
 800787c:	e853 3f00 	ldrex	r3, [r3]
 8007880:	f8c7 3084 	str.w	r3, [r7, #132]	; 0x84
 8007884:	f8d7 3084 	ldr.w	r3, [r7, #132]	; 0x84
 8007888:	f423 7380 	bic.w	r3, r3, #256	; 0x100
 800788c:	f8c7 30b8 	str.w	r3, [r7, #184]	; 0xb8
 8007890:	687b      	ldr	r3, [r7, #4]
 8007892:	681b      	ldr	r3, [r3, #0]
 8007894:	461a      	mov	r2, r3
 8007896:	f8d7 30b8 	ldr.w	r3, [r7, #184]	; 0xb8
 800789a:	f8c7 3094 	str.w	r3, [r7, #148]	; 0x94
 800789e:	f8c7 2090 	str.w	r2, [r7, #144]	; 0x90
 80078a2:	f8d7 1090 	ldr.w	r1, [r7, #144]	; 0x90
 80078a6:	f8d7 2094 	ldr.w	r2, [r7, #148]	; 0x94
 80078aa:	e841 2300 	strex	r3, r2, [r1]
 80078ae:	f8c7 308c 	str.w	r3, [r7, #140]	; 0x8c
 80078b2:	f8d7 308c 	ldr.w	r3, [r7, #140]	; 0x8c
 80078b6:	2b00      	cmp	r3, #0
 80078b8:	d1da      	bne.n	8007870 <HAL_UART_IRQHandler+0x348>
 80078ba:	687b      	ldr	r3, [r7, #4]
 80078bc:	681b      	ldr	r3, [r3, #0]
 80078be:	3308      	adds	r3, #8
 80078c0:	677b      	str	r3, [r7, #116]	; 0x74
 80078c2:	6f7b      	ldr	r3, [r7, #116]	; 0x74
 80078c4:	e853 3f00 	ldrex	r3, [r3]
 80078c8:	673b      	str	r3, [r7, #112]	; 0x70
 80078ca:	6f3b      	ldr	r3, [r7, #112]	; 0x70
 80078cc:	f023 0301 	bic.w	r3, r3, #1
 80078d0:	f8c7 30b4 	str.w	r3, [r7, #180]	; 0xb4
 80078d4:	687b      	ldr	r3, [r7, #4]
 80078d6:	681b      	ldr	r3, [r3, #0]
 80078d8:	3308      	adds	r3, #8
 80078da:	f8d7 20b4 	ldr.w	r2, [r7, #180]	; 0xb4
 80078de:	f8c7 2080 	str.w	r2, [r7, #128]	; 0x80
 80078e2:	67fb      	str	r3, [r7, #124]	; 0x7c
 80078e4:	6ff9      	ldr	r1, [r7, #124]	; 0x7c
 80078e6:	f8d7 2080 	ldr.w	r2, [r7, #128]	; 0x80
 80078ea:	e841 2300 	strex	r3, r2, [r1]
 80078ee:	67bb      	str	r3, [r7, #120]	; 0x78
 80078f0:	6fbb      	ldr	r3, [r7, #120]	; 0x78
 80078f2:	2b00      	cmp	r3, #0
 80078f4:	d1e1      	bne.n	80078ba <HAL_UART_IRQHandler+0x392>
 80078f6:	687b      	ldr	r3, [r7, #4]
 80078f8:	681b      	ldr	r3, [r3, #0]
 80078fa:	3308      	adds	r3, #8
 80078fc:	663b      	str	r3, [r7, #96]	; 0x60
 80078fe:	6e3b      	ldr	r3, [r7, #96]	; 0x60
 8007900:	e853 3f00 	ldrex	r3, [r3]
 8007904:	65fb      	str	r3, [r7, #92]	; 0x5c
 8007906:	6dfb      	ldr	r3, [r7, #92]	; 0x5c
 8007908:	f023 0340 	bic.w	r3, r3, #64	; 0x40
 800790c:	f8c7 30b0 	str.w	r3, [r7, #176]	; 0xb0
 8007910:	687b      	ldr	r3, [r7, #4]
 8007912:	681b      	ldr	r3, [r3, #0]
 8007914:	3308      	adds	r3, #8
 8007916:	f8d7 20b0 	ldr.w	r2, [r7, #176]	; 0xb0
 800791a:	66fa      	str	r2, [r7, #108]	; 0x6c
 800791c:	66bb      	str	r3, [r7, #104]	; 0x68
 800791e:	6eb9      	ldr	r1, [r7, #104]	; 0x68
 8007920:	6efa      	ldr	r2, [r7, #108]	; 0x6c
 8007922:	e841 2300 	strex	r3, r2, [r1]
 8007926:	667b      	str	r3, [r7, #100]	; 0x64
 8007928:	6e7b      	ldr	r3, [r7, #100]	; 0x64
 800792a:	2b00      	cmp	r3, #0
 800792c:	d1e3      	bne.n	80078f6 <HAL_UART_IRQHandler+0x3ce>
 800792e:	687b      	ldr	r3, [r7, #4]
 8007930:	2220      	movs	r2, #32
 8007932:	f8c3 208c 	str.w	r2, [r3, #140]	; 0x8c
 8007936:	687b      	ldr	r3, [r7, #4]
 8007938:	2200      	movs	r2, #0
 800793a:	66da      	str	r2, [r3, #108]	; 0x6c
 800793c:	687b      	ldr	r3, [r7, #4]
 800793e:	681b      	ldr	r3, [r3, #0]
 8007940:	64fb      	str	r3, [r7, #76]	; 0x4c
 8007942:	6cfb      	ldr	r3, [r7, #76]	; 0x4c
 8007944:	e853 3f00 	ldrex	r3, [r3]
 8007948:	64bb      	str	r3, [r7, #72]	; 0x48
 800794a:	6cbb      	ldr	r3, [r7, #72]	; 0x48
 800794c:	f023 0310 	bic.w	r3, r3, #16
 8007950:	f8c7 30ac 	str.w	r3, [r7, #172]	; 0xac
 8007954:	687b      	ldr	r3, [r7, #4]
 8007956:	681b      	ldr	r3, [r3, #0]
 8007958:	461a      	mov	r2, r3
 800795a:	f8d7 30ac 	ldr.w	r3, [r7, #172]	; 0xac
 800795e:	65bb      	str	r3, [r7, #88]	; 0x58
 8007960:	657a      	str	r2, [r7, #84]	; 0x54
 8007962:	6d79      	ldr	r1, [r7, #84]	; 0x54
 8007964:	6dba      	ldr	r2, [r7, #88]	; 0x58
 8007966:	e841 2300 	strex	r3, r2, [r1]
 800796a:	653b      	str	r3, [r7, #80]	; 0x50
 800796c:	6d3b      	ldr	r3, [r7, #80]	; 0x50
 800796e:	2b00      	cmp	r3, #0
 8007970:	d1e4      	bne.n	800793c <HAL_UART_IRQHandler+0x414>
 8007972:	687b      	ldr	r3, [r7, #4]
 8007974:	f8d3 3080 	ldr.w	r3, [r3, #128]	; 0x80
 8007978:	4618      	mov	r0, r3
 800797a:	f7fb fc72 	bl	8003262 <HAL_DMA_Abort>
 800797e:	687b      	ldr	r3, [r7, #4]
 8007980:	2202      	movs	r2, #2
 8007982:	671a      	str	r2, [r3, #112]	; 0x70
 8007984:	687b      	ldr	r3, [r7, #4]
 8007986:	f8b3 205c 	ldrh.w	r2, [r3, #92]	; 0x5c
 800798a:	687b      	ldr	r3, [r7, #4]
 800798c:	f8b3 305e 	ldrh.w	r3, [r3, #94]	; 0x5e
 8007990:	b29b      	uxth	r3, r3
 8007992:	1ad3      	subs	r3, r2, r3
 8007994:	b29b      	uxth	r3, r3
 8007996:	4619      	mov	r1, r3
 8007998:	6878      	ldr	r0, [r7, #4]
 800799a:	f000 f8fd 	bl	8007b98 <HAL_UARTEx_RxEventCallback>
 800799e:	e0df      	b.n	8007b60 <HAL_UART_IRQHandler+0x638>
 80079a0:	687b      	ldr	r3, [r7, #4]
 80079a2:	f8b3 205c 	ldrh.w	r2, [r3, #92]	; 0x5c
 80079a6:	687b      	ldr	r3, [r7, #4]
 80079a8:	f8b3 305e 	ldrh.w	r3, [r3, #94]	; 0x5e
 80079ac:	b29b      	uxth	r3, r3
 80079ae:	1ad3      	subs	r3, r2, r3
 80079b0:	f8a7 30ce 	strh.w	r3, [r7, #206]	; 0xce
 80079b4:	687b      	ldr	r3, [r7, #4]
 80079b6:	f8b3 305e 	ldrh.w	r3, [r3, #94]	; 0x5e
 80079ba:	b29b      	uxth	r3, r3
 80079bc:	2b00      	cmp	r3, #0
 80079be:	f000 80d1 	beq.w	8007b64 <HAL_UART_IRQHandler+0x63c>
 80079c2:	f8b7 30ce 	ldrh.w	r3, [r7, #206]	; 0xce
 80079c6:	2b00      	cmp	r3, #0
 80079c8:	f000 80cc 	beq.w	8007b64 <HAL_UART_IRQHandler+0x63c>
 80079cc:	687b      	ldr	r3, [r7, #4]
 80079ce:	681b      	ldr	r3, [r3, #0]
 80079d0:	63bb      	str	r3, [r7, #56]	; 0x38
 80079d2:	6bbb      	ldr	r3, [r7, #56]	; 0x38
 80079d4:	e853 3f00 	ldrex	r3, [r3]
 80079d8:	637b      	str	r3, [r7, #52]	; 0x34
 80079da:	6b7b      	ldr	r3, [r7, #52]	; 0x34
 80079dc:	f423 7390 	bic.w	r3, r3, #288	; 0x120
 80079e0:	f8c7 30c8 	str.w	r3, [r7, #200]	; 0xc8
 80079e4:	687b      	ldr	r3, [r7, #4]
 80079e6:	681b      	ldr	r3, [r3, #0]
 80079e8:	461a      	mov	r2, r3
 80079ea:	f8d7 30c8 	ldr.w	r3, [r7, #200]	; 0xc8
 80079ee:	647b      	str	r3, [r7, #68]	; 0x44
 80079f0:	643a      	str	r2, [r7, #64]	; 0x40
 80079f2:	6c39      	ldr	r1, [r7, #64]	; 0x40
 80079f4:	6c7a      	ldr	r2, [r7, #68]	; 0x44
 80079f6:	e841 2300 	strex	r3, r2, [r1]
 80079fa:	63fb      	str	r3, [r7, #60]	; 0x3c
 80079fc:	6bfb      	ldr	r3, [r7, #60]	; 0x3c
 80079fe:	2b00      	cmp	r3, #0
 8007a00:	d1e4      	bne.n	80079cc <HAL_UART_IRQHandler+0x4a4>
 8007a02:	687b      	ldr	r3, [r7, #4]
 8007a04:	681b      	ldr	r3, [r3, #0]
 8007a06:	3308      	adds	r3, #8
 8007a08:	627b      	str	r3, [r7, #36]	; 0x24
 8007a0a:	6a7b      	ldr	r3, [r7, #36]	; 0x24
 8007a0c:	e853 3f00 	ldrex	r3, [r3]
 8007a10:	623b      	str	r3, [r7, #32]
 8007a12:	6a3b      	ldr	r3, [r7, #32]
 8007a14:	f023 5380 	bic.w	r3, r3, #268435456	; 0x10000000
 8007a18:	f023 0301 	bic.w	r3, r3, #1
 8007a1c:	f8c7 30c4 	str.w	r3, [r7, #196]	; 0xc4
 8007a20:	687b      	ldr	r3, [r7, #4]
 8007a22:	681b      	ldr	r3, [r3, #0]
 8007a24:	3308      	adds	r3, #8
 8007a26:	f8d7 20c4 	ldr.w	r2, [r7, #196]	; 0xc4
 8007a2a:	633a      	str	r2, [r7, #48]	; 0x30
 8007a2c:	62fb      	str	r3, [r7, #44]	; 0x2c
 8007a2e:	6af9      	ldr	r1, [r7, #44]	; 0x2c
 8007a30:	6b3a      	ldr	r2, [r7, #48]	; 0x30
 8007a32:	e841 2300 	strex	r3, r2, [r1]
 8007a36:	62bb      	str	r3, [r7, #40]	; 0x28
 8007a38:	6abb      	ldr	r3, [r7, #40]	; 0x28
 8007a3a:	2b00      	cmp	r3, #0
 8007a3c:	d1e1      	bne.n	8007a02 <HAL_UART_IRQHandler+0x4da>
 8007a3e:	687b      	ldr	r3, [r7, #4]
 8007a40:	2220      	movs	r2, #32
 8007a42:	f8c3 208c 	str.w	r2, [r3, #140]	; 0x8c
 8007a46:	687b      	ldr	r3, [r7, #4]
 8007a48:	2200      	movs	r2, #0
 8007a4a:	66da      	str	r2, [r3, #108]	; 0x6c
 8007a4c:	687b      	ldr	r3, [r7, #4]
 8007a4e:	2200      	movs	r2, #0
 8007a50:	675a      	str	r2, [r3, #116]	; 0x74
 8007a52:	687b      	ldr	r3, [r7, #4]
 8007a54:	681b      	ldr	r3, [r3, #0]
 8007a56:	613b      	str	r3, [r7, #16]
 8007a58:	693b      	ldr	r3, [r7, #16]
 8007a5a:	e853 3f00 	ldrex	r3, [r3]
 8007a5e:	60fb      	str	r3, [r7, #12]
 8007a60:	68fb      	ldr	r3, [r7, #12]
 8007a62:	f023 0310 	bic.w	r3, r3, #16
 8007a66:	f8c7 30c0 	str.w	r3, [r7, #192]	; 0xc0
 8007a6a:	687b      	ldr	r3, [r7, #4]
 8007a6c:	681b      	ldr	r3, [r3, #0]
 8007a6e:	461a      	mov	r2, r3
 8007a70:	f8d7 30c0 	ldr.w	r3, [r7, #192]	; 0xc0
 8007a74:	61fb      	str	r3, [r7, #28]
 8007a76:	61ba      	str	r2, [r7, #24]
 8007a78:	69b9      	ldr	r1, [r7, #24]
 8007a7a:	69fa      	ldr	r2, [r7, #28]
 8007a7c:	e841 2300 	strex	r3, r2, [r1]
 8007a80:	617b      	str	r3, [r7, #20]
 8007a82:	697b      	ldr	r3, [r7, #20]
 8007a84:	2b00      	cmp	r3, #0
 8007a86:	d1e4      	bne.n	8007a52 <HAL_UART_IRQHandler+0x52a>
 8007a88:	687b      	ldr	r3, [r7, #4]
 8007a8a:	2202      	movs	r2, #2
 8007a8c:	671a      	str	r2, [r3, #112]	; 0x70
 8007a8e:	f8b7 30ce 	ldrh.w	r3, [r7, #206]	; 0xce
 8007a92:	4619      	mov	r1, r3
 8007a94:	6878      	ldr	r0, [r7, #4]
 8007a96:	f000 f87f 	bl	8007b98 <HAL_UARTEx_RxEventCallback>
 8007a9a:	e063      	b.n	8007b64 <HAL_UART_IRQHandler+0x63c>
 8007a9c:	f8d7 30e4 	ldr.w	r3, [r7, #228]	; 0xe4
 8007aa0:	f403 1380 	and.w	r3, r3, #1048576	; 0x100000
 8007aa4:	2b00      	cmp	r3, #0
 8007aa6:	d00e      	beq.n	8007ac6 <HAL_UART_IRQHandler+0x59e>
 8007aa8:	f8d7 30dc 	ldr.w	r3, [r7, #220]	; 0xdc
 8007aac:	f403 0380 	and.w	r3, r3, #4194304	; 0x400000
 8007ab0:	2b00      	cmp	r3, #0
 8007ab2:	d008      	beq.n	8007ac6 <HAL_UART_IRQHandler+0x59e>
 8007ab4:	687b      	ldr	r3, [r7, #4]
 8007ab6:	681b      	ldr	r3, [r3, #0]
 8007ab8:	f44f 1280 	mov.w	r2, #1048576	; 0x100000
 8007abc:	621a      	str	r2, [r3, #32]
 8007abe:	6878      	ldr	r0, [r7, #4]
 8007ac0:	f000 fda2 	bl	8008608 <HAL_UARTEx_WakeupCallback>
 8007ac4:	e051      	b.n	8007b6a <HAL_UART_IRQHandler+0x642>
 8007ac6:	f8d7 30e4 	ldr.w	r3, [r7, #228]	; 0xe4
 8007aca:	f003 0380 	and.w	r3, r3, #128	; 0x80
 8007ace:	2b00      	cmp	r3, #0
 8007ad0:	d014      	beq.n	8007afc <HAL_UART_IRQHandler+0x5d4>
 8007ad2:	f8d7 30e0 	ldr.w	r3, [r7, #224]	; 0xe0
 8007ad6:	f003 0380 	and.w	r3, r3, #128	; 0x80
 8007ada:	2b00      	cmp	r3, #0
 8007adc:	d105      	bne.n	8007aea <HAL_UART_IRQHandler+0x5c2>
 8007ade:	f8d7 30dc 	ldr.w	r3, [r7, #220]	; 0xdc
 8007ae2:	f403 0300 	and.w	r3, r3, #8388608	; 0x800000
 8007ae6:	2b00      	cmp	r3, #0
 8007ae8:	d008      	beq.n	8007afc <HAL_UART_IRQHandler+0x5d4>
 8007aea:	687b      	ldr	r3, [r7, #4]
 8007aec:	6f9b      	ldr	r3, [r3, #120]	; 0x78
 8007aee:	2b00      	cmp	r3, #0
 8007af0:	d03a      	beq.n	8007b68 <HAL_UART_IRQHandler+0x640>
 8007af2:	687b      	ldr	r3, [r7, #4]
 8007af4:	6f9b      	ldr	r3, [r3, #120]	; 0x78
 8007af6:	6878      	ldr	r0, [r7, #4]
 8007af8:	4798      	blx	r3
 8007afa:	e035      	b.n	8007b68 <HAL_UART_IRQHandler+0x640>
 8007afc:	f8d7 30e4 	ldr.w	r3, [r7, #228]	; 0xe4
 8007b00:	f003 0340 	and.w	r3, r3, #64	; 0x40
 8007b04:	2b00      	cmp	r3, #0
 8007b06:	d009      	beq.n	8007b1c <HAL_UART_IRQHandler+0x5f4>
 8007b08:	f8d7 30e0 	ldr.w	r3, [r7, #224]	; 0xe0
 8007b0c:	f003 0340 	and.w	r3, r3, #64	; 0x40
 8007b10:	2b00      	cmp	r3, #0
 8007b12:	d003      	beq.n	8007b1c <HAL_UART_IRQHandler+0x5f4>
 8007b14:	6878      	ldr	r0, [r7, #4]
 8007b16:	f000 fd4c 	bl	80085b2 <UART_EndTransmit_IT>
 8007b1a:	e026      	b.n	8007b6a <HAL_UART_IRQHandler+0x642>
 8007b1c:	f8d7 30e4 	ldr.w	r3, [r7, #228]	; 0xe4
 8007b20:	f403 0300 	and.w	r3, r3, #8388608	; 0x800000
 8007b24:	2b00      	cmp	r3, #0
 8007b26:	d009      	beq.n	8007b3c <HAL_UART_IRQHandler+0x614>
 8007b28:	f8d7 30e0 	ldr.w	r3, [r7, #224]	; 0xe0
 8007b2c:	f003 4380 	and.w	r3, r3, #1073741824	; 0x40000000
 8007b30:	2b00      	cmp	r3, #0
 8007b32:	d003      	beq.n	8007b3c <HAL_UART_IRQHandler+0x614>
 8007b34:	6878      	ldr	r0, [r7, #4]
 8007b36:	f000 fd7b 	bl	8008630 <HAL_UARTEx_TxFifoEmptyCallback>
 8007b3a:	e016      	b.n	8007b6a <HAL_UART_IRQHandler+0x642>
 8007b3c:	f8d7 30e4 	ldr.w	r3, [r7, #228]	; 0xe4
 8007b40:	f003 7380 	and.w	r3, r3, #16777216	; 0x1000000
 8007b44:	2b00      	cmp	r3, #0
 8007b46:	d010      	beq.n	8007b6a <HAL_UART_IRQHandler+0x642>
 8007b48:	f8d7 30e0 	ldr.w	r3, [r7, #224]	; 0xe0
 8007b4c:	2b00      	cmp	r3, #0
 8007b4e:	da0c      	bge.n	8007b6a <HAL_UART_IRQHandler+0x642>
 8007b50:	6878      	ldr	r0, [r7, #4]
 8007b52:	f000 fd63 	bl	800861c <HAL_UARTEx_RxFifoFullCallback>
 8007b56:	e008      	b.n	8007b6a <HAL_UART_IRQHandler+0x642>
 8007b58:	bf00      	nop
 8007b5a:	e006      	b.n	8007b6a <HAL_UART_IRQHandler+0x642>
 8007b5c:	bf00      	nop
 8007b5e:	e004      	b.n	8007b6a <HAL_UART_IRQHandler+0x642>
 8007b60:	bf00      	nop
 8007b62:	e002      	b.n	8007b6a <HAL_UART_IRQHandler+0x642>
 8007b64:	bf00      	nop
 8007b66:	e000      	b.n	8007b6a <HAL_UART_IRQHandler+0x642>
 8007b68:	bf00      	nop
 8007b6a:	37e8      	adds	r7, #232	; 0xe8
 8007b6c:	46bd      	mov	sp, r7
 8007b6e:	bd80      	pop	{r7, pc}

08007b70 <HAL_UART_TxCpltCallback>:
 8007b70:	b480      	push	{r7}
 8007b72:	b083      	sub	sp, #12
 8007b74:	af00      	add	r7, sp, #0
 8007b76:	6078      	str	r0, [r7, #4]
 8007b78:	bf00      	nop
 8007b7a:	370c      	adds	r7, #12
 8007b7c:	46bd      	mov	sp, r7
 8007b7e:	f85d 7b04 	ldr.w	r7, [sp], #4
 8007b82:	4770      	bx	lr

08007b84 <HAL_UART_ErrorCallback>:
 8007b84:	b480      	push	{r7}
 8007b86:	b083      	sub	sp, #12
 8007b88:	af00      	add	r7, sp, #0
 8007b8a:	6078      	str	r0, [r7, #4]
 8007b8c:	bf00      	nop
 8007b8e:	370c      	adds	r7, #12
 8007b90:	46bd      	mov	sp, r7
 8007b92:	f85d 7b04 	ldr.w	r7, [sp], #4
 8007b96:	4770      	bx	lr

08007b98 <HAL_UARTEx_RxEventCallback>:
 8007b98:	b480      	push	{r7}
 8007b9a:	b083      	sub	sp, #12
 8007b9c:	af00      	add	r7, sp, #0
 8007b9e:	6078      	str	r0, [r7, #4]
 8007ba0:	460b      	mov	r3, r1
 8007ba2:	807b      	strh	r3, [r7, #2]
 8007ba4:	bf00      	nop
 8007ba6:	370c      	adds	r7, #12
 8007ba8:	46bd      	mov	sp, r7
 8007baa:	f85d 7b04 	ldr.w	r7, [sp], #4
 8007bae:	4770      	bx	lr

08007bb0 <UART_SetConfig>:
 8007bb0:	e92d 4fb0 	stmdb	sp!, {r4, r5, r7, r8, r9, sl, fp, lr}
 8007bb4:	b08c      	sub	sp, #48	; 0x30
 8007bb6:	af00      	add	r7, sp, #0
 8007bb8:	6178      	str	r0, [r7, #20]
 8007bba:	2300      	movs	r3, #0
 8007bbc:	f887 302a 	strb.w	r3, [r7, #42]	; 0x2a
 8007bc0:	697b      	ldr	r3, [r7, #20]
 8007bc2:	689a      	ldr	r2, [r3, #8]
 8007bc4:	697b      	ldr	r3, [r7, #20]
 8007bc6:	691b      	ldr	r3, [r3, #16]
 8007bc8:	431a      	orrs	r2, r3
 8007bca:	697b      	ldr	r3, [r7, #20]
 8007bcc:	695b      	ldr	r3, [r3, #20]
 8007bce:	431a      	orrs	r2, r3
 8007bd0:	697b      	ldr	r3, [r7, #20]
 8007bd2:	69db      	ldr	r3, [r3, #28]
 8007bd4:	4313      	orrs	r3, r2
 8007bd6:	62fb      	str	r3, [r7, #44]	; 0x2c
 8007bd8:	697b      	ldr	r3, [r7, #20]
 8007bda:	681b      	ldr	r3, [r3, #0]
 8007bdc:	681a      	ldr	r2, [r3, #0]
 8007bde:	4bab      	ldr	r3, [pc, #684]	; (8007e8c <UART_SetConfig+0x2dc>)
 8007be0:	4013      	ands	r3, r2
 8007be2:	697a      	ldr	r2, [r7, #20]
 8007be4:	6812      	ldr	r2, [r2, #0]
 8007be6:	6af9      	ldr	r1, [r7, #44]	; 0x2c
 8007be8:	430b      	orrs	r3, r1
 8007bea:	6013      	str	r3, [r2, #0]
 8007bec:	697b      	ldr	r3, [r7, #20]
 8007bee:	681b      	ldr	r3, [r3, #0]
 8007bf0:	685b      	ldr	r3, [r3, #4]
 8007bf2:	f423 5140 	bic.w	r1, r3, #12288	; 0x3000
 8007bf6:	697b      	ldr	r3, [r7, #20]
 8007bf8:	68da      	ldr	r2, [r3, #12]
 8007bfa:	697b      	ldr	r3, [r7, #20]
 8007bfc:	681b      	ldr	r3, [r3, #0]
 8007bfe:	430a      	orrs	r2, r1
 8007c00:	605a      	str	r2, [r3, #4]
 8007c02:	697b      	ldr	r3, [r7, #20]
 8007c04:	699b      	ldr	r3, [r3, #24]
 8007c06:	62fb      	str	r3, [r7, #44]	; 0x2c
 8007c08:	697b      	ldr	r3, [r7, #20]
 8007c0a:	681b      	ldr	r3, [r3, #0]
 8007c0c:	4aa0      	ldr	r2, [pc, #640]	; (8007e90 <UART_SetConfig+0x2e0>)
 8007c0e:	4293      	cmp	r3, r2
 8007c10:	d004      	beq.n	8007c1c <UART_SetConfig+0x6c>
 8007c12:	697b      	ldr	r3, [r7, #20]
 8007c14:	6a1b      	ldr	r3, [r3, #32]
 8007c16:	6afa      	ldr	r2, [r7, #44]	; 0x2c
 8007c18:	4313      	orrs	r3, r2
 8007c1a:	62fb      	str	r3, [r7, #44]	; 0x2c
 8007c1c:	697b      	ldr	r3, [r7, #20]
 8007c1e:	681b      	ldr	r3, [r3, #0]
 8007c20:	689b      	ldr	r3, [r3, #8]
 8007c22:	f023 436e 	bic.w	r3, r3, #3992977408	; 0xee000000
 8007c26:	f423 6330 	bic.w	r3, r3, #2816	; 0xb00
 8007c2a:	697a      	ldr	r2, [r7, #20]
 8007c2c:	6812      	ldr	r2, [r2, #0]
 8007c2e:	6af9      	ldr	r1, [r7, #44]	; 0x2c
 8007c30:	430b      	orrs	r3, r1
 8007c32:	6093      	str	r3, [r2, #8]
 8007c34:	697b      	ldr	r3, [r7, #20]
 8007c36:	681b      	ldr	r3, [r3, #0]
 8007c38:	6adb      	ldr	r3, [r3, #44]	; 0x2c
 8007c3a:	f023 010f 	bic.w	r1, r3, #15
 8007c3e:	697b      	ldr	r3, [r7, #20]
 8007c40:	6a5a      	ldr	r2, [r3, #36]	; 0x24
 8007c42:	697b      	ldr	r3, [r7, #20]
 8007c44:	681b      	ldr	r3, [r3, #0]
 8007c46:	430a      	orrs	r2, r1
 8007c48:	62da      	str	r2, [r3, #44]	; 0x2c
 8007c4a:	697b      	ldr	r3, [r7, #20]
 8007c4c:	681b      	ldr	r3, [r3, #0]
 8007c4e:	4a91      	ldr	r2, [pc, #580]	; (8007e94 <UART_SetConfig+0x2e4>)
 8007c50:	4293      	cmp	r3, r2
 8007c52:	d125      	bne.n	8007ca0 <UART_SetConfig+0xf0>
 8007c54:	4b90      	ldr	r3, [pc, #576]	; (8007e98 <UART_SetConfig+0x2e8>)
 8007c56:	f8d3 3088 	ldr.w	r3, [r3, #136]	; 0x88
 8007c5a:	f003 0303 	and.w	r3, r3, #3
 8007c5e:	2b03      	cmp	r3, #3
 8007c60:	d81a      	bhi.n	8007c98 <UART_SetConfig+0xe8>
 8007c62:	a201      	add	r2, pc, #4	; (adr r2, 8007c68 <UART_SetConfig+0xb8>)
 8007c64:	f852 f023 	ldr.w	pc, [r2, r3, lsl #2]
 8007c68:	08007c79 	.word	0x08007c79
 8007c6c:	08007c89 	.word	0x08007c89
 8007c70:	08007c81 	.word	0x08007c81
 8007c74:	08007c91 	.word	0x08007c91
 8007c78:	2301      	movs	r3, #1
 8007c7a:	f887 302b 	strb.w	r3, [r7, #43]	; 0x2b
 8007c7e:	e0d6      	b.n	8007e2e <UART_SetConfig+0x27e>
 8007c80:	2302      	movs	r3, #2
 8007c82:	f887 302b 	strb.w	r3, [r7, #43]	; 0x2b
 8007c86:	e0d2      	b.n	8007e2e <UART_SetConfig+0x27e>
 8007c88:	2304      	movs	r3, #4
 8007c8a:	f887 302b 	strb.w	r3, [r7, #43]	; 0x2b
 8007c8e:	e0ce      	b.n	8007e2e <UART_SetConfig+0x27e>
 8007c90:	2308      	movs	r3, #8
 8007c92:	f887 302b 	strb.w	r3, [r7, #43]	; 0x2b
 8007c96:	e0ca      	b.n	8007e2e <UART_SetConfig+0x27e>
 8007c98:	2310      	movs	r3, #16
 8007c9a:	f887 302b 	strb.w	r3, [r7, #43]	; 0x2b
 8007c9e:	e0c6      	b.n	8007e2e <UART_SetConfig+0x27e>
 8007ca0:	697b      	ldr	r3, [r7, #20]
 8007ca2:	681b      	ldr	r3, [r3, #0]
 8007ca4:	4a7d      	ldr	r2, [pc, #500]	; (8007e9c <UART_SetConfig+0x2ec>)
 8007ca6:	4293      	cmp	r3, r2
 8007ca8:	d138      	bne.n	8007d1c <UART_SetConfig+0x16c>
 8007caa:	4b7b      	ldr	r3, [pc, #492]	; (8007e98 <UART_SetConfig+0x2e8>)
 8007cac:	f8d3 3088 	ldr.w	r3, [r3, #136]	; 0x88
 8007cb0:	f003 030c 	and.w	r3, r3, #12
 8007cb4:	2b0c      	cmp	r3, #12
 8007cb6:	d82d      	bhi.n	8007d14 <UART_SetConfig+0x164>
 8007cb8:	a201      	add	r2, pc, #4	; (adr r2, 8007cc0 <UART_SetConfig+0x110>)
 8007cba:	f852 f023 	ldr.w	pc, [r2, r3, lsl #2]
 8007cbe:	bf00      	nop
 8007cc0:	08007cf5 	.word	0x08007cf5
 8007cc4:	08007d15 	.word	0x08007d15
 8007cc8:	08007d15 	.word	0x08007d15
 8007ccc:	08007d15 	.word	0x08007d15
 8007cd0:	08007d05 	.word	0x08007d05
 8007cd4:	08007d15 	.word	0x08007d15
 8007cd8:	08007d15 	.word	0x08007d15
 8007cdc:	08007d15 	.word	0x08007d15
 8007ce0:	08007cfd 	.word	0x08007cfd
 8007ce4:	08007d15 	.word	0x08007d15
 8007ce8:	08007d15 	.word	0x08007d15
 8007cec:	08007d15 	.word	0x08007d15
 8007cf0:	08007d0d 	.word	0x08007d0d
 8007cf4:	2300      	movs	r3, #0
 8007cf6:	f887 302b 	strb.w	r3, [r7, #43]	; 0x2b
 8007cfa:	e098      	b.n	8007e2e <UART_SetConfig+0x27e>
 8007cfc:	2302      	movs	r3, #2
 8007cfe:	f887 302b 	strb.w	r3, [r7, #43]	; 0x2b
 8007d02:	e094      	b.n	8007e2e <UART_SetConfig+0x27e>
 8007d04:	2304      	movs	r3, #4
 8007d06:	f887 302b 	strb.w	r3, [r7, #43]	; 0x2b
 8007d0a:	e090      	b.n	8007e2e <UART_SetConfig+0x27e>
 8007d0c:	2308      	movs	r3, #8
 8007d0e:	f887 302b 	strb.w	r3, [r7, #43]	; 0x2b
 8007d12:	e08c      	b.n	8007e2e <UART_SetConfig+0x27e>
 8007d14:	2310      	movs	r3, #16
 8007d16:	f887 302b 	strb.w	r3, [r7, #43]	; 0x2b
 8007d1a:	e088      	b.n	8007e2e <UART_SetConfig+0x27e>
 8007d1c:	697b      	ldr	r3, [r7, #20]
 8007d1e:	681b      	ldr	r3, [r3, #0]
 8007d20:	4a5f      	ldr	r2, [pc, #380]	; (8007ea0 <UART_SetConfig+0x2f0>)
 8007d22:	4293      	cmp	r3, r2
 8007d24:	d125      	bne.n	8007d72 <UART_SetConfig+0x1c2>
 8007d26:	4b5c      	ldr	r3, [pc, #368]	; (8007e98 <UART_SetConfig+0x2e8>)
 8007d28:	f8d3 3088 	ldr.w	r3, [r3, #136]	; 0x88
 8007d2c:	f003 0330 	and.w	r3, r3, #48	; 0x30
 8007d30:	2b30      	cmp	r3, #48	; 0x30
 8007d32:	d016      	beq.n	8007d62 <UART_SetConfig+0x1b2>
 8007d34:	2b30      	cmp	r3, #48	; 0x30
 8007d36:	d818      	bhi.n	8007d6a <UART_SetConfig+0x1ba>
 8007d38:	2b20      	cmp	r3, #32
 8007d3a:	d00a      	beq.n	8007d52 <UART_SetConfig+0x1a2>
 8007d3c:	2b20      	cmp	r3, #32
 8007d3e:	d814      	bhi.n	8007d6a <UART_SetConfig+0x1ba>
 8007d40:	2b00      	cmp	r3, #0
 8007d42:	d002      	beq.n	8007d4a <UART_SetConfig+0x19a>
 8007d44:	2b10      	cmp	r3, #16
 8007d46:	d008      	beq.n	8007d5a <UART_SetConfig+0x1aa>
 8007d48:	e00f      	b.n	8007d6a <UART_SetConfig+0x1ba>
 8007d4a:	2300      	movs	r3, #0
 8007d4c:	f887 302b 	strb.w	r3, [r7, #43]	; 0x2b
 8007d50:	e06d      	b.n	8007e2e <UART_SetConfig+0x27e>
 8007d52:	2302      	movs	r3, #2
 8007d54:	f887 302b 	strb.w	r3, [r7, #43]	; 0x2b
 8007d58:	e069      	b.n	8007e2e <UART_SetConfig+0x27e>
 8007d5a:	2304      	movs	r3, #4
 8007d5c:	f887 302b 	strb.w	r3, [r7, #43]	; 0x2b
 8007d60:	e065      	b.n	8007e2e <UART_SetConfig+0x27e>
 8007d62:	2308      	movs	r3, #8
 8007d64:	f887 302b 	strb.w	r3, [r7, #43]	; 0x2b
 8007d68:	e061      	b.n	8007e2e <UART_SetConfig+0x27e>
 8007d6a:	2310      	movs	r3, #16
 8007d6c:	f887 302b 	strb.w	r3, [r7, #43]	; 0x2b
 8007d70:	e05d      	b.n	8007e2e <UART_SetConfig+0x27e>
 8007d72:	697b      	ldr	r3, [r7, #20]
 8007d74:	681b      	ldr	r3, [r3, #0]
 8007d76:	4a4b      	ldr	r2, [pc, #300]	; (8007ea4 <UART_SetConfig+0x2f4>)
 8007d78:	4293      	cmp	r3, r2
 8007d7a:	d125      	bne.n	8007dc8 <UART_SetConfig+0x218>
 8007d7c:	4b46      	ldr	r3, [pc, #280]	; (8007e98 <UART_SetConfig+0x2e8>)
 8007d7e:	f8d3 3088 	ldr.w	r3, [r3, #136]	; 0x88
 8007d82:	f003 03c0 	and.w	r3, r3, #192	; 0xc0
 8007d86:	2bc0      	cmp	r3, #192	; 0xc0
 8007d88:	d016      	beq.n	8007db8 <UART_SetConfig+0x208>
 8007d8a:	2bc0      	cmp	r3, #192	; 0xc0
 8007d8c:	d818      	bhi.n	8007dc0 <UART_SetConfig+0x210>
 8007d8e:	2b80      	cmp	r3, #128	; 0x80
 8007d90:	d00a      	beq.n	8007da8 <UART_SetConfig+0x1f8>
 8007d92:	2b80      	cmp	r3, #128	; 0x80
 8007d94:	d814      	bhi.n	8007dc0 <UART_SetConfig+0x210>
 8007d96:	2b00      	cmp	r3, #0
 8007d98:	d002      	beq.n	8007da0 <UART_SetConfig+0x1f0>
 8007d9a:	2b40      	cmp	r3, #64	; 0x40
 8007d9c:	d008      	beq.n	8007db0 <UART_SetConfig+0x200>
 8007d9e:	e00f      	b.n	8007dc0 <UART_SetConfig+0x210>
 8007da0:	2300      	movs	r3, #0
 8007da2:	f887 302b 	strb.w	r3, [r7, #43]	; 0x2b
 8007da6:	e042      	b.n	8007e2e <UART_SetConfig+0x27e>
 8007da8:	2302      	movs	r3, #2
 8007daa:	f887 302b 	strb.w	r3, [r7, #43]	; 0x2b
 8007dae:	e03e      	b.n	8007e2e <UART_SetConfig+0x27e>
 8007db0:	2304      	movs	r3, #4
 8007db2:	f887 302b 	strb.w	r3, [r7, #43]	; 0x2b
 8007db6:	e03a      	b.n	8007e2e <UART_SetConfig+0x27e>
 8007db8:	2308      	movs	r3, #8
 8007dba:	f887 302b 	strb.w	r3, [r7, #43]	; 0x2b
 8007dbe:	e036      	b.n	8007e2e <UART_SetConfig+0x27e>
 8007dc0:	2310      	movs	r3, #16
 8007dc2:	f887 302b 	strb.w	r3, [r7, #43]	; 0x2b
 8007dc6:	e032      	b.n	8007e2e <UART_SetConfig+0x27e>
 8007dc8:	697b      	ldr	r3, [r7, #20]
 8007dca:	681b      	ldr	r3, [r3, #0]
 8007dcc:	4a30      	ldr	r2, [pc, #192]	; (8007e90 <UART_SetConfig+0x2e0>)
 8007dce:	4293      	cmp	r3, r2
 8007dd0:	d12a      	bne.n	8007e28 <UART_SetConfig+0x278>
 8007dd2:	4b31      	ldr	r3, [pc, #196]	; (8007e98 <UART_SetConfig+0x2e8>)
 8007dd4:	f8d3 3088 	ldr.w	r3, [r3, #136]	; 0x88
 8007dd8:	f403 6340 	and.w	r3, r3, #3072	; 0xc00
 8007ddc:	f5b3 6f40 	cmp.w	r3, #3072	; 0xc00
 8007de0:	d01a      	beq.n	8007e18 <UART_SetConfig+0x268>
 8007de2:	f5b3 6f40 	cmp.w	r3, #3072	; 0xc00
 8007de6:	d81b      	bhi.n	8007e20 <UART_SetConfig+0x270>
 8007de8:	f5b3 6f00 	cmp.w	r3, #2048	; 0x800
 8007dec:	d00c      	beq.n	8007e08 <UART_SetConfig+0x258>
 8007dee:	f5b3 6f00 	cmp.w	r3, #2048	; 0x800
 8007df2:	d815      	bhi.n	8007e20 <UART_SetConfig+0x270>
 8007df4:	2b00      	cmp	r3, #0
 8007df6:	d003      	beq.n	8007e00 <UART_SetConfig+0x250>
 8007df8:	f5b3 6f80 	cmp.w	r3, #1024	; 0x400
 8007dfc:	d008      	beq.n	8007e10 <UART_SetConfig+0x260>
 8007dfe:	e00f      	b.n	8007e20 <UART_SetConfig+0x270>
 8007e00:	2300      	movs	r3, #0
 8007e02:	f887 302b 	strb.w	r3, [r7, #43]	; 0x2b
 8007e06:	e012      	b.n	8007e2e <UART_SetConfig+0x27e>
 8007e08:	2302      	movs	r3, #2
 8007e0a:	f887 302b 	strb.w	r3, [r7, #43]	; 0x2b
 8007e0e:	e00e      	b.n	8007e2e <UART_SetConfig+0x27e>
 8007e10:	2304      	movs	r3, #4
 8007e12:	f887 302b 	strb.w	r3, [r7, #43]	; 0x2b
 8007e16:	e00a      	b.n	8007e2e <UART_SetConfig+0x27e>
 8007e18:	2308      	movs	r3, #8
 8007e1a:	f887 302b 	strb.w	r3, [r7, #43]	; 0x2b
 8007e1e:	e006      	b.n	8007e2e <UART_SetConfig+0x27e>
 8007e20:	2310      	movs	r3, #16
 8007e22:	f887 302b 	strb.w	r3, [r7, #43]	; 0x2b
 8007e26:	e002      	b.n	8007e2e <UART_SetConfig+0x27e>
 8007e28:	2310      	movs	r3, #16
 8007e2a:	f887 302b 	strb.w	r3, [r7, #43]	; 0x2b
 8007e2e:	697b      	ldr	r3, [r7, #20]
 8007e30:	681b      	ldr	r3, [r3, #0]
 8007e32:	4a17      	ldr	r2, [pc, #92]	; (8007e90 <UART_SetConfig+0x2e0>)
 8007e34:	4293      	cmp	r3, r2
 8007e36:	f040 80a8 	bne.w	8007f8a <UART_SetConfig+0x3da>
 8007e3a:	f897 302b 	ldrb.w	r3, [r7, #43]	; 0x2b
 8007e3e:	2b08      	cmp	r3, #8
 8007e40:	d834      	bhi.n	8007eac <UART_SetConfig+0x2fc>
 8007e42:	a201      	add	r2, pc, #4	; (adr r2, 8007e48 <UART_SetConfig+0x298>)
 8007e44:	f852 f023 	ldr.w	pc, [r2, r3, lsl #2]
 8007e48:	08007e6d 	.word	0x08007e6d
 8007e4c:	08007ead 	.word	0x08007ead
 8007e50:	08007e75 	.word	0x08007e75
 8007e54:	08007ead 	.word	0x08007ead
 8007e58:	08007e7b 	.word	0x08007e7b
 8007e5c:	08007ead 	.word	0x08007ead
 8007e60:	08007ead 	.word	0x08007ead
 8007e64:	08007ead 	.word	0x08007ead
 8007e68:	08007e83 	.word	0x08007e83
 8007e6c:	f7fe f974 	bl	8006158 <HAL_RCC_GetPCLK1Freq>
 8007e70:	6278      	str	r0, [r7, #36]	; 0x24
 8007e72:	e021      	b.n	8007eb8 <UART_SetConfig+0x308>
 8007e74:	4b0c      	ldr	r3, [pc, #48]	; (8007ea8 <UART_SetConfig+0x2f8>)
 8007e76:	627b      	str	r3, [r7, #36]	; 0x24
 8007e78:	e01e      	b.n	8007eb8 <UART_SetConfig+0x308>
 8007e7a:	f7fe f8ff 	bl	800607c <HAL_RCC_GetSysClockFreq>
 8007e7e:	6278      	str	r0, [r7, #36]	; 0x24
 8007e80:	e01a      	b.n	8007eb8 <UART_SetConfig+0x308>
 8007e82:	f44f 4300 	mov.w	r3, #32768	; 0x8000
 8007e86:	627b      	str	r3, [r7, #36]	; 0x24
 8007e88:	e016      	b.n	8007eb8 <UART_SetConfig+0x308>
 8007e8a:	bf00      	nop
 8007e8c:	cfff69f3 	.word	0xcfff69f3
 8007e90:	40008000 	.word	0x40008000
 8007e94:	40013800 	.word	0x40013800
 8007e98:	40021000 	.word	0x40021000
 8007e9c:	40004400 	.word	0x40004400
 8007ea0:	40004800 	.word	0x40004800
 8007ea4:	40004c00 	.word	0x40004c00
 8007ea8:	00f42400 	.word	0x00f42400
 8007eac:	2300      	movs	r3, #0
 8007eae:	627b      	str	r3, [r7, #36]	; 0x24
 8007eb0:	2301      	movs	r3, #1
 8007eb2:	f887 302a 	strb.w	r3, [r7, #42]	; 0x2a
 8007eb6:	bf00      	nop
 8007eb8:	6a7b      	ldr	r3, [r7, #36]	; 0x24
 8007eba:	2b00      	cmp	r3, #0
 8007ebc:	f000 812a 	beq.w	8008114 <UART_SetConfig+0x564>
 8007ec0:	697b      	ldr	r3, [r7, #20]
 8007ec2:	6a5b      	ldr	r3, [r3, #36]	; 0x24
 8007ec4:	4a9e      	ldr	r2, [pc, #632]	; (8008140 <UART_SetConfig+0x590>)
 8007ec6:	f832 3013 	ldrh.w	r3, [r2, r3, lsl #1]
 8007eca:	461a      	mov	r2, r3
 8007ecc:	6a7b      	ldr	r3, [r7, #36]	; 0x24
 8007ece:	fbb3 f3f2 	udiv	r3, r3, r2
 8007ed2:	61bb      	str	r3, [r7, #24]
 8007ed4:	697b      	ldr	r3, [r7, #20]
 8007ed6:	685a      	ldr	r2, [r3, #4]
 8007ed8:	4613      	mov	r3, r2
 8007eda:	005b      	lsls	r3, r3, #1
 8007edc:	4413      	add	r3, r2
 8007ede:	69ba      	ldr	r2, [r7, #24]
 8007ee0:	429a      	cmp	r2, r3
 8007ee2:	d305      	bcc.n	8007ef0 <UART_SetConfig+0x340>
 8007ee4:	697b      	ldr	r3, [r7, #20]
 8007ee6:	685b      	ldr	r3, [r3, #4]
 8007ee8:	031b      	lsls	r3, r3, #12
 8007eea:	69ba      	ldr	r2, [r7, #24]
 8007eec:	429a      	cmp	r2, r3
 8007eee:	d903      	bls.n	8007ef8 <UART_SetConfig+0x348>
 8007ef0:	2301      	movs	r3, #1
 8007ef2:	f887 302a 	strb.w	r3, [r7, #42]	; 0x2a
 8007ef6:	e10d      	b.n	8008114 <UART_SetConfig+0x564>
 8007ef8:	6a7b      	ldr	r3, [r7, #36]	; 0x24
 8007efa:	2200      	movs	r2, #0
 8007efc:	60bb      	str	r3, [r7, #8]
 8007efe:	60fa      	str	r2, [r7, #12]
 8007f00:	697b      	ldr	r3, [r7, #20]
 8007f02:	6a5b      	ldr	r3, [r3, #36]	; 0x24
 8007f04:	4a8e      	ldr	r2, [pc, #568]	; (8008140 <UART_SetConfig+0x590>)
 8007f06:	f832 3013 	ldrh.w	r3, [r2, r3, lsl #1]
 8007f0a:	b29b      	uxth	r3, r3
 8007f0c:	2200      	movs	r2, #0
 8007f0e:	603b      	str	r3, [r7, #0]
 8007f10:	607a      	str	r2, [r7, #4]
 8007f12:	e9d7 2300 	ldrd	r2, r3, [r7]
 8007f16:	e9d7 0102 	ldrd	r0, r1, [r7, #8]
 8007f1a:	f7f8 f97d 	bl	8000218 <__aeabi_uldivmod>
 8007f1e:	4602      	mov	r2, r0
 8007f20:	460b      	mov	r3, r1
 8007f22:	4610      	mov	r0, r2
 8007f24:	4619      	mov	r1, r3
 8007f26:	f04f 0200 	mov.w	r2, #0
 8007f2a:	f04f 0300 	mov.w	r3, #0
 8007f2e:	020b      	lsls	r3, r1, #8
 8007f30:	ea43 6310 	orr.w	r3, r3, r0, lsr #24
 8007f34:	0202      	lsls	r2, r0, #8
 8007f36:	6979      	ldr	r1, [r7, #20]
 8007f38:	6849      	ldr	r1, [r1, #4]
 8007f3a:	0849      	lsrs	r1, r1, #1
 8007f3c:	2000      	movs	r0, #0
 8007f3e:	460c      	mov	r4, r1
 8007f40:	4605      	mov	r5, r0
 8007f42:	eb12 0804 	adds.w	r8, r2, r4
 8007f46:	eb43 0905 	adc.w	r9, r3, r5
 8007f4a:	697b      	ldr	r3, [r7, #20]
 8007f4c:	685b      	ldr	r3, [r3, #4]
 8007f4e:	2200      	movs	r2, #0
 8007f50:	469a      	mov	sl, r3
 8007f52:	4693      	mov	fp, r2
 8007f54:	4652      	mov	r2, sl
 8007f56:	465b      	mov	r3, fp
 8007f58:	4640      	mov	r0, r8
 8007f5a:	4649      	mov	r1, r9
 8007f5c:	f7f8 f95c 	bl	8000218 <__aeabi_uldivmod>
 8007f60:	4602      	mov	r2, r0
 8007f62:	460b      	mov	r3, r1
 8007f64:	4613      	mov	r3, r2
 8007f66:	623b      	str	r3, [r7, #32]
 8007f68:	6a3b      	ldr	r3, [r7, #32]
 8007f6a:	f5b3 7f40 	cmp.w	r3, #768	; 0x300
 8007f6e:	d308      	bcc.n	8007f82 <UART_SetConfig+0x3d2>
 8007f70:	6a3b      	ldr	r3, [r7, #32]
 8007f72:	f5b3 1f80 	cmp.w	r3, #1048576	; 0x100000
 8007f76:	d204      	bcs.n	8007f82 <UART_SetConfig+0x3d2>
 8007f78:	697b      	ldr	r3, [r7, #20]
 8007f7a:	681b      	ldr	r3, [r3, #0]
 8007f7c:	6a3a      	ldr	r2, [r7, #32]
 8007f7e:	60da      	str	r2, [r3, #12]
 8007f80:	e0c8      	b.n	8008114 <UART_SetConfig+0x564>
 8007f82:	2301      	movs	r3, #1
 8007f84:	f887 302a 	strb.w	r3, [r7, #42]	; 0x2a
 8007f88:	e0c4      	b.n	8008114 <UART_SetConfig+0x564>
 8007f8a:	697b      	ldr	r3, [r7, #20]
 8007f8c:	69db      	ldr	r3, [r3, #28]
 8007f8e:	f5b3 4f00 	cmp.w	r3, #32768	; 0x8000
 8007f92:	d167      	bne.n	8008064 <UART_SetConfig+0x4b4>
 8007f94:	f897 302b 	ldrb.w	r3, [r7, #43]	; 0x2b
 8007f98:	2b08      	cmp	r3, #8
 8007f9a:	d828      	bhi.n	8007fee <UART_SetConfig+0x43e>
 8007f9c:	a201      	add	r2, pc, #4	; (adr r2, 8007fa4 <UART_SetConfig+0x3f4>)
 8007f9e:	f852 f023 	ldr.w	pc, [r2, r3, lsl #2]
 8007fa2:	bf00      	nop
 8007fa4:	08007fc9 	.word	0x08007fc9
 8007fa8:	08007fd1 	.word	0x08007fd1
 8007fac:	08007fd9 	.word	0x08007fd9
 8007fb0:	08007fef 	.word	0x08007fef
 8007fb4:	08007fdf 	.word	0x08007fdf
 8007fb8:	08007fef 	.word	0x08007fef
 8007fbc:	08007fef 	.word	0x08007fef
 8007fc0:	08007fef 	.word	0x08007fef
 8007fc4:	08007fe7 	.word	0x08007fe7
 8007fc8:	f7fe f8c6 	bl	8006158 <HAL_RCC_GetPCLK1Freq>
 8007fcc:	6278      	str	r0, [r7, #36]	; 0x24
 8007fce:	e014      	b.n	8007ffa <UART_SetConfig+0x44a>
 8007fd0:	f7fe f8d8 	bl	8006184 <HAL_RCC_GetPCLK2Freq>
 8007fd4:	6278      	str	r0, [r7, #36]	; 0x24
 8007fd6:	e010      	b.n	8007ffa <UART_SetConfig+0x44a>
 8007fd8:	4b5a      	ldr	r3, [pc, #360]	; (8008144 <UART_SetConfig+0x594>)
 8007fda:	627b      	str	r3, [r7, #36]	; 0x24
 8007fdc:	e00d      	b.n	8007ffa <UART_SetConfig+0x44a>
 8007fde:	f7fe f84d 	bl	800607c <HAL_RCC_GetSysClockFreq>
 8007fe2:	6278      	str	r0, [r7, #36]	; 0x24
 8007fe4:	e009      	b.n	8007ffa <UART_SetConfig+0x44a>
 8007fe6:	f44f 4300 	mov.w	r3, #32768	; 0x8000
 8007fea:	627b      	str	r3, [r7, #36]	; 0x24
 8007fec:	e005      	b.n	8007ffa <UART_SetConfig+0x44a>
 8007fee:	2300      	movs	r3, #0
 8007ff0:	627b      	str	r3, [r7, #36]	; 0x24
 8007ff2:	2301      	movs	r3, #1
 8007ff4:	f887 302a 	strb.w	r3, [r7, #42]	; 0x2a
 8007ff8:	bf00      	nop
 8007ffa:	6a7b      	ldr	r3, [r7, #36]	; 0x24
 8007ffc:	2b00      	cmp	r3, #0
 8007ffe:	f000 8089 	beq.w	8008114 <UART_SetConfig+0x564>
 8008002:	697b      	ldr	r3, [r7, #20]
 8008004:	6a5b      	ldr	r3, [r3, #36]	; 0x24
 8008006:	4a4e      	ldr	r2, [pc, #312]	; (8008140 <UART_SetConfig+0x590>)
 8008008:	f832 3013 	ldrh.w	r3, [r2, r3, lsl #1]
 800800c:	461a      	mov	r2, r3
 800800e:	6a7b      	ldr	r3, [r7, #36]	; 0x24
 8008010:	fbb3 f3f2 	udiv	r3, r3, r2
 8008014:	005a      	lsls	r2, r3, #1
 8008016:	697b      	ldr	r3, [r7, #20]
 8008018:	685b      	ldr	r3, [r3, #4]
 800801a:	085b      	lsrs	r3, r3, #1
 800801c:	441a      	add	r2, r3
 800801e:	697b      	ldr	r3, [r7, #20]
 8008020:	685b      	ldr	r3, [r3, #4]
 8008022:	fbb2 f3f3 	udiv	r3, r2, r3
 8008026:	623b      	str	r3, [r7, #32]
 8008028:	6a3b      	ldr	r3, [r7, #32]
 800802a:	2b0f      	cmp	r3, #15
 800802c:	d916      	bls.n	800805c <UART_SetConfig+0x4ac>
 800802e:	6a3b      	ldr	r3, [r7, #32]
 8008030:	f5b3 3f80 	cmp.w	r3, #65536	; 0x10000
 8008034:	d212      	bcs.n	800805c <UART_SetConfig+0x4ac>
 8008036:	6a3b      	ldr	r3, [r7, #32]
 8008038:	b29b      	uxth	r3, r3
 800803a:	f023 030f 	bic.w	r3, r3, #15
 800803e:	83fb      	strh	r3, [r7, #30]
 8008040:	6a3b      	ldr	r3, [r7, #32]
 8008042:	085b      	lsrs	r3, r3, #1
 8008044:	b29b      	uxth	r3, r3
 8008046:	f003 0307 	and.w	r3, r3, #7
 800804a:	b29a      	uxth	r2, r3
 800804c:	8bfb      	ldrh	r3, [r7, #30]
 800804e:	4313      	orrs	r3, r2
 8008050:	83fb      	strh	r3, [r7, #30]
 8008052:	697b      	ldr	r3, [r7, #20]
 8008054:	681b      	ldr	r3, [r3, #0]
 8008056:	8bfa      	ldrh	r2, [r7, #30]
 8008058:	60da      	str	r2, [r3, #12]
 800805a:	e05b      	b.n	8008114 <UART_SetConfig+0x564>
 800805c:	2301      	movs	r3, #1
 800805e:	f887 302a 	strb.w	r3, [r7, #42]	; 0x2a
 8008062:	e057      	b.n	8008114 <UART_SetConfig+0x564>
 8008064:	f897 302b 	ldrb.w	r3, [r7, #43]	; 0x2b
 8008068:	2b08      	cmp	r3, #8
 800806a:	d828      	bhi.n	80080be <UART_SetConfig+0x50e>
 800806c:	a201      	add	r2, pc, #4	; (adr r2, 8008074 <UART_SetConfig+0x4c4>)
 800806e:	f852 f023 	ldr.w	pc, [r2, r3, lsl #2]
 8008072:	bf00      	nop
 8008074:	08008099 	.word	0x08008099
 8008078:	080080a1 	.word	0x080080a1
 800807c:	080080a9 	.word	0x080080a9
 8008080:	080080bf 	.word	0x080080bf
 8008084:	080080af 	.word	0x080080af
 8008088:	080080bf 	.word	0x080080bf
 800808c:	080080bf 	.word	0x080080bf
 8008090:	080080bf 	.word	0x080080bf
 8008094:	080080b7 	.word	0x080080b7
 8008098:	f7fe f85e 	bl	8006158 <HAL_RCC_GetPCLK1Freq>
 800809c:	6278      	str	r0, [r7, #36]	; 0x24
 800809e:	e014      	b.n	80080ca <UART_SetConfig+0x51a>
 80080a0:	f7fe f870 	bl	8006184 <HAL_RCC_GetPCLK2Freq>
 80080a4:	6278      	str	r0, [r7, #36]	; 0x24
 80080a6:	e010      	b.n	80080ca <UART_SetConfig+0x51a>
 80080a8:	4b26      	ldr	r3, [pc, #152]	; (8008144 <UART_SetConfig+0x594>)
 80080aa:	627b      	str	r3, [r7, #36]	; 0x24
 80080ac:	e00d      	b.n	80080ca <UART_SetConfig+0x51a>
 80080ae:	f7fd ffe5 	bl	800607c <HAL_RCC_GetSysClockFreq>
 80080b2:	6278      	str	r0, [r7, #36]	; 0x24
 80080b4:	e009      	b.n	80080ca <UART_SetConfig+0x51a>
 80080b6:	f44f 4300 	mov.w	r3, #32768	; 0x8000
 80080ba:	627b      	str	r3, [r7, #36]	; 0x24
 80080bc:	e005      	b.n	80080ca <UART_SetConfig+0x51a>
 80080be:	2300      	movs	r3, #0
 80080c0:	627b      	str	r3, [r7, #36]	; 0x24
 80080c2:	2301      	movs	r3, #1
 80080c4:	f887 302a 	strb.w	r3, [r7, #42]	; 0x2a
 80080c8:	bf00      	nop
 80080ca:	6a7b      	ldr	r3, [r7, #36]	; 0x24
 80080cc:	2b00      	cmp	r3, #0
 80080ce:	d021      	beq.n	8008114 <UART_SetConfig+0x564>
 80080d0:	697b      	ldr	r3, [r7, #20]
 80080d2:	6a5b      	ldr	r3, [r3, #36]	; 0x24
 80080d4:	4a1a      	ldr	r2, [pc, #104]	; (8008140 <UART_SetConfig+0x590>)
 80080d6:	f832 3013 	ldrh.w	r3, [r2, r3, lsl #1]
 80080da:	461a      	mov	r2, r3
 80080dc:	6a7b      	ldr	r3, [r7, #36]	; 0x24
 80080de:	fbb3 f2f2 	udiv	r2, r3, r2
 80080e2:	697b      	ldr	r3, [r7, #20]
 80080e4:	685b      	ldr	r3, [r3, #4]
 80080e6:	085b      	lsrs	r3, r3, #1
 80080e8:	441a      	add	r2, r3
 80080ea:	697b      	ldr	r3, [r7, #20]
 80080ec:	685b      	ldr	r3, [r3, #4]
 80080ee:	fbb2 f3f3 	udiv	r3, r2, r3
 80080f2:	623b      	str	r3, [r7, #32]
 80080f4:	6a3b      	ldr	r3, [r7, #32]
 80080f6:	2b0f      	cmp	r3, #15
 80080f8:	d909      	bls.n	800810e <UART_SetConfig+0x55e>
 80080fa:	6a3b      	ldr	r3, [r7, #32]
 80080fc:	f5b3 3f80 	cmp.w	r3, #65536	; 0x10000
 8008100:	d205      	bcs.n	800810e <UART_SetConfig+0x55e>
 8008102:	6a3b      	ldr	r3, [r7, #32]
 8008104:	b29a      	uxth	r2, r3
 8008106:	697b      	ldr	r3, [r7, #20]
 8008108:	681b      	ldr	r3, [r3, #0]
 800810a:	60da      	str	r2, [r3, #12]
 800810c:	e002      	b.n	8008114 <UART_SetConfig+0x564>
 800810e:	2301      	movs	r3, #1
 8008110:	f887 302a 	strb.w	r3, [r7, #42]	; 0x2a
 8008114:	697b      	ldr	r3, [r7, #20]
 8008116:	2201      	movs	r2, #1
 8008118:	f8a3 206a 	strh.w	r2, [r3, #106]	; 0x6a
 800811c:	697b      	ldr	r3, [r7, #20]
 800811e:	2201      	movs	r2, #1
 8008120:	f8a3 2068 	strh.w	r2, [r3, #104]	; 0x68
 8008124:	697b      	ldr	r3, [r7, #20]
 8008126:	2200      	movs	r2, #0
 8008128:	675a      	str	r2, [r3, #116]	; 0x74
 800812a:	697b      	ldr	r3, [r7, #20]
 800812c:	2200      	movs	r2, #0
 800812e:	679a      	str	r2, [r3, #120]	; 0x78
 8008130:	f897 302a 	ldrb.w	r3, [r7, #42]	; 0x2a
 8008134:	4618      	mov	r0, r3
 8008136:	3730      	adds	r7, #48	; 0x30
 8008138:	46bd      	mov	sp, r7
 800813a:	e8bd 8fb0 	ldmia.w	sp!, {r4, r5, r7, r8, r9, sl, fp, pc}
 800813e:	bf00      	nop
 8008140:	0800d220 	.word	0x0800d220
 8008144:	00f42400 	.word	0x00f42400

08008148 <UART_AdvFeatureConfig>:
 8008148:	b480      	push	{r7}
 800814a:	b083      	sub	sp, #12
 800814c:	af00      	add	r7, sp, #0
 800814e:	6078      	str	r0, [r7, #4]
 8008150:	687b      	ldr	r3, [r7, #4]
 8008152:	6a9b      	ldr	r3, [r3, #40]	; 0x28
 8008154:	f003 0308 	and.w	r3, r3, #8
 8008158:	2b00      	cmp	r3, #0
 800815a:	d00a      	beq.n	8008172 <UART_AdvFeatureConfig+0x2a>
 800815c:	687b      	ldr	r3, [r7, #4]
 800815e:	681b      	ldr	r3, [r3, #0]
 8008160:	685b      	ldr	r3, [r3, #4]
 8008162:	f423 4100 	bic.w	r1, r3, #32768	; 0x8000
 8008166:	687b      	ldr	r3, [r7, #4]
 8008168:	6b9a      	ldr	r2, [r3, #56]	; 0x38
 800816a:	687b      	ldr	r3, [r7, #4]
 800816c:	681b      	ldr	r3, [r3, #0]
 800816e:	430a      	orrs	r2, r1
 8008170:	605a      	str	r2, [r3, #4]
 8008172:	687b      	ldr	r3, [r7, #4]
 8008174:	6a9b      	ldr	r3, [r3, #40]	; 0x28
 8008176:	f003 0301 	and.w	r3, r3, #1
 800817a:	2b00      	cmp	r3, #0
 800817c:	d00a      	beq.n	8008194 <UART_AdvFeatureConfig+0x4c>
 800817e:	687b      	ldr	r3, [r7, #4]
 8008180:	681b      	ldr	r3, [r3, #0]
 8008182:	685b      	ldr	r3, [r3, #4]
 8008184:	f423 3100 	bic.w	r1, r3, #131072	; 0x20000
 8008188:	687b      	ldr	r3, [r7, #4]
 800818a:	6ada      	ldr	r2, [r3, #44]	; 0x2c
 800818c:	687b      	ldr	r3, [r7, #4]
 800818e:	681b      	ldr	r3, [r3, #0]
 8008190:	430a      	orrs	r2, r1
 8008192:	605a      	str	r2, [r3, #4]
 8008194:	687b      	ldr	r3, [r7, #4]
 8008196:	6a9b      	ldr	r3, [r3, #40]	; 0x28
 8008198:	f003 0302 	and.w	r3, r3, #2
 800819c:	2b00      	cmp	r3, #0
 800819e:	d00a      	beq.n	80081b6 <UART_AdvFeatureConfig+0x6e>
 80081a0:	687b      	ldr	r3, [r7, #4]
 80081a2:	681b      	ldr	r3, [r3, #0]
 80081a4:	685b      	ldr	r3, [r3, #4]
 80081a6:	f423 3180 	bic.w	r1, r3, #65536	; 0x10000
 80081aa:	687b      	ldr	r3, [r7, #4]
 80081ac:	6b1a      	ldr	r2, [r3, #48]	; 0x30
 80081ae:	687b      	ldr	r3, [r7, #4]
 80081b0:	681b      	ldr	r3, [r3, #0]
 80081b2:	430a      	orrs	r2, r1
 80081b4:	605a      	str	r2, [r3, #4]
 80081b6:	687b      	ldr	r3, [r7, #4]
 80081b8:	6a9b      	ldr	r3, [r3, #40]	; 0x28
 80081ba:	f003 0304 	and.w	r3, r3, #4
 80081be:	2b00      	cmp	r3, #0
 80081c0:	d00a      	beq.n	80081d8 <UART_AdvFeatureConfig+0x90>
 80081c2:	687b      	ldr	r3, [r7, #4]
 80081c4:	681b      	ldr	r3, [r3, #0]
 80081c6:	685b      	ldr	r3, [r3, #4]
 80081c8:	f423 2180 	bic.w	r1, r3, #262144	; 0x40000
 80081cc:	687b      	ldr	r3, [r7, #4]
 80081ce:	6b5a      	ldr	r2, [r3, #52]	; 0x34
 80081d0:	687b      	ldr	r3, [r7, #4]
 80081d2:	681b      	ldr	r3, [r3, #0]
 80081d4:	430a      	orrs	r2, r1
 80081d6:	605a      	str	r2, [r3, #4]
 80081d8:	687b      	ldr	r3, [r7, #4]
 80081da:	6a9b      	ldr	r3, [r3, #40]	; 0x28
 80081dc:	f003 0310 	and.w	r3, r3, #16
 80081e0:	2b00      	cmp	r3, #0
 80081e2:	d00a      	beq.n	80081fa <UART_AdvFeatureConfig+0xb2>
 80081e4:	687b      	ldr	r3, [r7, #4]
 80081e6:	681b      	ldr	r3, [r3, #0]
 80081e8:	689b      	ldr	r3, [r3, #8]
 80081ea:	f423 5180 	bic.w	r1, r3, #4096	; 0x1000
 80081ee:	687b      	ldr	r3, [r7, #4]
 80081f0:	6bda      	ldr	r2, [r3, #60]	; 0x3c
 80081f2:	687b      	ldr	r3, [r7, #4]
 80081f4:	681b      	ldr	r3, [r3, #0]
 80081f6:	430a      	orrs	r2, r1
 80081f8:	609a      	str	r2, [r3, #8]
 80081fa:	687b      	ldr	r3, [r7, #4]
 80081fc:	6a9b      	ldr	r3, [r3, #40]	; 0x28
 80081fe:	f003 0320 	and.w	r3, r3, #32
 8008202:	2b00      	cmp	r3, #0
 8008204:	d00a      	beq.n	800821c <UART_AdvFeatureConfig+0xd4>
 8008206:	687b      	ldr	r3, [r7, #4]
 8008208:	681b      	ldr	r3, [r3, #0]
 800820a:	689b      	ldr	r3, [r3, #8]
 800820c:	f423 5100 	bic.w	r1, r3, #8192	; 0x2000
 8008210:	687b      	ldr	r3, [r7, #4]
 8008212:	6c1a      	ldr	r2, [r3, #64]	; 0x40
 8008214:	687b      	ldr	r3, [r7, #4]
 8008216:	681b      	ldr	r3, [r3, #0]
 8008218:	430a      	orrs	r2, r1
 800821a:	609a      	str	r2, [r3, #8]
 800821c:	687b      	ldr	r3, [r7, #4]
 800821e:	6a9b      	ldr	r3, [r3, #40]	; 0x28
 8008220:	f003 0340 	and.w	r3, r3, #64	; 0x40
 8008224:	2b00      	cmp	r3, #0
 8008226:	d01a      	beq.n	800825e <UART_AdvFeatureConfig+0x116>
 8008228:	687b      	ldr	r3, [r7, #4]
 800822a:	681b      	ldr	r3, [r3, #0]
 800822c:	685b      	ldr	r3, [r3, #4]
 800822e:	f423 1180 	bic.w	r1, r3, #1048576	; 0x100000
 8008232:	687b      	ldr	r3, [r7, #4]
 8008234:	6c5a      	ldr	r2, [r3, #68]	; 0x44
 8008236:	687b      	ldr	r3, [r7, #4]
 8008238:	681b      	ldr	r3, [r3, #0]
 800823a:	430a      	orrs	r2, r1
 800823c:	605a      	str	r2, [r3, #4]
 800823e:	687b      	ldr	r3, [r7, #4]
 8008240:	6c5b      	ldr	r3, [r3, #68]	; 0x44
 8008242:	f5b3 1f80 	cmp.w	r3, #1048576	; 0x100000
 8008246:	d10a      	bne.n	800825e <UART_AdvFeatureConfig+0x116>
 8008248:	687b      	ldr	r3, [r7, #4]
 800824a:	681b      	ldr	r3, [r3, #0]
 800824c:	685b      	ldr	r3, [r3, #4]
 800824e:	f423 01c0 	bic.w	r1, r3, #6291456	; 0x600000
 8008252:	687b      	ldr	r3, [r7, #4]
 8008254:	6c9a      	ldr	r2, [r3, #72]	; 0x48
 8008256:	687b      	ldr	r3, [r7, #4]
 8008258:	681b      	ldr	r3, [r3, #0]
 800825a:	430a      	orrs	r2, r1
 800825c:	605a      	str	r2, [r3, #4]
 800825e:	687b      	ldr	r3, [r7, #4]
 8008260:	6a9b      	ldr	r3, [r3, #40]	; 0x28
 8008262:	f003 0380 	and.w	r3, r3, #128	; 0x80
 8008266:	2b00      	cmp	r3, #0
 8008268:	d00a      	beq.n	8008280 <UART_AdvFeatureConfig+0x138>
 800826a:	687b      	ldr	r3, [r7, #4]
 800826c:	681b      	ldr	r3, [r3, #0]
 800826e:	685b      	ldr	r3, [r3, #4]
 8008270:	f423 2100 	bic.w	r1, r3, #524288	; 0x80000
 8008274:	687b      	ldr	r3, [r7, #4]
 8008276:	6cda      	ldr	r2, [r3, #76]	; 0x4c
 8008278:	687b      	ldr	r3, [r7, #4]
 800827a:	681b      	ldr	r3, [r3, #0]
 800827c:	430a      	orrs	r2, r1
 800827e:	605a      	str	r2, [r3, #4]
 8008280:	bf00      	nop
 8008282:	370c      	adds	r7, #12
 8008284:	46bd      	mov	sp, r7
 8008286:	f85d 7b04 	ldr.w	r7, [sp], #4
 800828a:	4770      	bx	lr

0800828c <UART_CheckIdleState>:
 800828c:	b580      	push	{r7, lr}
 800828e:	b098      	sub	sp, #96	; 0x60
 8008290:	af02      	add	r7, sp, #8
 8008292:	6078      	str	r0, [r7, #4]
 8008294:	687b      	ldr	r3, [r7, #4]
 8008296:	2200      	movs	r2, #0
 8008298:	f8c3 2090 	str.w	r2, [r3, #144]	; 0x90
 800829c:	f7fa fea4 	bl	8002fe8 <HAL_GetTick>
 80082a0:	6578      	str	r0, [r7, #84]	; 0x54
 80082a2:	687b      	ldr	r3, [r7, #4]
 80082a4:	681b      	ldr	r3, [r3, #0]
 80082a6:	681b      	ldr	r3, [r3, #0]
 80082a8:	f003 0308 	and.w	r3, r3, #8
 80082ac:	2b08      	cmp	r3, #8
 80082ae:	d12f      	bne.n	8008310 <UART_CheckIdleState+0x84>
 80082b0:	f06f 437e 	mvn.w	r3, #4261412864	; 0xfe000000
 80082b4:	9300      	str	r3, [sp, #0]
 80082b6:	6d7b      	ldr	r3, [r7, #84]	; 0x54
 80082b8:	2200      	movs	r2, #0
 80082ba:	f44f 1100 	mov.w	r1, #2097152	; 0x200000
 80082be:	6878      	ldr	r0, [r7, #4]
 80082c0:	f000 f88e 	bl	80083e0 <UART_WaitOnFlagUntilTimeout>
 80082c4:	4603      	mov	r3, r0
 80082c6:	2b00      	cmp	r3, #0
 80082c8:	d022      	beq.n	8008310 <UART_CheckIdleState+0x84>
 80082ca:	687b      	ldr	r3, [r7, #4]
 80082cc:	681b      	ldr	r3, [r3, #0]
 80082ce:	63bb      	str	r3, [r7, #56]	; 0x38
 80082d0:	6bbb      	ldr	r3, [r7, #56]	; 0x38
 80082d2:	e853 3f00 	ldrex	r3, [r3]
 80082d6:	637b      	str	r3, [r7, #52]	; 0x34
 80082d8:	6b7b      	ldr	r3, [r7, #52]	; 0x34
 80082da:	f023 0380 	bic.w	r3, r3, #128	; 0x80
 80082de:	653b      	str	r3, [r7, #80]	; 0x50
 80082e0:	687b      	ldr	r3, [r7, #4]
 80082e2:	681b      	ldr	r3, [r3, #0]
 80082e4:	461a      	mov	r2, r3
 80082e6:	6d3b      	ldr	r3, [r7, #80]	; 0x50
 80082e8:	647b      	str	r3, [r7, #68]	; 0x44
 80082ea:	643a      	str	r2, [r7, #64]	; 0x40
 80082ec:	6c39      	ldr	r1, [r7, #64]	; 0x40
 80082ee:	6c7a      	ldr	r2, [r7, #68]	; 0x44
 80082f0:	e841 2300 	strex	r3, r2, [r1]
 80082f4:	63fb      	str	r3, [r7, #60]	; 0x3c
 80082f6:	6bfb      	ldr	r3, [r7, #60]	; 0x3c
 80082f8:	2b00      	cmp	r3, #0
 80082fa:	d1e6      	bne.n	80082ca <UART_CheckIdleState+0x3e>
 80082fc:	687b      	ldr	r3, [r7, #4]
 80082fe:	2220      	movs	r2, #32
 8008300:	f8c3 2088 	str.w	r2, [r3, #136]	; 0x88
 8008304:	687b      	ldr	r3, [r7, #4]
 8008306:	2200      	movs	r2, #0
 8008308:	f883 2084 	strb.w	r2, [r3, #132]	; 0x84
 800830c:	2303      	movs	r3, #3
 800830e:	e063      	b.n	80083d8 <UART_CheckIdleState+0x14c>
 8008310:	687b      	ldr	r3, [r7, #4]
 8008312:	681b      	ldr	r3, [r3, #0]
 8008314:	681b      	ldr	r3, [r3, #0]
 8008316:	f003 0304 	and.w	r3, r3, #4
 800831a:	2b04      	cmp	r3, #4
 800831c:	d149      	bne.n	80083b2 <UART_CheckIdleState+0x126>
 800831e:	f06f 437e 	mvn.w	r3, #4261412864	; 0xfe000000
 8008322:	9300      	str	r3, [sp, #0]
 8008324:	6d7b      	ldr	r3, [r7, #84]	; 0x54
 8008326:	2200      	movs	r2, #0
 8008328:	f44f 0180 	mov.w	r1, #4194304	; 0x400000
 800832c:	6878      	ldr	r0, [r7, #4]
 800832e:	f000 f857 	bl	80083e0 <UART_WaitOnFlagUntilTimeout>
 8008332:	4603      	mov	r3, r0
 8008334:	2b00      	cmp	r3, #0
 8008336:	d03c      	beq.n	80083b2 <UART_CheckIdleState+0x126>
 8008338:	687b      	ldr	r3, [r7, #4]
 800833a:	681b      	ldr	r3, [r3, #0]
 800833c:	627b      	str	r3, [r7, #36]	; 0x24
 800833e:	6a7b      	ldr	r3, [r7, #36]	; 0x24
 8008340:	e853 3f00 	ldrex	r3, [r3]
 8008344:	623b      	str	r3, [r7, #32]
 8008346:	6a3b      	ldr	r3, [r7, #32]
 8008348:	f423 7390 	bic.w	r3, r3, #288	; 0x120
 800834c:	64fb      	str	r3, [r7, #76]	; 0x4c
 800834e:	687b      	ldr	r3, [r7, #4]
 8008350:	681b      	ldr	r3, [r3, #0]
 8008352:	461a      	mov	r2, r3
 8008354:	6cfb      	ldr	r3, [r7, #76]	; 0x4c
 8008356:	633b      	str	r3, [r7, #48]	; 0x30
 8008358:	62fa      	str	r2, [r7, #44]	; 0x2c
 800835a:	6af9      	ldr	r1, [r7, #44]	; 0x2c
 800835c:	6b3a      	ldr	r2, [r7, #48]	; 0x30
 800835e:	e841 2300 	strex	r3, r2, [r1]
 8008362:	62bb      	str	r3, [r7, #40]	; 0x28
 8008364:	6abb      	ldr	r3, [r7, #40]	; 0x28
 8008366:	2b00      	cmp	r3, #0
 8008368:	d1e6      	bne.n	8008338 <UART_CheckIdleState+0xac>
 800836a:	687b      	ldr	r3, [r7, #4]
 800836c:	681b      	ldr	r3, [r3, #0]
 800836e:	3308      	adds	r3, #8
 8008370:	613b      	str	r3, [r7, #16]
 8008372:	693b      	ldr	r3, [r7, #16]
 8008374:	e853 3f00 	ldrex	r3, [r3]
 8008378:	60fb      	str	r3, [r7, #12]
 800837a:	68fb      	ldr	r3, [r7, #12]
 800837c:	f023 0301 	bic.w	r3, r3, #1
 8008380:	64bb      	str	r3, [r7, #72]	; 0x48
 8008382:	687b      	ldr	r3, [r7, #4]
 8008384:	681b      	ldr	r3, [r3, #0]
 8008386:	3308      	adds	r3, #8
 8008388:	6cba      	ldr	r2, [r7, #72]	; 0x48
 800838a:	61fa      	str	r2, [r7, #28]
 800838c:	61bb      	str	r3, [r7, #24]
 800838e:	69b9      	ldr	r1, [r7, #24]
 8008390:	69fa      	ldr	r2, [r7, #28]
 8008392:	e841 2300 	strex	r3, r2, [r1]
 8008396:	617b      	str	r3, [r7, #20]
 8008398:	697b      	ldr	r3, [r7, #20]
 800839a:	2b00      	cmp	r3, #0
 800839c:	d1e5      	bne.n	800836a <UART_CheckIdleState+0xde>
 800839e:	687b      	ldr	r3, [r7, #4]
 80083a0:	2220      	movs	r2, #32
 80083a2:	f8c3 208c 	str.w	r2, [r3, #140]	; 0x8c
 80083a6:	687b      	ldr	r3, [r7, #4]
 80083a8:	2200      	movs	r2, #0
 80083aa:	f883 2084 	strb.w	r2, [r3, #132]	; 0x84
 80083ae:	2303      	movs	r3, #3
 80083b0:	e012      	b.n	80083d8 <UART_CheckIdleState+0x14c>
 80083b2:	687b      	ldr	r3, [r7, #4]
 80083b4:	2220      	movs	r2, #32
 80083b6:	f8c3 2088 	str.w	r2, [r3, #136]	; 0x88
 80083ba:	687b      	ldr	r3, [r7, #4]
 80083bc:	2220      	movs	r2, #32
 80083be:	f8c3 208c 	str.w	r2, [r3, #140]	; 0x8c
 80083c2:	687b      	ldr	r3, [r7, #4]
 80083c4:	2200      	movs	r2, #0
 80083c6:	66da      	str	r2, [r3, #108]	; 0x6c
 80083c8:	687b      	ldr	r3, [r7, #4]
 80083ca:	2200      	movs	r2, #0
 80083cc:	671a      	str	r2, [r3, #112]	; 0x70
 80083ce:	687b      	ldr	r3, [r7, #4]
 80083d0:	2200      	movs	r2, #0
 80083d2:	f883 2084 	strb.w	r2, [r3, #132]	; 0x84
 80083d6:	2300      	movs	r3, #0
 80083d8:	4618      	mov	r0, r3
 80083da:	3758      	adds	r7, #88	; 0x58
 80083dc:	46bd      	mov	sp, r7
 80083de:	bd80      	pop	{r7, pc}

080083e0 <UART_WaitOnFlagUntilTimeout>:
 80083e0:	b580      	push	{r7, lr}
 80083e2:	b084      	sub	sp, #16
 80083e4:	af00      	add	r7, sp, #0
 80083e6:	60f8      	str	r0, [r7, #12]
 80083e8:	60b9      	str	r1, [r7, #8]
 80083ea:	603b      	str	r3, [r7, #0]
 80083ec:	4613      	mov	r3, r2
 80083ee:	71fb      	strb	r3, [r7, #7]
 80083f0:	e04f      	b.n	8008492 <UART_WaitOnFlagUntilTimeout+0xb2>
 80083f2:	69bb      	ldr	r3, [r7, #24]
 80083f4:	f1b3 3fff 	cmp.w	r3, #4294967295
 80083f8:	d04b      	beq.n	8008492 <UART_WaitOnFlagUntilTimeout+0xb2>
 80083fa:	f7fa fdf5 	bl	8002fe8 <HAL_GetTick>
 80083fe:	4602      	mov	r2, r0
 8008400:	683b      	ldr	r3, [r7, #0]
 8008402:	1ad3      	subs	r3, r2, r3
 8008404:	69ba      	ldr	r2, [r7, #24]
 8008406:	429a      	cmp	r2, r3
 8008408:	d302      	bcc.n	8008410 <UART_WaitOnFlagUntilTimeout+0x30>
 800840a:	69bb      	ldr	r3, [r7, #24]
 800840c:	2b00      	cmp	r3, #0
 800840e:	d101      	bne.n	8008414 <UART_WaitOnFlagUntilTimeout+0x34>
 8008410:	2303      	movs	r3, #3
 8008412:	e04e      	b.n	80084b2 <UART_WaitOnFlagUntilTimeout+0xd2>
 8008414:	68fb      	ldr	r3, [r7, #12]
 8008416:	681b      	ldr	r3, [r3, #0]
 8008418:	681b      	ldr	r3, [r3, #0]
 800841a:	f003 0304 	and.w	r3, r3, #4
 800841e:	2b00      	cmp	r3, #0
 8008420:	d037      	beq.n	8008492 <UART_WaitOnFlagUntilTimeout+0xb2>
 8008422:	68bb      	ldr	r3, [r7, #8]
 8008424:	2b80      	cmp	r3, #128	; 0x80
 8008426:	d034      	beq.n	8008492 <UART_WaitOnFlagUntilTimeout+0xb2>
 8008428:	68bb      	ldr	r3, [r7, #8]
 800842a:	2b40      	cmp	r3, #64	; 0x40
 800842c:	d031      	beq.n	8008492 <UART_WaitOnFlagUntilTimeout+0xb2>
 800842e:	68fb      	ldr	r3, [r7, #12]
 8008430:	681b      	ldr	r3, [r3, #0]
 8008432:	69db      	ldr	r3, [r3, #28]
 8008434:	f003 0308 	and.w	r3, r3, #8
 8008438:	2b08      	cmp	r3, #8
 800843a:	d110      	bne.n	800845e <UART_WaitOnFlagUntilTimeout+0x7e>
 800843c:	68fb      	ldr	r3, [r7, #12]
 800843e:	681b      	ldr	r3, [r3, #0]
 8008440:	2208      	movs	r2, #8
 8008442:	621a      	str	r2, [r3, #32]
 8008444:	68f8      	ldr	r0, [r7, #12]
 8008446:	f000 f838 	bl	80084ba <UART_EndRxTransfer>
 800844a:	68fb      	ldr	r3, [r7, #12]
 800844c:	2208      	movs	r2, #8
 800844e:	f8c3 2090 	str.w	r2, [r3, #144]	; 0x90
 8008452:	68fb      	ldr	r3, [r7, #12]
 8008454:	2200      	movs	r2, #0
 8008456:	f883 2084 	strb.w	r2, [r3, #132]	; 0x84
 800845a:	2301      	movs	r3, #1
 800845c:	e029      	b.n	80084b2 <UART_WaitOnFlagUntilTimeout+0xd2>
 800845e:	68fb      	ldr	r3, [r7, #12]
 8008460:	681b      	ldr	r3, [r3, #0]
 8008462:	69db      	ldr	r3, [r3, #28]
 8008464:	f403 6300 	and.w	r3, r3, #2048	; 0x800
 8008468:	f5b3 6f00 	cmp.w	r3, #2048	; 0x800
 800846c:	d111      	bne.n	8008492 <UART_WaitOnFlagUntilTimeout+0xb2>
 800846e:	68fb      	ldr	r3, [r7, #12]
 8008470:	681b      	ldr	r3, [r3, #0]
 8008472:	f44f 6200 	mov.w	r2, #2048	; 0x800
 8008476:	621a      	str	r2, [r3, #32]
 8008478:	68f8      	ldr	r0, [r7, #12]
 800847a:	f000 f81e 	bl	80084ba <UART_EndRxTransfer>
 800847e:	68fb      	ldr	r3, [r7, #12]
 8008480:	2220      	movs	r2, #32
 8008482:	f8c3 2090 	str.w	r2, [r3, #144]	; 0x90
 8008486:	68fb      	ldr	r3, [r7, #12]
 8008488:	2200      	movs	r2, #0
 800848a:	f883 2084 	strb.w	r2, [r3, #132]	; 0x84
 800848e:	2303      	movs	r3, #3
 8008490:	e00f      	b.n	80084b2 <UART_WaitOnFlagUntilTimeout+0xd2>
 8008492:	68fb      	ldr	r3, [r7, #12]
 8008494:	681b      	ldr	r3, [r3, #0]
 8008496:	69da      	ldr	r2, [r3, #28]
 8008498:	68bb      	ldr	r3, [r7, #8]
 800849a:	4013      	ands	r3, r2
 800849c:	68ba      	ldr	r2, [r7, #8]
 800849e:	429a      	cmp	r2, r3
 80084a0:	bf0c      	ite	eq
 80084a2:	2301      	moveq	r3, #1
 80084a4:	2300      	movne	r3, #0
 80084a6:	b2db      	uxtb	r3, r3
 80084a8:	461a      	mov	r2, r3
 80084aa:	79fb      	ldrb	r3, [r7, #7]
 80084ac:	429a      	cmp	r2, r3
 80084ae:	d0a0      	beq.n	80083f2 <UART_WaitOnFlagUntilTimeout+0x12>
 80084b0:	2300      	movs	r3, #0
 80084b2:	4618      	mov	r0, r3
 80084b4:	3710      	adds	r7, #16
 80084b6:	46bd      	mov	sp, r7
 80084b8:	bd80      	pop	{r7, pc}

080084ba <UART_EndRxTransfer>:
 80084ba:	b480      	push	{r7}
 80084bc:	b095      	sub	sp, #84	; 0x54
 80084be:	af00      	add	r7, sp, #0
 80084c0:	6078      	str	r0, [r7, #4]
 80084c2:	687b      	ldr	r3, [r7, #4]
 80084c4:	681b      	ldr	r3, [r3, #0]
 80084c6:	637b      	str	r3, [r7, #52]	; 0x34
 80084c8:	6b7b      	ldr	r3, [r7, #52]	; 0x34
 80084ca:	e853 3f00 	ldrex	r3, [r3]
 80084ce:	633b      	str	r3, [r7, #48]	; 0x30
 80084d0:	6b3b      	ldr	r3, [r7, #48]	; 0x30
 80084d2:	f423 7390 	bic.w	r3, r3, #288	; 0x120
 80084d6:	64fb      	str	r3, [r7, #76]	; 0x4c
 80084d8:	687b      	ldr	r3, [r7, #4]
 80084da:	681b      	ldr	r3, [r3, #0]
 80084dc:	461a      	mov	r2, r3
 80084de:	6cfb      	ldr	r3, [r7, #76]	; 0x4c
 80084e0:	643b      	str	r3, [r7, #64]	; 0x40
 80084e2:	63fa      	str	r2, [r7, #60]	; 0x3c
 80084e4:	6bf9      	ldr	r1, [r7, #60]	; 0x3c
 80084e6:	6c3a      	ldr	r2, [r7, #64]	; 0x40
 80084e8:	e841 2300 	strex	r3, r2, [r1]
 80084ec:	63bb      	str	r3, [r7, #56]	; 0x38
 80084ee:	6bbb      	ldr	r3, [r7, #56]	; 0x38
 80084f0:	2b00      	cmp	r3, #0
 80084f2:	d1e6      	bne.n	80084c2 <UART_EndRxTransfer+0x8>
 80084f4:	687b      	ldr	r3, [r7, #4]
 80084f6:	681b      	ldr	r3, [r3, #0]
 80084f8:	3308      	adds	r3, #8
 80084fa:	623b      	str	r3, [r7, #32]
 80084fc:	6a3b      	ldr	r3, [r7, #32]
 80084fe:	e853 3f00 	ldrex	r3, [r3]
 8008502:	61fb      	str	r3, [r7, #28]
 8008504:	69fb      	ldr	r3, [r7, #28]
 8008506:	f023 5380 	bic.w	r3, r3, #268435456	; 0x10000000
 800850a:	f023 0301 	bic.w	r3, r3, #1
 800850e:	64bb      	str	r3, [r7, #72]	; 0x48
 8008510:	687b      	ldr	r3, [r7, #4]
 8008512:	681b      	ldr	r3, [r3, #0]
 8008514:	3308      	adds	r3, #8
 8008516:	6cba      	ldr	r2, [r7, #72]	; 0x48
 8008518:	62fa      	str	r2, [r7, #44]	; 0x2c
 800851a:	62bb      	str	r3, [r7, #40]	; 0x28
 800851c:	6ab9      	ldr	r1, [r7, #40]	; 0x28
 800851e:	6afa      	ldr	r2, [r7, #44]	; 0x2c
 8008520:	e841 2300 	strex	r3, r2, [r1]
 8008524:	627b      	str	r3, [r7, #36]	; 0x24
 8008526:	6a7b      	ldr	r3, [r7, #36]	; 0x24
 8008528:	2b00      	cmp	r3, #0
 800852a:	d1e3      	bne.n	80084f4 <UART_EndRxTransfer+0x3a>
 800852c:	687b      	ldr	r3, [r7, #4]
 800852e:	6edb      	ldr	r3, [r3, #108]	; 0x6c
 8008530:	2b01      	cmp	r3, #1
 8008532:	d118      	bne.n	8008566 <UART_EndRxTransfer+0xac>
 8008534:	687b      	ldr	r3, [r7, #4]
 8008536:	681b      	ldr	r3, [r3, #0]
 8008538:	60fb      	str	r3, [r7, #12]
 800853a:	68fb      	ldr	r3, [r7, #12]
 800853c:	e853 3f00 	ldrex	r3, [r3]
 8008540:	60bb      	str	r3, [r7, #8]
 8008542:	68bb      	ldr	r3, [r7, #8]
 8008544:	f023 0310 	bic.w	r3, r3, #16
 8008548:	647b      	str	r3, [r7, #68]	; 0x44
 800854a:	687b      	ldr	r3, [r7, #4]
 800854c:	681b      	ldr	r3, [r3, #0]
 800854e:	461a      	mov	r2, r3
 8008550:	6c7b      	ldr	r3, [r7, #68]	; 0x44
 8008552:	61bb      	str	r3, [r7, #24]
 8008554:	617a      	str	r2, [r7, #20]
 8008556:	6979      	ldr	r1, [r7, #20]
 8008558:	69ba      	ldr	r2, [r7, #24]
 800855a:	e841 2300 	strex	r3, r2, [r1]
 800855e:	613b      	str	r3, [r7, #16]
 8008560:	693b      	ldr	r3, [r7, #16]
 8008562:	2b00      	cmp	r3, #0
 8008564:	d1e6      	bne.n	8008534 <UART_EndRxTransfer+0x7a>
 8008566:	687b      	ldr	r3, [r7, #4]
 8008568:	2220      	movs	r2, #32
 800856a:	f8c3 208c 	str.w	r2, [r3, #140]	; 0x8c
 800856e:	687b      	ldr	r3, [r7, #4]
 8008570:	2200      	movs	r2, #0
 8008572:	66da      	str	r2, [r3, #108]	; 0x6c
 8008574:	687b      	ldr	r3, [r7, #4]
 8008576:	2200      	movs	r2, #0
 8008578:	675a      	str	r2, [r3, #116]	; 0x74
 800857a:	bf00      	nop
 800857c:	3754      	adds	r7, #84	; 0x54
 800857e:	46bd      	mov	sp, r7
 8008580:	f85d 7b04 	ldr.w	r7, [sp], #4
 8008584:	4770      	bx	lr

08008586 <UART_DMAAbortOnError>:
 8008586:	b580      	push	{r7, lr}
 8008588:	b084      	sub	sp, #16
 800858a:	af00      	add	r7, sp, #0
 800858c:	6078      	str	r0, [r7, #4]
 800858e:	687b      	ldr	r3, [r7, #4]
 8008590:	6a9b      	ldr	r3, [r3, #40]	; 0x28
 8008592:	60fb      	str	r3, [r7, #12]
 8008594:	68fb      	ldr	r3, [r7, #12]
 8008596:	2200      	movs	r2, #0
 8008598:	f8a3 205e 	strh.w	r2, [r3, #94]	; 0x5e
 800859c:	68fb      	ldr	r3, [r7, #12]
 800859e:	2200      	movs	r2, #0
 80085a0:	f8a3 2056 	strh.w	r2, [r3, #86]	; 0x56
 80085a4:	68f8      	ldr	r0, [r7, #12]
 80085a6:	f7ff faed 	bl	8007b84 <HAL_UART_ErrorCallback>
 80085aa:	bf00      	nop
 80085ac:	3710      	adds	r7, #16
 80085ae:	46bd      	mov	sp, r7
 80085b0:	bd80      	pop	{r7, pc}

080085b2 <UART_EndTransmit_IT>:
 80085b2:	b580      	push	{r7, lr}
 80085b4:	b088      	sub	sp, #32
 80085b6:	af00      	add	r7, sp, #0
 80085b8:	6078      	str	r0, [r7, #4]
 80085ba:	687b      	ldr	r3, [r7, #4]
 80085bc:	681b      	ldr	r3, [r3, #0]
 80085be:	60fb      	str	r3, [r7, #12]
 80085c0:	68fb      	ldr	r3, [r7, #12]
 80085c2:	e853 3f00 	ldrex	r3, [r3]
 80085c6:	60bb      	str	r3, [r7, #8]
 80085c8:	68bb      	ldr	r3, [r7, #8]
 80085ca:	f023 0340 	bic.w	r3, r3, #64	; 0x40
 80085ce:	61fb      	str	r3, [r7, #28]
 80085d0:	687b      	ldr	r3, [r7, #4]
 80085d2:	681b      	ldr	r3, [r3, #0]
 80085d4:	461a      	mov	r2, r3
 80085d6:	69fb      	ldr	r3, [r7, #28]
 80085d8:	61bb      	str	r3, [r7, #24]
 80085da:	617a      	str	r2, [r7, #20]
 80085dc:	6979      	ldr	r1, [r7, #20]
 80085de:	69ba      	ldr	r2, [r7, #24]
 80085e0:	e841 2300 	strex	r3, r2, [r1]
 80085e4:	613b      	str	r3, [r7, #16]
 80085e6:	693b      	ldr	r3, [r7, #16]
 80085e8:	2b00      	cmp	r3, #0
 80085ea:	d1e6      	bne.n	80085ba <UART_EndTransmit_IT+0x8>
 80085ec:	687b      	ldr	r3, [r7, #4]
 80085ee:	2220      	movs	r2, #32
 80085f0:	f8c3 2088 	str.w	r2, [r3, #136]	; 0x88
 80085f4:	687b      	ldr	r3, [r7, #4]
 80085f6:	2200      	movs	r2, #0
 80085f8:	679a      	str	r2, [r3, #120]	; 0x78
 80085fa:	6878      	ldr	r0, [r7, #4]
 80085fc:	f7ff fab8 	bl	8007b70 <HAL_UART_TxCpltCallback>
 8008600:	bf00      	nop
 8008602:	3720      	adds	r7, #32
 8008604:	46bd      	mov	sp, r7
 8008606:	bd80      	pop	{r7, pc}

08008608 <HAL_UARTEx_WakeupCallback>:
 8008608:	b480      	push	{r7}
 800860a:	b083      	sub	sp, #12
 800860c:	af00      	add	r7, sp, #0
 800860e:	6078      	str	r0, [r7, #4]
 8008610:	bf00      	nop
 8008612:	370c      	adds	r7, #12
 8008614:	46bd      	mov	sp, r7
 8008616:	f85d 7b04 	ldr.w	r7, [sp], #4
 800861a:	4770      	bx	lr

0800861c <HAL_UARTEx_RxFifoFullCallback>:
 800861c:	b480      	push	{r7}
 800861e:	b083      	sub	sp, #12
 8008620:	af00      	add	r7, sp, #0
 8008622:	6078      	str	r0, [r7, #4]
 8008624:	bf00      	nop
 8008626:	370c      	adds	r7, #12
 8008628:	46bd      	mov	sp, r7
 800862a:	f85d 7b04 	ldr.w	r7, [sp], #4
 800862e:	4770      	bx	lr

08008630 <HAL_UARTEx_TxFifoEmptyCallback>:
 8008630:	b480      	push	{r7}
 8008632:	b083      	sub	sp, #12
 8008634:	af00      	add	r7, sp, #0
 8008636:	6078      	str	r0, [r7, #4]
 8008638:	bf00      	nop
 800863a:	370c      	adds	r7, #12
 800863c:	46bd      	mov	sp, r7
 800863e:	f85d 7b04 	ldr.w	r7, [sp], #4
 8008642:	4770      	bx	lr

08008644 <HAL_UARTEx_DisableFifoMode>:
 8008644:	b480      	push	{r7}
 8008646:	b085      	sub	sp, #20
 8008648:	af00      	add	r7, sp, #0
 800864a:	6078      	str	r0, [r7, #4]
 800864c:	687b      	ldr	r3, [r7, #4]
 800864e:	f893 3084 	ldrb.w	r3, [r3, #132]	; 0x84
 8008652:	2b01      	cmp	r3, #1
 8008654:	d101      	bne.n	800865a <HAL_UARTEx_DisableFifoMode+0x16>
 8008656:	2302      	movs	r3, #2
 8008658:	e027      	b.n	80086aa <HAL_UARTEx_DisableFifoMode+0x66>
 800865a:	687b      	ldr	r3, [r7, #4]
 800865c:	2201      	movs	r2, #1
 800865e:	f883 2084 	strb.w	r2, [r3, #132]	; 0x84
 8008662:	687b      	ldr	r3, [r7, #4]
 8008664:	2224      	movs	r2, #36	; 0x24
 8008666:	f8c3 2088 	str.w	r2, [r3, #136]	; 0x88
 800866a:	687b      	ldr	r3, [r7, #4]
 800866c:	681b      	ldr	r3, [r3, #0]
 800866e:	681b      	ldr	r3, [r3, #0]
 8008670:	60fb      	str	r3, [r7, #12]
 8008672:	687b      	ldr	r3, [r7, #4]
 8008674:	681b      	ldr	r3, [r3, #0]
 8008676:	681a      	ldr	r2, [r3, #0]
 8008678:	687b      	ldr	r3, [r7, #4]
 800867a:	681b      	ldr	r3, [r3, #0]
 800867c:	f022 0201 	bic.w	r2, r2, #1
 8008680:	601a      	str	r2, [r3, #0]
 8008682:	68fb      	ldr	r3, [r7, #12]
 8008684:	f023 5300 	bic.w	r3, r3, #536870912	; 0x20000000
 8008688:	60fb      	str	r3, [r7, #12]
 800868a:	687b      	ldr	r3, [r7, #4]
 800868c:	2200      	movs	r2, #0
 800868e:	665a      	str	r2, [r3, #100]	; 0x64
 8008690:	687b      	ldr	r3, [r7, #4]
 8008692:	681b      	ldr	r3, [r3, #0]
 8008694:	68fa      	ldr	r2, [r7, #12]
 8008696:	601a      	str	r2, [r3, #0]
 8008698:	687b      	ldr	r3, [r7, #4]
 800869a:	2220      	movs	r2, #32
 800869c:	f8c3 2088 	str.w	r2, [r3, #136]	; 0x88
 80086a0:	687b      	ldr	r3, [r7, #4]
 80086a2:	2200      	movs	r2, #0
 80086a4:	f883 2084 	strb.w	r2, [r3, #132]	; 0x84
 80086a8:	2300      	movs	r3, #0
 80086aa:	4618      	mov	r0, r3
 80086ac:	3714      	adds	r7, #20
 80086ae:	46bd      	mov	sp, r7
 80086b0:	f85d 7b04 	ldr.w	r7, [sp], #4
 80086b4:	4770      	bx	lr

080086b6 <HAL_UARTEx_SetTxFifoThreshold>:
 80086b6:	b580      	push	{r7, lr}
 80086b8:	b084      	sub	sp, #16
 80086ba:	af00      	add	r7, sp, #0
 80086bc:	6078      	str	r0, [r7, #4]
 80086be:	6039      	str	r1, [r7, #0]
 80086c0:	687b      	ldr	r3, [r7, #4]
 80086c2:	f893 3084 	ldrb.w	r3, [r3, #132]	; 0x84
 80086c6:	2b01      	cmp	r3, #1
 80086c8:	d101      	bne.n	80086ce <HAL_UARTEx_SetTxFifoThreshold+0x18>
 80086ca:	2302      	movs	r3, #2
 80086cc:	e02d      	b.n	800872a <HAL_UARTEx_SetTxFifoThreshold+0x74>
 80086ce:	687b      	ldr	r3, [r7, #4]
 80086d0:	2201      	movs	r2, #1
 80086d2:	f883 2084 	strb.w	r2, [r3, #132]	; 0x84
 80086d6:	687b      	ldr	r3, [r7, #4]
 80086d8:	2224      	movs	r2, #36	; 0x24
 80086da:	f8c3 2088 	str.w	r2, [r3, #136]	; 0x88
 80086de:	687b      	ldr	r3, [r7, #4]
 80086e0:	681b      	ldr	r3, [r3, #0]
 80086e2:	681b      	ldr	r3, [r3, #0]
 80086e4:	60fb      	str	r3, [r7, #12]
 80086e6:	687b      	ldr	r3, [r7, #4]
 80086e8:	681b      	ldr	r3, [r3, #0]
 80086ea:	681a      	ldr	r2, [r3, #0]
 80086ec:	687b      	ldr	r3, [r7, #4]
 80086ee:	681b      	ldr	r3, [r3, #0]
 80086f0:	f022 0201 	bic.w	r2, r2, #1
 80086f4:	601a      	str	r2, [r3, #0]
 80086f6:	687b      	ldr	r3, [r7, #4]
 80086f8:	681b      	ldr	r3, [r3, #0]
 80086fa:	689b      	ldr	r3, [r3, #8]
 80086fc:	f023 4160 	bic.w	r1, r3, #3758096384	; 0xe0000000
 8008700:	687b      	ldr	r3, [r7, #4]
 8008702:	681b      	ldr	r3, [r3, #0]
 8008704:	683a      	ldr	r2, [r7, #0]
 8008706:	430a      	orrs	r2, r1
 8008708:	609a      	str	r2, [r3, #8]
 800870a:	6878      	ldr	r0, [r7, #4]
 800870c:	f000 f850 	bl	80087b0 <UARTEx_SetNbDataToProcess>
 8008710:	687b      	ldr	r3, [r7, #4]
 8008712:	681b      	ldr	r3, [r3, #0]
 8008714:	68fa      	ldr	r2, [r7, #12]
 8008716:	601a      	str	r2, [r3, #0]
 8008718:	687b      	ldr	r3, [r7, #4]
 800871a:	2220      	movs	r2, #32
 800871c:	f8c3 2088 	str.w	r2, [r3, #136]	; 0x88
 8008720:	687b      	ldr	r3, [r7, #4]
 8008722:	2200      	movs	r2, #0
 8008724:	f883 2084 	strb.w	r2, [r3, #132]	; 0x84
 8008728:	2300      	movs	r3, #0
 800872a:	4618      	mov	r0, r3
 800872c:	3710      	adds	r7, #16
 800872e:	46bd      	mov	sp, r7
 8008730:	bd80      	pop	{r7, pc}

08008732 <HAL_UARTEx_SetRxFifoThreshold>:
 8008732:	b580      	push	{r7, lr}
 8008734:	b084      	sub	sp, #16
 8008736:	af00      	add	r7, sp, #0
 8008738:	6078      	str	r0, [r7, #4]
 800873a:	6039      	str	r1, [r7, #0]
 800873c:	687b      	ldr	r3, [r7, #4]
 800873e:	f893 3084 	ldrb.w	r3, [r3, #132]	; 0x84
 8008742:	2b01      	cmp	r3, #1
 8008744:	d101      	bne.n	800874a <HAL_UARTEx_SetRxFifoThreshold+0x18>
 8008746:	2302      	movs	r3, #2
 8008748:	e02d      	b.n	80087a6 <HAL_UARTEx_SetRxFifoThreshold+0x74>
 800874a:	687b      	ldr	r3, [r7, #4]
 800874c:	2201      	movs	r2, #1
 800874e:	f883 2084 	strb.w	r2, [r3, #132]	; 0x84
 8008752:	687b      	ldr	r3, [r7, #4]
 8008754:	2224      	movs	r2, #36	; 0x24
 8008756:	f8c3 2088 	str.w	r2, [r3, #136]	; 0x88
 800875a:	687b      	ldr	r3, [r7, #4]
 800875c:	681b      	ldr	r3, [r3, #0]
 800875e:	681b      	ldr	r3, [r3, #0]
 8008760:	60fb      	str	r3, [r7, #12]
 8008762:	687b      	ldr	r3, [r7, #4]
 8008764:	681b      	ldr	r3, [r3, #0]
 8008766:	681a      	ldr	r2, [r3, #0]
 8008768:	687b      	ldr	r3, [r7, #4]
 800876a:	681b      	ldr	r3, [r3, #0]
 800876c:	f022 0201 	bic.w	r2, r2, #1
 8008770:	601a      	str	r2, [r3, #0]
 8008772:	687b      	ldr	r3, [r7, #4]
 8008774:	681b      	ldr	r3, [r3, #0]
 8008776:	689b      	ldr	r3, [r3, #8]
 8008778:	f023 6160 	bic.w	r1, r3, #234881024	; 0xe000000
 800877c:	687b      	ldr	r3, [r7, #4]
 800877e:	681b      	ldr	r3, [r3, #0]
 8008780:	683a      	ldr	r2, [r7, #0]
 8008782:	430a      	orrs	r2, r1
 8008784:	609a      	str	r2, [r3, #8]
 8008786:	6878      	ldr	r0, [r7, #4]
 8008788:	f000 f812 	bl	80087b0 <UARTEx_SetNbDataToProcess>
 800878c:	687b      	ldr	r3, [r7, #4]
 800878e:	681b      	ldr	r3, [r3, #0]
 8008790:	68fa      	ldr	r2, [r7, #12]
 8008792:	601a      	str	r2, [r3, #0]
 8008794:	687b      	ldr	r3, [r7, #4]
 8008796:	2220      	movs	r2, #32
 8008798:	f8c3 2088 	str.w	r2, [r3, #136]	; 0x88
 800879c:	687b      	ldr	r3, [r7, #4]
 800879e:	2200      	movs	r2, #0
 80087a0:	f883 2084 	strb.w	r2, [r3, #132]	; 0x84
 80087a4:	2300      	movs	r3, #0
 80087a6:	4618      	mov	r0, r3
 80087a8:	3710      	adds	r7, #16
 80087aa:	46bd      	mov	sp, r7
 80087ac:	bd80      	pop	{r7, pc}
	...

080087b0 <UARTEx_SetNbDataToProcess>:
 80087b0:	b480      	push	{r7}
 80087b2:	b085      	sub	sp, #20
 80087b4:	af00      	add	r7, sp, #0
 80087b6:	6078      	str	r0, [r7, #4]
 80087b8:	687b      	ldr	r3, [r7, #4]
 80087ba:	6e5b      	ldr	r3, [r3, #100]	; 0x64
 80087bc:	2b00      	cmp	r3, #0
 80087be:	d108      	bne.n	80087d2 <UARTEx_SetNbDataToProcess+0x22>
 80087c0:	687b      	ldr	r3, [r7, #4]
 80087c2:	2201      	movs	r2, #1
 80087c4:	f8a3 206a 	strh.w	r2, [r3, #106]	; 0x6a
 80087c8:	687b      	ldr	r3, [r7, #4]
 80087ca:	2201      	movs	r2, #1
 80087cc:	f8a3 2068 	strh.w	r2, [r3, #104]	; 0x68
 80087d0:	e031      	b.n	8008836 <UARTEx_SetNbDataToProcess+0x86>
 80087d2:	2308      	movs	r3, #8
 80087d4:	73fb      	strb	r3, [r7, #15]
 80087d6:	2308      	movs	r3, #8
 80087d8:	73bb      	strb	r3, [r7, #14]
 80087da:	687b      	ldr	r3, [r7, #4]
 80087dc:	681b      	ldr	r3, [r3, #0]
 80087de:	689b      	ldr	r3, [r3, #8]
 80087e0:	0e5b      	lsrs	r3, r3, #25
 80087e2:	b2db      	uxtb	r3, r3
 80087e4:	f003 0307 	and.w	r3, r3, #7
 80087e8:	737b      	strb	r3, [r7, #13]
 80087ea:	687b      	ldr	r3, [r7, #4]
 80087ec:	681b      	ldr	r3, [r3, #0]
 80087ee:	689b      	ldr	r3, [r3, #8]
 80087f0:	0f5b      	lsrs	r3, r3, #29
 80087f2:	b2db      	uxtb	r3, r3
 80087f4:	f003 0307 	and.w	r3, r3, #7
 80087f8:	733b      	strb	r3, [r7, #12]
 80087fa:	7bbb      	ldrb	r3, [r7, #14]
 80087fc:	7b3a      	ldrb	r2, [r7, #12]
 80087fe:	4911      	ldr	r1, [pc, #68]	; (8008844 <UARTEx_SetNbDataToProcess+0x94>)
 8008800:	5c8a      	ldrb	r2, [r1, r2]
 8008802:	fb02 f303 	mul.w	r3, r2, r3
 8008806:	7b3a      	ldrb	r2, [r7, #12]
 8008808:	490f      	ldr	r1, [pc, #60]	; (8008848 <UARTEx_SetNbDataToProcess+0x98>)
 800880a:	5c8a      	ldrb	r2, [r1, r2]
 800880c:	fb93 f3f2 	sdiv	r3, r3, r2
 8008810:	b29a      	uxth	r2, r3
 8008812:	687b      	ldr	r3, [r7, #4]
 8008814:	f8a3 206a 	strh.w	r2, [r3, #106]	; 0x6a
 8008818:	7bfb      	ldrb	r3, [r7, #15]
 800881a:	7b7a      	ldrb	r2, [r7, #13]
 800881c:	4909      	ldr	r1, [pc, #36]	; (8008844 <UARTEx_SetNbDataToProcess+0x94>)
 800881e:	5c8a      	ldrb	r2, [r1, r2]
 8008820:	fb02 f303 	mul.w	r3, r2, r3
 8008824:	7b7a      	ldrb	r2, [r7, #13]
 8008826:	4908      	ldr	r1, [pc, #32]	; (8008848 <UARTEx_SetNbDataToProcess+0x98>)
 8008828:	5c8a      	ldrb	r2, [r1, r2]
 800882a:	fb93 f3f2 	sdiv	r3, r3, r2
 800882e:	b29a      	uxth	r2, r3
 8008830:	687b      	ldr	r3, [r7, #4]
 8008832:	f8a3 2068 	strh.w	r2, [r3, #104]	; 0x68
 8008836:	bf00      	nop
 8008838:	3714      	adds	r7, #20
 800883a:	46bd      	mov	sp, r7
 800883c:	f85d 7b04 	ldr.w	r7, [sp], #4
 8008840:	4770      	bx	lr
 8008842:	bf00      	nop
 8008844:	0800d238 	.word	0x0800d238
 8008848:	0800d240 	.word	0x0800d240

0800884c <USB_EnableGlobalInt>:
 800884c:	b480      	push	{r7}
 800884e:	b085      	sub	sp, #20
 8008850:	af00      	add	r7, sp, #0
 8008852:	6078      	str	r0, [r7, #4]
 8008854:	687b      	ldr	r3, [r7, #4]
 8008856:	2200      	movs	r2, #0
 8008858:	f8a3 2044 	strh.w	r2, [r3, #68]	; 0x44
 800885c:	f64b 7380 	movw	r3, #49024	; 0xbf80
 8008860:	60fb      	str	r3, [r7, #12]
 8008862:	68fb      	ldr	r3, [r7, #12]
 8008864:	b29a      	uxth	r2, r3
 8008866:	687b      	ldr	r3, [r7, #4]
 8008868:	f8a3 2040 	strh.w	r2, [r3, #64]	; 0x40
 800886c:	2300      	movs	r3, #0
 800886e:	4618      	mov	r0, r3
 8008870:	3714      	adds	r7, #20
 8008872:	46bd      	mov	sp, r7
 8008874:	f85d 7b04 	ldr.w	r7, [sp], #4
 8008878:	4770      	bx	lr

0800887a <USB_DisableGlobalInt>:
 800887a:	b480      	push	{r7}
 800887c:	b085      	sub	sp, #20
 800887e:	af00      	add	r7, sp, #0
 8008880:	6078      	str	r0, [r7, #4]
 8008882:	f64b 7380 	movw	r3, #49024	; 0xbf80
 8008886:	60fb      	str	r3, [r7, #12]
 8008888:	687b      	ldr	r3, [r7, #4]
 800888a:	f8b3 3040 	ldrh.w	r3, [r3, #64]	; 0x40
 800888e:	b29a      	uxth	r2, r3
 8008890:	68fb      	ldr	r3, [r7, #12]
 8008892:	b29b      	uxth	r3, r3
 8008894:	43db      	mvns	r3, r3
 8008896:	b29b      	uxth	r3, r3
 8008898:	4013      	ands	r3, r2
 800889a:	b29a      	uxth	r2, r3
 800889c:	687b      	ldr	r3, [r7, #4]
 800889e:	f8a3 2040 	strh.w	r2, [r3, #64]	; 0x40
 80088a2:	2300      	movs	r3, #0
 80088a4:	4618      	mov	r0, r3
 80088a6:	3714      	adds	r7, #20
 80088a8:	46bd      	mov	sp, r7
 80088aa:	f85d 7b04 	ldr.w	r7, [sp], #4
 80088ae:	4770      	bx	lr

080088b0 <USB_DevInit>:
 80088b0:	b480      	push	{r7}
 80088b2:	b085      	sub	sp, #20
 80088b4:	af00      	add	r7, sp, #0
 80088b6:	60f8      	str	r0, [r7, #12]
 80088b8:	1d3b      	adds	r3, r7, #4
 80088ba:	e883 0006 	stmia.w	r3, {r1, r2}
 80088be:	68fb      	ldr	r3, [r7, #12]
 80088c0:	2201      	movs	r2, #1
 80088c2:	f8a3 2040 	strh.w	r2, [r3, #64]	; 0x40
 80088c6:	68fb      	ldr	r3, [r7, #12]
 80088c8:	2200      	movs	r2, #0
 80088ca:	f8a3 2040 	strh.w	r2, [r3, #64]	; 0x40
 80088ce:	68fb      	ldr	r3, [r7, #12]
 80088d0:	2200      	movs	r2, #0
 80088d2:	f8a3 2044 	strh.w	r2, [r3, #68]	; 0x44
 80088d6:	68fb      	ldr	r3, [r7, #12]
 80088d8:	2200      	movs	r2, #0
 80088da:	f8a3 2050 	strh.w	r2, [r3, #80]	; 0x50
 80088de:	2300      	movs	r3, #0
 80088e0:	4618      	mov	r0, r3
 80088e2:	3714      	adds	r7, #20
 80088e4:	46bd      	mov	sp, r7
 80088e6:	f85d 7b04 	ldr.w	r7, [sp], #4
 80088ea:	4770      	bx	lr

080088ec <USB_ActivateEndpoint>:
 80088ec:	b480      	push	{r7}
 80088ee:	b09d      	sub	sp, #116	; 0x74
 80088f0:	af00      	add	r7, sp, #0
 80088f2:	6078      	str	r0, [r7, #4]
 80088f4:	6039      	str	r1, [r7, #0]
 80088f6:	2300      	movs	r3, #0
 80088f8:	f887 306f 	strb.w	r3, [r7, #111]	; 0x6f
 80088fc:	687a      	ldr	r2, [r7, #4]
 80088fe:	683b      	ldr	r3, [r7, #0]
 8008900:	781b      	ldrb	r3, [r3, #0]
 8008902:	009b      	lsls	r3, r3, #2
 8008904:	4413      	add	r3, r2
 8008906:	881b      	ldrh	r3, [r3, #0]
 8008908:	b29b      	uxth	r3, r3
 800890a:	f423 43ec 	bic.w	r3, r3, #30208	; 0x7600
 800890e:	f023 0370 	bic.w	r3, r3, #112	; 0x70
 8008912:	f8a7 306c 	strh.w	r3, [r7, #108]	; 0x6c
 8008916:	683b      	ldr	r3, [r7, #0]
 8008918:	78db      	ldrb	r3, [r3, #3]
 800891a:	2b03      	cmp	r3, #3
 800891c:	d81f      	bhi.n	800895e <USB_ActivateEndpoint+0x72>
 800891e:	a201      	add	r2, pc, #4	; (adr r2, 8008924 <USB_ActivateEndpoint+0x38>)
 8008920:	f852 f023 	ldr.w	pc, [r2, r3, lsl #2]
 8008924:	08008935 	.word	0x08008935
 8008928:	08008951 	.word	0x08008951
 800892c:	08008967 	.word	0x08008967
 8008930:	08008943 	.word	0x08008943
 8008934:	f8b7 306c 	ldrh.w	r3, [r7, #108]	; 0x6c
 8008938:	f443 7300 	orr.w	r3, r3, #512	; 0x200
 800893c:	f8a7 306c 	strh.w	r3, [r7, #108]	; 0x6c
 8008940:	e012      	b.n	8008968 <USB_ActivateEndpoint+0x7c>
 8008942:	f8b7 306c 	ldrh.w	r3, [r7, #108]	; 0x6c
 8008946:	f443 63c0 	orr.w	r3, r3, #1536	; 0x600
 800894a:	f8a7 306c 	strh.w	r3, [r7, #108]	; 0x6c
 800894e:	e00b      	b.n	8008968 <USB_ActivateEndpoint+0x7c>
 8008950:	f8b7 306c 	ldrh.w	r3, [r7, #108]	; 0x6c
 8008954:	f443 6380 	orr.w	r3, r3, #1024	; 0x400
 8008958:	f8a7 306c 	strh.w	r3, [r7, #108]	; 0x6c
 800895c:	e004      	b.n	8008968 <USB_ActivateEndpoint+0x7c>
 800895e:	2301      	movs	r3, #1
 8008960:	f887 306f 	strb.w	r3, [r7, #111]	; 0x6f
 8008964:	e000      	b.n	8008968 <USB_ActivateEndpoint+0x7c>
 8008966:	bf00      	nop
 8008968:	687a      	ldr	r2, [r7, #4]
 800896a:	683b      	ldr	r3, [r7, #0]
 800896c:	781b      	ldrb	r3, [r3, #0]
 800896e:	009b      	lsls	r3, r3, #2
 8008970:	441a      	add	r2, r3
 8008972:	f8b7 306c 	ldrh.w	r3, [r7, #108]	; 0x6c
 8008976:	f043 437f 	orr.w	r3, r3, #4278190080	; 0xff000000
 800897a:	f443 037f 	orr.w	r3, r3, #16711680	; 0xff0000
 800897e:	f443 4300 	orr.w	r3, r3, #32768	; 0x8000
 8008982:	f043 0380 	orr.w	r3, r3, #128	; 0x80
 8008986:	b29b      	uxth	r3, r3
 8008988:	8013      	strh	r3, [r2, #0]
 800898a:	687a      	ldr	r2, [r7, #4]
 800898c:	683b      	ldr	r3, [r7, #0]
 800898e:	781b      	ldrb	r3, [r3, #0]
 8008990:	009b      	lsls	r3, r3, #2
 8008992:	4413      	add	r3, r2
 8008994:	881b      	ldrh	r3, [r3, #0]
 8008996:	b29b      	uxth	r3, r3
 8008998:	b21b      	sxth	r3, r3
 800899a:	f423 43e0 	bic.w	r3, r3, #28672	; 0x7000
 800899e:	f023 0370 	bic.w	r3, r3, #112	; 0x70
 80089a2:	b21a      	sxth	r2, r3
 80089a4:	683b      	ldr	r3, [r7, #0]
 80089a6:	781b      	ldrb	r3, [r3, #0]
 80089a8:	b21b      	sxth	r3, r3
 80089aa:	4313      	orrs	r3, r2
 80089ac:	b21b      	sxth	r3, r3
 80089ae:	f8a7 3066 	strh.w	r3, [r7, #102]	; 0x66
 80089b2:	687a      	ldr	r2, [r7, #4]
 80089b4:	683b      	ldr	r3, [r7, #0]
 80089b6:	781b      	ldrb	r3, [r3, #0]
 80089b8:	009b      	lsls	r3, r3, #2
 80089ba:	441a      	add	r2, r3
 80089bc:	f8b7 3066 	ldrh.w	r3, [r7, #102]	; 0x66
 80089c0:	f043 437f 	orr.w	r3, r3, #4278190080	; 0xff000000
 80089c4:	f443 037f 	orr.w	r3, r3, #16711680	; 0xff0000
 80089c8:	f443 4300 	orr.w	r3, r3, #32768	; 0x8000
 80089cc:	f043 0380 	orr.w	r3, r3, #128	; 0x80
 80089d0:	b29b      	uxth	r3, r3
 80089d2:	8013      	strh	r3, [r2, #0]
 80089d4:	683b      	ldr	r3, [r7, #0]
 80089d6:	7b1b      	ldrb	r3, [r3, #12]
 80089d8:	2b00      	cmp	r3, #0
 80089da:	f040 8178 	bne.w	8008cce <USB_ActivateEndpoint+0x3e2>
 80089de:	683b      	ldr	r3, [r7, #0]
 80089e0:	785b      	ldrb	r3, [r3, #1]
 80089e2:	2b00      	cmp	r3, #0
 80089e4:	f000 8084 	beq.w	8008af0 <USB_ActivateEndpoint+0x204>
 80089e8:	687b      	ldr	r3, [r7, #4]
 80089ea:	61bb      	str	r3, [r7, #24]
 80089ec:	687b      	ldr	r3, [r7, #4]
 80089ee:	f8b3 3050 	ldrh.w	r3, [r3, #80]	; 0x50
 80089f2:	b29b      	uxth	r3, r3
 80089f4:	461a      	mov	r2, r3
 80089f6:	69bb      	ldr	r3, [r7, #24]
 80089f8:	4413      	add	r3, r2
 80089fa:	61bb      	str	r3, [r7, #24]
 80089fc:	683b      	ldr	r3, [r7, #0]
 80089fe:	781b      	ldrb	r3, [r3, #0]
 8008a00:	00da      	lsls	r2, r3, #3
 8008a02:	69bb      	ldr	r3, [r7, #24]
 8008a04:	4413      	add	r3, r2
 8008a06:	f503 6380 	add.w	r3, r3, #1024	; 0x400
 8008a0a:	617b      	str	r3, [r7, #20]
 8008a0c:	683b      	ldr	r3, [r7, #0]
 8008a0e:	88db      	ldrh	r3, [r3, #6]
 8008a10:	085b      	lsrs	r3, r3, #1
 8008a12:	b29b      	uxth	r3, r3
 8008a14:	005b      	lsls	r3, r3, #1
 8008a16:	b29a      	uxth	r2, r3
 8008a18:	697b      	ldr	r3, [r7, #20]
 8008a1a:	801a      	strh	r2, [r3, #0]
 8008a1c:	687a      	ldr	r2, [r7, #4]
 8008a1e:	683b      	ldr	r3, [r7, #0]
 8008a20:	781b      	ldrb	r3, [r3, #0]
 8008a22:	009b      	lsls	r3, r3, #2
 8008a24:	4413      	add	r3, r2
 8008a26:	881b      	ldrh	r3, [r3, #0]
 8008a28:	827b      	strh	r3, [r7, #18]
 8008a2a:	8a7b      	ldrh	r3, [r7, #18]
 8008a2c:	f003 0340 	and.w	r3, r3, #64	; 0x40
 8008a30:	2b00      	cmp	r3, #0
 8008a32:	d01b      	beq.n	8008a6c <USB_ActivateEndpoint+0x180>
 8008a34:	687a      	ldr	r2, [r7, #4]
 8008a36:	683b      	ldr	r3, [r7, #0]
 8008a38:	781b      	ldrb	r3, [r3, #0]
 8008a3a:	009b      	lsls	r3, r3, #2
 8008a3c:	4413      	add	r3, r2
 8008a3e:	881b      	ldrh	r3, [r3, #0]
 8008a40:	b29b      	uxth	r3, r3
 8008a42:	f423 43e0 	bic.w	r3, r3, #28672	; 0x7000
 8008a46:	f023 0370 	bic.w	r3, r3, #112	; 0x70
 8008a4a:	823b      	strh	r3, [r7, #16]
 8008a4c:	687a      	ldr	r2, [r7, #4]
 8008a4e:	683b      	ldr	r3, [r7, #0]
 8008a50:	781b      	ldrb	r3, [r3, #0]
 8008a52:	009b      	lsls	r3, r3, #2
 8008a54:	441a      	add	r2, r3
 8008a56:	8a3b      	ldrh	r3, [r7, #16]
 8008a58:	f043 437f 	orr.w	r3, r3, #4278190080	; 0xff000000
 8008a5c:	f443 037f 	orr.w	r3, r3, #16711680	; 0xff0000
 8008a60:	f443 4300 	orr.w	r3, r3, #32768	; 0x8000
 8008a64:	f043 03c0 	orr.w	r3, r3, #192	; 0xc0
 8008a68:	b29b      	uxth	r3, r3
 8008a6a:	8013      	strh	r3, [r2, #0]
 8008a6c:	683b      	ldr	r3, [r7, #0]
 8008a6e:	78db      	ldrb	r3, [r3, #3]
 8008a70:	2b01      	cmp	r3, #1
 8008a72:	d020      	beq.n	8008ab6 <USB_ActivateEndpoint+0x1ca>
 8008a74:	687a      	ldr	r2, [r7, #4]
 8008a76:	683b      	ldr	r3, [r7, #0]
 8008a78:	781b      	ldrb	r3, [r3, #0]
 8008a7a:	009b      	lsls	r3, r3, #2
 8008a7c:	4413      	add	r3, r2
 8008a7e:	881b      	ldrh	r3, [r3, #0]
 8008a80:	b29b      	uxth	r3, r3
 8008a82:	f423 43e0 	bic.w	r3, r3, #28672	; 0x7000
 8008a86:	f023 0340 	bic.w	r3, r3, #64	; 0x40
 8008a8a:	81bb      	strh	r3, [r7, #12]
 8008a8c:	89bb      	ldrh	r3, [r7, #12]
 8008a8e:	f083 0320 	eor.w	r3, r3, #32
 8008a92:	81bb      	strh	r3, [r7, #12]
 8008a94:	687a      	ldr	r2, [r7, #4]
 8008a96:	683b      	ldr	r3, [r7, #0]
 8008a98:	781b      	ldrb	r3, [r3, #0]
 8008a9a:	009b      	lsls	r3, r3, #2
 8008a9c:	441a      	add	r2, r3
 8008a9e:	89bb      	ldrh	r3, [r7, #12]
 8008aa0:	f043 437f 	orr.w	r3, r3, #4278190080	; 0xff000000
 8008aa4:	f443 037f 	orr.w	r3, r3, #16711680	; 0xff0000
 8008aa8:	f443 4300 	orr.w	r3, r3, #32768	; 0x8000
 8008aac:	f043 0380 	orr.w	r3, r3, #128	; 0x80
 8008ab0:	b29b      	uxth	r3, r3
 8008ab2:	8013      	strh	r3, [r2, #0]
 8008ab4:	e2d5      	b.n	8009062 <USB_ActivateEndpoint+0x776>
 8008ab6:	687a      	ldr	r2, [r7, #4]
 8008ab8:	683b      	ldr	r3, [r7, #0]
 8008aba:	781b      	ldrb	r3, [r3, #0]
 8008abc:	009b      	lsls	r3, r3, #2
 8008abe:	4413      	add	r3, r2
 8008ac0:	881b      	ldrh	r3, [r3, #0]
 8008ac2:	b29b      	uxth	r3, r3
 8008ac4:	f423 43e0 	bic.w	r3, r3, #28672	; 0x7000
 8008ac8:	f023 0340 	bic.w	r3, r3, #64	; 0x40
 8008acc:	81fb      	strh	r3, [r7, #14]
 8008ace:	687a      	ldr	r2, [r7, #4]
 8008ad0:	683b      	ldr	r3, [r7, #0]
 8008ad2:	781b      	ldrb	r3, [r3, #0]
 8008ad4:	009b      	lsls	r3, r3, #2
 8008ad6:	441a      	add	r2, r3
 8008ad8:	89fb      	ldrh	r3, [r7, #14]
 8008ada:	f043 437f 	orr.w	r3, r3, #4278190080	; 0xff000000
 8008ade:	f443 037f 	orr.w	r3, r3, #16711680	; 0xff0000
 8008ae2:	f443 4300 	orr.w	r3, r3, #32768	; 0x8000
 8008ae6:	f043 0380 	orr.w	r3, r3, #128	; 0x80
 8008aea:	b29b      	uxth	r3, r3
 8008aec:	8013      	strh	r3, [r2, #0]
 8008aee:	e2b8      	b.n	8009062 <USB_ActivateEndpoint+0x776>
 8008af0:	687b      	ldr	r3, [r7, #4]
 8008af2:	633b      	str	r3, [r7, #48]	; 0x30
 8008af4:	687b      	ldr	r3, [r7, #4]
 8008af6:	f8b3 3050 	ldrh.w	r3, [r3, #80]	; 0x50
 8008afa:	b29b      	uxth	r3, r3
 8008afc:	461a      	mov	r2, r3
 8008afe:	6b3b      	ldr	r3, [r7, #48]	; 0x30
 8008b00:	4413      	add	r3, r2
 8008b02:	633b      	str	r3, [r7, #48]	; 0x30
 8008b04:	683b      	ldr	r3, [r7, #0]
 8008b06:	781b      	ldrb	r3, [r3, #0]
 8008b08:	00da      	lsls	r2, r3, #3
 8008b0a:	6b3b      	ldr	r3, [r7, #48]	; 0x30
 8008b0c:	4413      	add	r3, r2
 8008b0e:	f203 4304 	addw	r3, r3, #1028	; 0x404
 8008b12:	62fb      	str	r3, [r7, #44]	; 0x2c
 8008b14:	683b      	ldr	r3, [r7, #0]
 8008b16:	88db      	ldrh	r3, [r3, #6]
 8008b18:	085b      	lsrs	r3, r3, #1
 8008b1a:	b29b      	uxth	r3, r3
 8008b1c:	005b      	lsls	r3, r3, #1
 8008b1e:	b29a      	uxth	r2, r3
 8008b20:	6afb      	ldr	r3, [r7, #44]	; 0x2c
 8008b22:	801a      	strh	r2, [r3, #0]
 8008b24:	687b      	ldr	r3, [r7, #4]
 8008b26:	62bb      	str	r3, [r7, #40]	; 0x28
 8008b28:	687b      	ldr	r3, [r7, #4]
 8008b2a:	f8b3 3050 	ldrh.w	r3, [r3, #80]	; 0x50
 8008b2e:	b29b      	uxth	r3, r3
 8008b30:	461a      	mov	r2, r3
 8008b32:	6abb      	ldr	r3, [r7, #40]	; 0x28
 8008b34:	4413      	add	r3, r2
 8008b36:	62bb      	str	r3, [r7, #40]	; 0x28
 8008b38:	683b      	ldr	r3, [r7, #0]
 8008b3a:	781b      	ldrb	r3, [r3, #0]
 8008b3c:	00da      	lsls	r2, r3, #3
 8008b3e:	6abb      	ldr	r3, [r7, #40]	; 0x28
 8008b40:	4413      	add	r3, r2
 8008b42:	f203 4306 	addw	r3, r3, #1030	; 0x406
 8008b46:	627b      	str	r3, [r7, #36]	; 0x24
 8008b48:	6a7b      	ldr	r3, [r7, #36]	; 0x24
 8008b4a:	881b      	ldrh	r3, [r3, #0]
 8008b4c:	b29b      	uxth	r3, r3
 8008b4e:	f3c3 0309 	ubfx	r3, r3, #0, #10
 8008b52:	b29a      	uxth	r2, r3
 8008b54:	6a7b      	ldr	r3, [r7, #36]	; 0x24
 8008b56:	801a      	strh	r2, [r3, #0]
 8008b58:	683b      	ldr	r3, [r7, #0]
 8008b5a:	691b      	ldr	r3, [r3, #16]
 8008b5c:	2b3e      	cmp	r3, #62	; 0x3e
 8008b5e:	d91d      	bls.n	8008b9c <USB_ActivateEndpoint+0x2b0>
 8008b60:	683b      	ldr	r3, [r7, #0]
 8008b62:	691b      	ldr	r3, [r3, #16]
 8008b64:	095b      	lsrs	r3, r3, #5
 8008b66:	66bb      	str	r3, [r7, #104]	; 0x68
 8008b68:	683b      	ldr	r3, [r7, #0]
 8008b6a:	691b      	ldr	r3, [r3, #16]
 8008b6c:	f003 031f 	and.w	r3, r3, #31
 8008b70:	2b00      	cmp	r3, #0
 8008b72:	d102      	bne.n	8008b7a <USB_ActivateEndpoint+0x28e>
 8008b74:	6ebb      	ldr	r3, [r7, #104]	; 0x68
 8008b76:	3b01      	subs	r3, #1
 8008b78:	66bb      	str	r3, [r7, #104]	; 0x68
 8008b7a:	6a7b      	ldr	r3, [r7, #36]	; 0x24
 8008b7c:	881b      	ldrh	r3, [r3, #0]
 8008b7e:	b29a      	uxth	r2, r3
 8008b80:	6ebb      	ldr	r3, [r7, #104]	; 0x68
 8008b82:	b29b      	uxth	r3, r3
 8008b84:	029b      	lsls	r3, r3, #10
 8008b86:	b29b      	uxth	r3, r3
 8008b88:	4313      	orrs	r3, r2
 8008b8a:	b29b      	uxth	r3, r3
 8008b8c:	ea6f 4343 	mvn.w	r3, r3, lsl #17
 8008b90:	ea6f 4353 	mvn.w	r3, r3, lsr #17
 8008b94:	b29a      	uxth	r2, r3
 8008b96:	6a7b      	ldr	r3, [r7, #36]	; 0x24
 8008b98:	801a      	strh	r2, [r3, #0]
 8008b9a:	e026      	b.n	8008bea <USB_ActivateEndpoint+0x2fe>
 8008b9c:	683b      	ldr	r3, [r7, #0]
 8008b9e:	691b      	ldr	r3, [r3, #16]
 8008ba0:	2b00      	cmp	r3, #0
 8008ba2:	d10a      	bne.n	8008bba <USB_ActivateEndpoint+0x2ce>
 8008ba4:	6a7b      	ldr	r3, [r7, #36]	; 0x24
 8008ba6:	881b      	ldrh	r3, [r3, #0]
 8008ba8:	b29b      	uxth	r3, r3
 8008baa:	ea6f 4343 	mvn.w	r3, r3, lsl #17
 8008bae:	ea6f 4353 	mvn.w	r3, r3, lsr #17
 8008bb2:	b29a      	uxth	r2, r3
 8008bb4:	6a7b      	ldr	r3, [r7, #36]	; 0x24
 8008bb6:	801a      	strh	r2, [r3, #0]
 8008bb8:	e017      	b.n	8008bea <USB_ActivateEndpoint+0x2fe>
 8008bba:	683b      	ldr	r3, [r7, #0]
 8008bbc:	691b      	ldr	r3, [r3, #16]
 8008bbe:	085b      	lsrs	r3, r3, #1
 8008bc0:	66bb      	str	r3, [r7, #104]	; 0x68
 8008bc2:	683b      	ldr	r3, [r7, #0]
 8008bc4:	691b      	ldr	r3, [r3, #16]
 8008bc6:	f003 0301 	and.w	r3, r3, #1
 8008bca:	2b00      	cmp	r3, #0
 8008bcc:	d002      	beq.n	8008bd4 <USB_ActivateEndpoint+0x2e8>
 8008bce:	6ebb      	ldr	r3, [r7, #104]	; 0x68
 8008bd0:	3301      	adds	r3, #1
 8008bd2:	66bb      	str	r3, [r7, #104]	; 0x68
 8008bd4:	6a7b      	ldr	r3, [r7, #36]	; 0x24
 8008bd6:	881b      	ldrh	r3, [r3, #0]
 8008bd8:	b29a      	uxth	r2, r3
 8008bda:	6ebb      	ldr	r3, [r7, #104]	; 0x68
 8008bdc:	b29b      	uxth	r3, r3
 8008bde:	029b      	lsls	r3, r3, #10
 8008be0:	b29b      	uxth	r3, r3
 8008be2:	4313      	orrs	r3, r2
 8008be4:	b29a      	uxth	r2, r3
 8008be6:	6a7b      	ldr	r3, [r7, #36]	; 0x24
 8008be8:	801a      	strh	r2, [r3, #0]
 8008bea:	687a      	ldr	r2, [r7, #4]
 8008bec:	683b      	ldr	r3, [r7, #0]
 8008bee:	781b      	ldrb	r3, [r3, #0]
 8008bf0:	009b      	lsls	r3, r3, #2
 8008bf2:	4413      	add	r3, r2
 8008bf4:	881b      	ldrh	r3, [r3, #0]
 8008bf6:	847b      	strh	r3, [r7, #34]	; 0x22
 8008bf8:	8c7b      	ldrh	r3, [r7, #34]	; 0x22
 8008bfa:	f403 4380 	and.w	r3, r3, #16384	; 0x4000
 8008bfe:	2b00      	cmp	r3, #0
 8008c00:	d01b      	beq.n	8008c3a <USB_ActivateEndpoint+0x34e>
 8008c02:	687a      	ldr	r2, [r7, #4]
 8008c04:	683b      	ldr	r3, [r7, #0]
 8008c06:	781b      	ldrb	r3, [r3, #0]
 8008c08:	009b      	lsls	r3, r3, #2
 8008c0a:	4413      	add	r3, r2
 8008c0c:	881b      	ldrh	r3, [r3, #0]
 8008c0e:	b29b      	uxth	r3, r3
 8008c10:	f423 43e0 	bic.w	r3, r3, #28672	; 0x7000
 8008c14:	f023 0370 	bic.w	r3, r3, #112	; 0x70
 8008c18:	843b      	strh	r3, [r7, #32]
 8008c1a:	687a      	ldr	r2, [r7, #4]
 8008c1c:	683b      	ldr	r3, [r7, #0]
 8008c1e:	781b      	ldrb	r3, [r3, #0]
 8008c20:	009b      	lsls	r3, r3, #2
 8008c22:	441a      	add	r2, r3
 8008c24:	8c3b      	ldrh	r3, [r7, #32]
 8008c26:	f043 437f 	orr.w	r3, r3, #4278190080	; 0xff000000
 8008c2a:	f443 037f 	orr.w	r3, r3, #16711680	; 0xff0000
 8008c2e:	f443 4340 	orr.w	r3, r3, #49152	; 0xc000
 8008c32:	f043 0380 	orr.w	r3, r3, #128	; 0x80
 8008c36:	b29b      	uxth	r3, r3
 8008c38:	8013      	strh	r3, [r2, #0]
 8008c3a:	683b      	ldr	r3, [r7, #0]
 8008c3c:	781b      	ldrb	r3, [r3, #0]
 8008c3e:	2b00      	cmp	r3, #0
 8008c40:	d124      	bne.n	8008c8c <USB_ActivateEndpoint+0x3a0>
 8008c42:	687a      	ldr	r2, [r7, #4]
 8008c44:	683b      	ldr	r3, [r7, #0]
 8008c46:	781b      	ldrb	r3, [r3, #0]
 8008c48:	009b      	lsls	r3, r3, #2
 8008c4a:	4413      	add	r3, r2
 8008c4c:	881b      	ldrh	r3, [r3, #0]
 8008c4e:	b29b      	uxth	r3, r3
 8008c50:	f423 4380 	bic.w	r3, r3, #16384	; 0x4000
 8008c54:	f023 0370 	bic.w	r3, r3, #112	; 0x70
 8008c58:	83bb      	strh	r3, [r7, #28]
 8008c5a:	8bbb      	ldrh	r3, [r7, #28]
 8008c5c:	f483 5380 	eor.w	r3, r3, #4096	; 0x1000
 8008c60:	83bb      	strh	r3, [r7, #28]
 8008c62:	8bbb      	ldrh	r3, [r7, #28]
 8008c64:	f483 5300 	eor.w	r3, r3, #8192	; 0x2000
 8008c68:	83bb      	strh	r3, [r7, #28]
 8008c6a:	687a      	ldr	r2, [r7, #4]
 8008c6c:	683b      	ldr	r3, [r7, #0]
 8008c6e:	781b      	ldrb	r3, [r3, #0]
 8008c70:	009b      	lsls	r3, r3, #2
 8008c72:	441a      	add	r2, r3
 8008c74:	8bbb      	ldrh	r3, [r7, #28]
 8008c76:	f043 437f 	orr.w	r3, r3, #4278190080	; 0xff000000
 8008c7a:	f443 037f 	orr.w	r3, r3, #16711680	; 0xff0000
 8008c7e:	f443 4300 	orr.w	r3, r3, #32768	; 0x8000
 8008c82:	f043 0380 	orr.w	r3, r3, #128	; 0x80
 8008c86:	b29b      	uxth	r3, r3
 8008c88:	8013      	strh	r3, [r2, #0]
 8008c8a:	e1ea      	b.n	8009062 <USB_ActivateEndpoint+0x776>
 8008c8c:	687a      	ldr	r2, [r7, #4]
 8008c8e:	683b      	ldr	r3, [r7, #0]
 8008c90:	781b      	ldrb	r3, [r3, #0]
 8008c92:	009b      	lsls	r3, r3, #2
 8008c94:	4413      	add	r3, r2
 8008c96:	881b      	ldrh	r3, [r3, #0]
 8008c98:	b29b      	uxth	r3, r3
 8008c9a:	f423 4380 	bic.w	r3, r3, #16384	; 0x4000
 8008c9e:	f023 0370 	bic.w	r3, r3, #112	; 0x70
 8008ca2:	83fb      	strh	r3, [r7, #30]
 8008ca4:	8bfb      	ldrh	r3, [r7, #30]
 8008ca6:	f483 5300 	eor.w	r3, r3, #8192	; 0x2000
 8008caa:	83fb      	strh	r3, [r7, #30]
 8008cac:	687a      	ldr	r2, [r7, #4]
 8008cae:	683b      	ldr	r3, [r7, #0]
 8008cb0:	781b      	ldrb	r3, [r3, #0]
 8008cb2:	009b      	lsls	r3, r3, #2
 8008cb4:	441a      	add	r2, r3
 8008cb6:	8bfb      	ldrh	r3, [r7, #30]
 8008cb8:	f043 437f 	orr.w	r3, r3, #4278190080	; 0xff000000
 8008cbc:	f443 037f 	orr.w	r3, r3, #16711680	; 0xff0000
 8008cc0:	f443 4300 	orr.w	r3, r3, #32768	; 0x8000
 8008cc4:	f043 0380 	orr.w	r3, r3, #128	; 0x80
 8008cc8:	b29b      	uxth	r3, r3
 8008cca:	8013      	strh	r3, [r2, #0]
 8008ccc:	e1c9      	b.n	8009062 <USB_ActivateEndpoint+0x776>
 8008cce:	683b      	ldr	r3, [r7, #0]
 8008cd0:	78db      	ldrb	r3, [r3, #3]
 8008cd2:	2b02      	cmp	r3, #2
 8008cd4:	d11e      	bne.n	8008d14 <USB_ActivateEndpoint+0x428>
 8008cd6:	687a      	ldr	r2, [r7, #4]
 8008cd8:	683b      	ldr	r3, [r7, #0]
 8008cda:	781b      	ldrb	r3, [r3, #0]
 8008cdc:	009b      	lsls	r3, r3, #2
 8008cde:	4413      	add	r3, r2
 8008ce0:	881b      	ldrh	r3, [r3, #0]
 8008ce2:	b29b      	uxth	r3, r3
 8008ce4:	f423 43e0 	bic.w	r3, r3, #28672	; 0x7000
 8008ce8:	f023 0370 	bic.w	r3, r3, #112	; 0x70
 8008cec:	f8a7 3062 	strh.w	r3, [r7, #98]	; 0x62
 8008cf0:	687a      	ldr	r2, [r7, #4]
 8008cf2:	683b      	ldr	r3, [r7, #0]
 8008cf4:	781b      	ldrb	r3, [r3, #0]
 8008cf6:	009b      	lsls	r3, r3, #2
 8008cf8:	441a      	add	r2, r3
 8008cfa:	f8b7 3062 	ldrh.w	r3, [r7, #98]	; 0x62
 8008cfe:	f043 437f 	orr.w	r3, r3, #4278190080	; 0xff000000
 8008d02:	f443 037f 	orr.w	r3, r3, #16711680	; 0xff0000
 8008d06:	f443 4301 	orr.w	r3, r3, #33024	; 0x8100
 8008d0a:	f043 0380 	orr.w	r3, r3, #128	; 0x80
 8008d0e:	b29b      	uxth	r3, r3
 8008d10:	8013      	strh	r3, [r2, #0]
 8008d12:	e01d      	b.n	8008d50 <USB_ActivateEndpoint+0x464>
 8008d14:	687a      	ldr	r2, [r7, #4]
 8008d16:	683b      	ldr	r3, [r7, #0]
 8008d18:	781b      	ldrb	r3, [r3, #0]
 8008d1a:	009b      	lsls	r3, r3, #2
 8008d1c:	4413      	add	r3, r2
 8008d1e:	881b      	ldrh	r3, [r3, #0]
 8008d20:	b29b      	uxth	r3, r3
 8008d22:	f423 43e2 	bic.w	r3, r3, #28928	; 0x7100
 8008d26:	f023 0370 	bic.w	r3, r3, #112	; 0x70
 8008d2a:	f8a7 3064 	strh.w	r3, [r7, #100]	; 0x64
 8008d2e:	687a      	ldr	r2, [r7, #4]
 8008d30:	683b      	ldr	r3, [r7, #0]
 8008d32:	781b      	ldrb	r3, [r3, #0]
 8008d34:	009b      	lsls	r3, r3, #2
 8008d36:	441a      	add	r2, r3
 8008d38:	f8b7 3064 	ldrh.w	r3, [r7, #100]	; 0x64
 8008d3c:	f043 437f 	orr.w	r3, r3, #4278190080	; 0xff000000
 8008d40:	f443 037f 	orr.w	r3, r3, #16711680	; 0xff0000
 8008d44:	f443 4300 	orr.w	r3, r3, #32768	; 0x8000
 8008d48:	f043 0380 	orr.w	r3, r3, #128	; 0x80
 8008d4c:	b29b      	uxth	r3, r3
 8008d4e:	8013      	strh	r3, [r2, #0]
 8008d50:	687b      	ldr	r3, [r7, #4]
 8008d52:	65fb      	str	r3, [r7, #92]	; 0x5c
 8008d54:	687b      	ldr	r3, [r7, #4]
 8008d56:	f8b3 3050 	ldrh.w	r3, [r3, #80]	; 0x50
 8008d5a:	b29b      	uxth	r3, r3
 8008d5c:	461a      	mov	r2, r3
 8008d5e:	6dfb      	ldr	r3, [r7, #92]	; 0x5c
 8008d60:	4413      	add	r3, r2
 8008d62:	65fb      	str	r3, [r7, #92]	; 0x5c
 8008d64:	683b      	ldr	r3, [r7, #0]
 8008d66:	781b      	ldrb	r3, [r3, #0]
 8008d68:	00da      	lsls	r2, r3, #3
 8008d6a:	6dfb      	ldr	r3, [r7, #92]	; 0x5c
 8008d6c:	4413      	add	r3, r2
 8008d6e:	f503 6380 	add.w	r3, r3, #1024	; 0x400
 8008d72:	65bb      	str	r3, [r7, #88]	; 0x58
 8008d74:	683b      	ldr	r3, [r7, #0]
 8008d76:	891b      	ldrh	r3, [r3, #8]
 8008d78:	085b      	lsrs	r3, r3, #1
 8008d7a:	b29b      	uxth	r3, r3
 8008d7c:	005b      	lsls	r3, r3, #1
 8008d7e:	b29a      	uxth	r2, r3
 8008d80:	6dbb      	ldr	r3, [r7, #88]	; 0x58
 8008d82:	801a      	strh	r2, [r3, #0]
 8008d84:	687b      	ldr	r3, [r7, #4]
 8008d86:	657b      	str	r3, [r7, #84]	; 0x54
 8008d88:	687b      	ldr	r3, [r7, #4]
 8008d8a:	f8b3 3050 	ldrh.w	r3, [r3, #80]	; 0x50
 8008d8e:	b29b      	uxth	r3, r3
 8008d90:	461a      	mov	r2, r3
 8008d92:	6d7b      	ldr	r3, [r7, #84]	; 0x54
 8008d94:	4413      	add	r3, r2
 8008d96:	657b      	str	r3, [r7, #84]	; 0x54
 8008d98:	683b      	ldr	r3, [r7, #0]
 8008d9a:	781b      	ldrb	r3, [r3, #0]
 8008d9c:	00da      	lsls	r2, r3, #3
 8008d9e:	6d7b      	ldr	r3, [r7, #84]	; 0x54
 8008da0:	4413      	add	r3, r2
 8008da2:	f203 4304 	addw	r3, r3, #1028	; 0x404
 8008da6:	653b      	str	r3, [r7, #80]	; 0x50
 8008da8:	683b      	ldr	r3, [r7, #0]
 8008daa:	895b      	ldrh	r3, [r3, #10]
 8008dac:	085b      	lsrs	r3, r3, #1
 8008dae:	b29b      	uxth	r3, r3
 8008db0:	005b      	lsls	r3, r3, #1
 8008db2:	b29a      	uxth	r2, r3
 8008db4:	6d3b      	ldr	r3, [r7, #80]	; 0x50
 8008db6:	801a      	strh	r2, [r3, #0]
 8008db8:	683b      	ldr	r3, [r7, #0]
 8008dba:	785b      	ldrb	r3, [r3, #1]
 8008dbc:	2b00      	cmp	r3, #0
 8008dbe:	f040 8093 	bne.w	8008ee8 <USB_ActivateEndpoint+0x5fc>
 8008dc2:	687a      	ldr	r2, [r7, #4]
 8008dc4:	683b      	ldr	r3, [r7, #0]
 8008dc6:	781b      	ldrb	r3, [r3, #0]
 8008dc8:	009b      	lsls	r3, r3, #2
 8008dca:	4413      	add	r3, r2
 8008dcc:	881b      	ldrh	r3, [r3, #0]
 8008dce:	f8a7 3040 	strh.w	r3, [r7, #64]	; 0x40
 8008dd2:	f8b7 3040 	ldrh.w	r3, [r7, #64]	; 0x40
 8008dd6:	f403 4380 	and.w	r3, r3, #16384	; 0x4000
 8008dda:	2b00      	cmp	r3, #0
 8008ddc:	d01b      	beq.n	8008e16 <USB_ActivateEndpoint+0x52a>
 8008dde:	687a      	ldr	r2, [r7, #4]
 8008de0:	683b      	ldr	r3, [r7, #0]
 8008de2:	781b      	ldrb	r3, [r3, #0]
 8008de4:	009b      	lsls	r3, r3, #2
 8008de6:	4413      	add	r3, r2
 8008de8:	881b      	ldrh	r3, [r3, #0]
 8008dea:	b29b      	uxth	r3, r3
 8008dec:	f423 43e0 	bic.w	r3, r3, #28672	; 0x7000
 8008df0:	f023 0370 	bic.w	r3, r3, #112	; 0x70
 8008df4:	87fb      	strh	r3, [r7, #62]	; 0x3e
 8008df6:	687a      	ldr	r2, [r7, #4]
 8008df8:	683b      	ldr	r3, [r7, #0]
 8008dfa:	781b      	ldrb	r3, [r3, #0]
 8008dfc:	009b      	lsls	r3, r3, #2
 8008dfe:	441a      	add	r2, r3
 8008e00:	8ffb      	ldrh	r3, [r7, #62]	; 0x3e
 8008e02:	f043 437f 	orr.w	r3, r3, #4278190080	; 0xff000000
 8008e06:	f443 037f 	orr.w	r3, r3, #16711680	; 0xff0000
 8008e0a:	f443 4340 	orr.w	r3, r3, #49152	; 0xc000
 8008e0e:	f043 0380 	orr.w	r3, r3, #128	; 0x80
 8008e12:	b29b      	uxth	r3, r3
 8008e14:	8013      	strh	r3, [r2, #0]
 8008e16:	687a      	ldr	r2, [r7, #4]
 8008e18:	683b      	ldr	r3, [r7, #0]
 8008e1a:	781b      	ldrb	r3, [r3, #0]
 8008e1c:	009b      	lsls	r3, r3, #2
 8008e1e:	4413      	add	r3, r2
 8008e20:	881b      	ldrh	r3, [r3, #0]
 8008e22:	87bb      	strh	r3, [r7, #60]	; 0x3c
 8008e24:	8fbb      	ldrh	r3, [r7, #60]	; 0x3c
 8008e26:	f003 0340 	and.w	r3, r3, #64	; 0x40
 8008e2a:	2b00      	cmp	r3, #0
 8008e2c:	d01b      	beq.n	8008e66 <USB_ActivateEndpoint+0x57a>
 8008e2e:	687a      	ldr	r2, [r7, #4]
 8008e30:	683b      	ldr	r3, [r7, #0]
 8008e32:	781b      	ldrb	r3, [r3, #0]
 8008e34:	009b      	lsls	r3, r3, #2
 8008e36:	4413      	add	r3, r2
 8008e38:	881b      	ldrh	r3, [r3, #0]
 8008e3a:	b29b      	uxth	r3, r3
 8008e3c:	f423 43e0 	bic.w	r3, r3, #28672	; 0x7000
 8008e40:	f023 0370 	bic.w	r3, r3, #112	; 0x70
 8008e44:	877b      	strh	r3, [r7, #58]	; 0x3a
 8008e46:	687a      	ldr	r2, [r7, #4]
 8008e48:	683b      	ldr	r3, [r7, #0]
 8008e4a:	781b      	ldrb	r3, [r3, #0]
 8008e4c:	009b      	lsls	r3, r3, #2
 8008e4e:	441a      	add	r2, r3
 8008e50:	8f7b      	ldrh	r3, [r7, #58]	; 0x3a
 8008e52:	f043 437f 	orr.w	r3, r3, #4278190080	; 0xff000000
 8008e56:	f443 037f 	orr.w	r3, r3, #16711680	; 0xff0000
 8008e5a:	f443 4300 	orr.w	r3, r3, #32768	; 0x8000
 8008e5e:	f043 03c0 	orr.w	r3, r3, #192	; 0xc0
 8008e62:	b29b      	uxth	r3, r3
 8008e64:	8013      	strh	r3, [r2, #0]
 8008e66:	687a      	ldr	r2, [r7, #4]
 8008e68:	683b      	ldr	r3, [r7, #0]
 8008e6a:	781b      	ldrb	r3, [r3, #0]
 8008e6c:	009b      	lsls	r3, r3, #2
 8008e6e:	4413      	add	r3, r2
 8008e70:	881b      	ldrh	r3, [r3, #0]
 8008e72:	b29b      	uxth	r3, r3
 8008e74:	f423 4380 	bic.w	r3, r3, #16384	; 0x4000
 8008e78:	f023 0370 	bic.w	r3, r3, #112	; 0x70
 8008e7c:	873b      	strh	r3, [r7, #56]	; 0x38
 8008e7e:	8f3b      	ldrh	r3, [r7, #56]	; 0x38
 8008e80:	f483 5380 	eor.w	r3, r3, #4096	; 0x1000
 8008e84:	873b      	strh	r3, [r7, #56]	; 0x38
 8008e86:	8f3b      	ldrh	r3, [r7, #56]	; 0x38
 8008e88:	f483 5300 	eor.w	r3, r3, #8192	; 0x2000
 8008e8c:	873b      	strh	r3, [r7, #56]	; 0x38
 8008e8e:	687a      	ldr	r2, [r7, #4]
 8008e90:	683b      	ldr	r3, [r7, #0]
 8008e92:	781b      	ldrb	r3, [r3, #0]
 8008e94:	009b      	lsls	r3, r3, #2
 8008e96:	441a      	add	r2, r3
 8008e98:	8f3b      	ldrh	r3, [r7, #56]	; 0x38
 8008e9a:	f043 437f 	orr.w	r3, r3, #4278190080	; 0xff000000
 8008e9e:	f443 037f 	orr.w	r3, r3, #16711680	; 0xff0000
 8008ea2:	f443 4300 	orr.w	r3, r3, #32768	; 0x8000
 8008ea6:	f043 0380 	orr.w	r3, r3, #128	; 0x80
 8008eaa:	b29b      	uxth	r3, r3
 8008eac:	8013      	strh	r3, [r2, #0]
 8008eae:	687a      	ldr	r2, [r7, #4]
 8008eb0:	683b      	ldr	r3, [r7, #0]
 8008eb2:	781b      	ldrb	r3, [r3, #0]
 8008eb4:	009b      	lsls	r3, r3, #2
 8008eb6:	4413      	add	r3, r2
 8008eb8:	881b      	ldrh	r3, [r3, #0]
 8008eba:	b29b      	uxth	r3, r3
 8008ebc:	f423 43e0 	bic.w	r3, r3, #28672	; 0x7000
 8008ec0:	f023 0340 	bic.w	r3, r3, #64	; 0x40
 8008ec4:	86fb      	strh	r3, [r7, #54]	; 0x36
 8008ec6:	687a      	ldr	r2, [r7, #4]
 8008ec8:	683b      	ldr	r3, [r7, #0]
 8008eca:	781b      	ldrb	r3, [r3, #0]
 8008ecc:	009b      	lsls	r3, r3, #2
 8008ece:	441a      	add	r2, r3
 8008ed0:	8efb      	ldrh	r3, [r7, #54]	; 0x36
 8008ed2:	f043 437f 	orr.w	r3, r3, #4278190080	; 0xff000000
 8008ed6:	f443 037f 	orr.w	r3, r3, #16711680	; 0xff0000
 8008eda:	f443 4300 	orr.w	r3, r3, #32768	; 0x8000
 8008ede:	f043 0380 	orr.w	r3, r3, #128	; 0x80
 8008ee2:	b29b      	uxth	r3, r3
 8008ee4:	8013      	strh	r3, [r2, #0]
 8008ee6:	e0bc      	b.n	8009062 <USB_ActivateEndpoint+0x776>
 8008ee8:	687a      	ldr	r2, [r7, #4]
 8008eea:	683b      	ldr	r3, [r7, #0]
 8008eec:	781b      	ldrb	r3, [r3, #0]
 8008eee:	009b      	lsls	r3, r3, #2
 8008ef0:	4413      	add	r3, r2
 8008ef2:	881b      	ldrh	r3, [r3, #0]
 8008ef4:	f8a7 304e 	strh.w	r3, [r7, #78]	; 0x4e
 8008ef8:	f8b7 304e 	ldrh.w	r3, [r7, #78]	; 0x4e
 8008efc:	f403 4380 	and.w	r3, r3, #16384	; 0x4000
 8008f00:	2b00      	cmp	r3, #0
 8008f02:	d01d      	beq.n	8008f40 <USB_ActivateEndpoint+0x654>
 8008f04:	687a      	ldr	r2, [r7, #4]
 8008f06:	683b      	ldr	r3, [r7, #0]
 8008f08:	781b      	ldrb	r3, [r3, #0]
 8008f0a:	009b      	lsls	r3, r3, #2
 8008f0c:	4413      	add	r3, r2
 8008f0e:	881b      	ldrh	r3, [r3, #0]
 8008f10:	b29b      	uxth	r3, r3
 8008f12:	f423 43e0 	bic.w	r3, r3, #28672	; 0x7000
 8008f16:	f023 0370 	bic.w	r3, r3, #112	; 0x70
 8008f1a:	f8a7 304c 	strh.w	r3, [r7, #76]	; 0x4c
 8008f1e:	687a      	ldr	r2, [r7, #4]
 8008f20:	683b      	ldr	r3, [r7, #0]
 8008f22:	781b      	ldrb	r3, [r3, #0]
 8008f24:	009b      	lsls	r3, r3, #2
 8008f26:	441a      	add	r2, r3
 8008f28:	f8b7 304c 	ldrh.w	r3, [r7, #76]	; 0x4c
 8008f2c:	f043 437f 	orr.w	r3, r3, #4278190080	; 0xff000000
 8008f30:	f443 037f 	orr.w	r3, r3, #16711680	; 0xff0000
 8008f34:	f443 4340 	orr.w	r3, r3, #49152	; 0xc000
 8008f38:	f043 0380 	orr.w	r3, r3, #128	; 0x80
 8008f3c:	b29b      	uxth	r3, r3
 8008f3e:	8013      	strh	r3, [r2, #0]
 8008f40:	687a      	ldr	r2, [r7, #4]
 8008f42:	683b      	ldr	r3, [r7, #0]
 8008f44:	781b      	ldrb	r3, [r3, #0]
 8008f46:	009b      	lsls	r3, r3, #2
 8008f48:	4413      	add	r3, r2
 8008f4a:	881b      	ldrh	r3, [r3, #0]
 8008f4c:	f8a7 304a 	strh.w	r3, [r7, #74]	; 0x4a
 8008f50:	f8b7 304a 	ldrh.w	r3, [r7, #74]	; 0x4a
 8008f54:	f003 0340 	and.w	r3, r3, #64	; 0x40
 8008f58:	2b00      	cmp	r3, #0
 8008f5a:	d01d      	beq.n	8008f98 <USB_ActivateEndpoint+0x6ac>
 8008f5c:	687a      	ldr	r2, [r7, #4]
 8008f5e:	683b      	ldr	r3, [r7, #0]
 8008f60:	781b      	ldrb	r3, [r3, #0]
 8008f62:	009b      	lsls	r3, r3, #2
 8008f64:	4413      	add	r3, r2
 8008f66:	881b      	ldrh	r3, [r3, #0]
 8008f68:	b29b      	uxth	r3, r3
 8008f6a:	f423 43e0 	bic.w	r3, r3, #28672	; 0x7000
 8008f6e:	f023 0370 	bic.w	r3, r3, #112	; 0x70
 8008f72:	f8a7 3048 	strh.w	r3, [r7, #72]	; 0x48
 8008f76:	687a      	ldr	r2, [r7, #4]
 8008f78:	683b      	ldr	r3, [r7, #0]
 8008f7a:	781b      	ldrb	r3, [r3, #0]
 8008f7c:	009b      	lsls	r3, r3, #2
 8008f7e:	441a      	add	r2, r3
 8008f80:	f8b7 3048 	ldrh.w	r3, [r7, #72]	; 0x48
 8008f84:	f043 437f 	orr.w	r3, r3, #4278190080	; 0xff000000
 8008f88:	f443 037f 	orr.w	r3, r3, #16711680	; 0xff0000
 8008f8c:	f443 4300 	orr.w	r3, r3, #32768	; 0x8000
 8008f90:	f043 03c0 	orr.w	r3, r3, #192	; 0xc0
 8008f94:	b29b      	uxth	r3, r3
 8008f96:	8013      	strh	r3, [r2, #0]
 8008f98:	683b      	ldr	r3, [r7, #0]
 8008f9a:	78db      	ldrb	r3, [r3, #3]
 8008f9c:	2b01      	cmp	r3, #1
 8008f9e:	d024      	beq.n	8008fea <USB_ActivateEndpoint+0x6fe>
 8008fa0:	687a      	ldr	r2, [r7, #4]
 8008fa2:	683b      	ldr	r3, [r7, #0]
 8008fa4:	781b      	ldrb	r3, [r3, #0]
 8008fa6:	009b      	lsls	r3, r3, #2
 8008fa8:	4413      	add	r3, r2
 8008faa:	881b      	ldrh	r3, [r3, #0]
 8008fac:	b29b      	uxth	r3, r3
 8008fae:	f423 43e0 	bic.w	r3, r3, #28672	; 0x7000
 8008fb2:	f023 0340 	bic.w	r3, r3, #64	; 0x40
 8008fb6:	f8a7 3044 	strh.w	r3, [r7, #68]	; 0x44
 8008fba:	f8b7 3044 	ldrh.w	r3, [r7, #68]	; 0x44
 8008fbe:	f083 0320 	eor.w	r3, r3, #32
 8008fc2:	f8a7 3044 	strh.w	r3, [r7, #68]	; 0x44
 8008fc6:	687a      	ldr	r2, [r7, #4]
 8008fc8:	683b      	ldr	r3, [r7, #0]
 8008fca:	781b      	ldrb	r3, [r3, #0]
 8008fcc:	009b      	lsls	r3, r3, #2
 8008fce:	441a      	add	r2, r3
 8008fd0:	f8b7 3044 	ldrh.w	r3, [r7, #68]	; 0x44
 8008fd4:	f043 437f 	orr.w	r3, r3, #4278190080	; 0xff000000
 8008fd8:	f443 037f 	orr.w	r3, r3, #16711680	; 0xff0000
 8008fdc:	f443 4300 	orr.w	r3, r3, #32768	; 0x8000
 8008fe0:	f043 0380 	orr.w	r3, r3, #128	; 0x80
 8008fe4:	b29b      	uxth	r3, r3
 8008fe6:	8013      	strh	r3, [r2, #0]
 8008fe8:	e01d      	b.n	8009026 <USB_ActivateEndpoint+0x73a>
 8008fea:	687a      	ldr	r2, [r7, #4]
 8008fec:	683b      	ldr	r3, [r7, #0]
 8008fee:	781b      	ldrb	r3, [r3, #0]
 8008ff0:	009b      	lsls	r3, r3, #2
 8008ff2:	4413      	add	r3, r2
 8008ff4:	881b      	ldrh	r3, [r3, #0]
 8008ff6:	b29b      	uxth	r3, r3
 8008ff8:	f423 43e0 	bic.w	r3, r3, #28672	; 0x7000
 8008ffc:	f023 0340 	bic.w	r3, r3, #64	; 0x40
 8009000:	f8a7 3046 	strh.w	r3, [r7, #70]	; 0x46
 8009004:	687a      	ldr	r2, [r7, #4]
 8009006:	683b      	ldr	r3, [r7, #0]
 8009008:	781b      	ldrb	r3, [r3, #0]
 800900a:	009b      	lsls	r3, r3, #2
 800900c:	441a      	add	r2, r3
 800900e:	f8b7 3046 	ldrh.w	r3, [r7, #70]	; 0x46
 8009012:	f043 437f 	orr.w	r3, r3, #4278190080	; 0xff000000
 8009016:	f443 037f 	orr.w	r3, r3, #16711680	; 0xff0000
 800901a:	f443 4300 	orr.w	r3, r3, #32768	; 0x8000
 800901e:	f043 0380 	orr.w	r3, r3, #128	; 0x80
 8009022:	b29b      	uxth	r3, r3
 8009024:	8013      	strh	r3, [r2, #0]
 8009026:	687a      	ldr	r2, [r7, #4]
 8009028:	683b      	ldr	r3, [r7, #0]
 800902a:	781b      	ldrb	r3, [r3, #0]
 800902c:	009b      	lsls	r3, r3, #2
 800902e:	4413      	add	r3, r2
 8009030:	881b      	ldrh	r3, [r3, #0]
 8009032:	b29b      	uxth	r3, r3
 8009034:	f423 4380 	bic.w	r3, r3, #16384	; 0x4000
 8009038:	f023 0370 	bic.w	r3, r3, #112	; 0x70
 800903c:	f8a7 3042 	strh.w	r3, [r7, #66]	; 0x42
 8009040:	687a      	ldr	r2, [r7, #4]
 8009042:	683b      	ldr	r3, [r7, #0]
 8009044:	781b      	ldrb	r3, [r3, #0]
 8009046:	009b      	lsls	r3, r3, #2
 8009048:	441a      	add	r2, r3
 800904a:	f8b7 3042 	ldrh.w	r3, [r7, #66]	; 0x42
 800904e:	f043 437f 	orr.w	r3, r3, #4278190080	; 0xff000000
 8009052:	f443 037f 	orr.w	r3, r3, #16711680	; 0xff0000
 8009056:	f443 4300 	orr.w	r3, r3, #32768	; 0x8000
 800905a:	f043 0380 	orr.w	r3, r3, #128	; 0x80
 800905e:	b29b      	uxth	r3, r3
 8009060:	8013      	strh	r3, [r2, #0]
 8009062:	f897 306f 	ldrb.w	r3, [r7, #111]	; 0x6f
 8009066:	4618      	mov	r0, r3
 8009068:	3774      	adds	r7, #116	; 0x74
 800906a:	46bd      	mov	sp, r7
 800906c:	f85d 7b04 	ldr.w	r7, [sp], #4
 8009070:	4770      	bx	lr
 8009072:	bf00      	nop

08009074 <USB_DeactivateEndpoint>:
 8009074:	b480      	push	{r7}
 8009076:	b08d      	sub	sp, #52	; 0x34
 8009078:	af00      	add	r7, sp, #0
 800907a:	6078      	str	r0, [r7, #4]
 800907c:	6039      	str	r1, [r7, #0]
 800907e:	683b      	ldr	r3, [r7, #0]
 8009080:	7b1b      	ldrb	r3, [r3, #12]
 8009082:	2b00      	cmp	r3, #0
 8009084:	f040 808e 	bne.w	80091a4 <USB_DeactivateEndpoint+0x130>
 8009088:	683b      	ldr	r3, [r7, #0]
 800908a:	785b      	ldrb	r3, [r3, #1]
 800908c:	2b00      	cmp	r3, #0
 800908e:	d044      	beq.n	800911a <USB_DeactivateEndpoint+0xa6>
 8009090:	687a      	ldr	r2, [r7, #4]
 8009092:	683b      	ldr	r3, [r7, #0]
 8009094:	781b      	ldrb	r3, [r3, #0]
 8009096:	009b      	lsls	r3, r3, #2
 8009098:	4413      	add	r3, r2
 800909a:	881b      	ldrh	r3, [r3, #0]
 800909c:	81bb      	strh	r3, [r7, #12]
 800909e:	89bb      	ldrh	r3, [r7, #12]
 80090a0:	f003 0340 	and.w	r3, r3, #64	; 0x40
 80090a4:	2b00      	cmp	r3, #0
 80090a6:	d01b      	beq.n	80090e0 <USB_DeactivateEndpoint+0x6c>
 80090a8:	687a      	ldr	r2, [r7, #4]
 80090aa:	683b      	ldr	r3, [r7, #0]
 80090ac:	781b      	ldrb	r3, [r3, #0]
 80090ae:	009b      	lsls	r3, r3, #2
 80090b0:	4413      	add	r3, r2
 80090b2:	881b      	ldrh	r3, [r3, #0]
 80090b4:	b29b      	uxth	r3, r3
 80090b6:	f423 43e0 	bic.w	r3, r3, #28672	; 0x7000
 80090ba:	f023 0370 	bic.w	r3, r3, #112	; 0x70
 80090be:	817b      	strh	r3, [r7, #10]
 80090c0:	687a      	ldr	r2, [r7, #4]
 80090c2:	683b      	ldr	r3, [r7, #0]
 80090c4:	781b      	ldrb	r3, [r3, #0]
 80090c6:	009b      	lsls	r3, r3, #2
 80090c8:	441a      	add	r2, r3
 80090ca:	897b      	ldrh	r3, [r7, #10]
 80090cc:	f043 437f 	orr.w	r3, r3, #4278190080	; 0xff000000
 80090d0:	f443 037f 	orr.w	r3, r3, #16711680	; 0xff0000
 80090d4:	f443 4300 	orr.w	r3, r3, #32768	; 0x8000
 80090d8:	f043 03c0 	orr.w	r3, r3, #192	; 0xc0
 80090dc:	b29b      	uxth	r3, r3
 80090de:	8013      	strh	r3, [r2, #0]
 80090e0:	687a      	ldr	r2, [r7, #4]
 80090e2:	683b      	ldr	r3, [r7, #0]
 80090e4:	781b      	ldrb	r3, [r3, #0]
 80090e6:	009b      	lsls	r3, r3, #2
 80090e8:	4413      	add	r3, r2
 80090ea:	881b      	ldrh	r3, [r3, #0]
 80090ec:	b29b      	uxth	r3, r3
 80090ee:	f423 43e0 	bic.w	r3, r3, #28672	; 0x7000
 80090f2:	f023 0340 	bic.w	r3, r3, #64	; 0x40
 80090f6:	813b      	strh	r3, [r7, #8]
 80090f8:	687a      	ldr	r2, [r7, #4]
 80090fa:	683b      	ldr	r3, [r7, #0]
 80090fc:	781b      	ldrb	r3, [r3, #0]
 80090fe:	009b      	lsls	r3, r3, #2
 8009100:	441a      	add	r2, r3
 8009102:	893b      	ldrh	r3, [r7, #8]
 8009104:	f043 437f 	orr.w	r3, r3, #4278190080	; 0xff000000
 8009108:	f443 037f 	orr.w	r3, r3, #16711680	; 0xff0000
 800910c:	f443 4300 	orr.w	r3, r3, #32768	; 0x8000
 8009110:	f043 0380 	orr.w	r3, r3, #128	; 0x80
 8009114:	b29b      	uxth	r3, r3
 8009116:	8013      	strh	r3, [r2, #0]
 8009118:	e192      	b.n	8009440 <USB_DeactivateEndpoint+0x3cc>
 800911a:	687a      	ldr	r2, [r7, #4]
 800911c:	683b      	ldr	r3, [r7, #0]
 800911e:	781b      	ldrb	r3, [r3, #0]
 8009120:	009b      	lsls	r3, r3, #2
 8009122:	4413      	add	r3, r2
 8009124:	881b      	ldrh	r3, [r3, #0]
 8009126:	827b      	strh	r3, [r7, #18]
 8009128:	8a7b      	ldrh	r3, [r7, #18]
 800912a:	f403 4380 	and.w	r3, r3, #16384	; 0x4000
 800912e:	2b00      	cmp	r3, #0
 8009130:	d01b      	beq.n	800916a <USB_DeactivateEndpoint+0xf6>
 8009132:	687a      	ldr	r2, [r7, #4]
 8009134:	683b      	ldr	r3, [r7, #0]
 8009136:	781b      	ldrb	r3, [r3, #0]
 8009138:	009b      	lsls	r3, r3, #2
 800913a:	4413      	add	r3, r2
 800913c:	881b      	ldrh	r3, [r3, #0]
 800913e:	b29b      	uxth	r3, r3
 8009140:	f423 43e0 	bic.w	r3, r3, #28672	; 0x7000
 8009144:	f023 0370 	bic.w	r3, r3, #112	; 0x70
 8009148:	823b      	strh	r3, [r7, #16]
 800914a:	687a      	ldr	r2, [r7, #4]
 800914c:	683b      	ldr	r3, [r7, #0]
 800914e:	781b      	ldrb	r3, [r3, #0]
 8009150:	009b      	lsls	r3, r3, #2
 8009152:	441a      	add	r2, r3
 8009154:	8a3b      	ldrh	r3, [r7, #16]
 8009156:	f043 437f 	orr.w	r3, r3, #4278190080	; 0xff000000
 800915a:	f443 037f 	orr.w	r3, r3, #16711680	; 0xff0000
 800915e:	f443 4340 	orr.w	r3, r3, #49152	; 0xc000
 8009162:	f043 0380 	orr.w	r3, r3, #128	; 0x80
 8009166:	b29b      	uxth	r3, r3
 8009168:	8013      	strh	r3, [r2, #0]
 800916a:	687a      	ldr	r2, [r7, #4]
 800916c:	683b      	ldr	r3, [r7, #0]
 800916e:	781b      	ldrb	r3, [r3, #0]
 8009170:	009b      	lsls	r3, r3, #2
 8009172:	4413      	add	r3, r2
 8009174:	881b      	ldrh	r3, [r3, #0]
 8009176:	b29b      	uxth	r3, r3
 8009178:	f423 4380 	bic.w	r3, r3, #16384	; 0x4000
 800917c:	f023 0370 	bic.w	r3, r3, #112	; 0x70
 8009180:	81fb      	strh	r3, [r7, #14]
 8009182:	687a      	ldr	r2, [r7, #4]
 8009184:	683b      	ldr	r3, [r7, #0]
 8009186:	781b      	ldrb	r3, [r3, #0]
 8009188:	009b      	lsls	r3, r3, #2
 800918a:	441a      	add	r2, r3
 800918c:	89fb      	ldrh	r3, [r7, #14]
 800918e:	f043 437f 	orr.w	r3, r3, #4278190080	; 0xff000000
 8009192:	f443 037f 	orr.w	r3, r3, #16711680	; 0xff0000
 8009196:	f443 4300 	orr.w	r3, r3, #32768	; 0x8000
 800919a:	f043 0380 	orr.w	r3, r3, #128	; 0x80
 800919e:	b29b      	uxth	r3, r3
 80091a0:	8013      	strh	r3, [r2, #0]
 80091a2:	e14d      	b.n	8009440 <USB_DeactivateEndpoint+0x3cc>
 80091a4:	683b      	ldr	r3, [r7, #0]
 80091a6:	785b      	ldrb	r3, [r3, #1]
 80091a8:	2b00      	cmp	r3, #0
 80091aa:	f040 80a5 	bne.w	80092f8 <USB_DeactivateEndpoint+0x284>
 80091ae:	687a      	ldr	r2, [r7, #4]
 80091b0:	683b      	ldr	r3, [r7, #0]
 80091b2:	781b      	ldrb	r3, [r3, #0]
 80091b4:	009b      	lsls	r3, r3, #2
 80091b6:	4413      	add	r3, r2
 80091b8:	881b      	ldrh	r3, [r3, #0]
 80091ba:	843b      	strh	r3, [r7, #32]
 80091bc:	8c3b      	ldrh	r3, [r7, #32]
 80091be:	f403 4380 	and.w	r3, r3, #16384	; 0x4000
 80091c2:	2b00      	cmp	r3, #0
 80091c4:	d01b      	beq.n	80091fe <USB_DeactivateEndpoint+0x18a>
 80091c6:	687a      	ldr	r2, [r7, #4]
 80091c8:	683b      	ldr	r3, [r7, #0]
 80091ca:	781b      	ldrb	r3, [r3, #0]
 80091cc:	009b      	lsls	r3, r3, #2
 80091ce:	4413      	add	r3, r2
 80091d0:	881b      	ldrh	r3, [r3, #0]
 80091d2:	b29b      	uxth	r3, r3
 80091d4:	f423 43e0 	bic.w	r3, r3, #28672	; 0x7000
 80091d8:	f023 0370 	bic.w	r3, r3, #112	; 0x70
 80091dc:	83fb      	strh	r3, [r7, #30]
 80091de:	687a      	ldr	r2, [r7, #4]
 80091e0:	683b      	ldr	r3, [r7, #0]
 80091e2:	781b      	ldrb	r3, [r3, #0]
 80091e4:	009b      	lsls	r3, r3, #2
 80091e6:	441a      	add	r2, r3
 80091e8:	8bfb      	ldrh	r3, [r7, #30]
 80091ea:	f043 437f 	orr.w	r3, r3, #4278190080	; 0xff000000
 80091ee:	f443 037f 	orr.w	r3, r3, #16711680	; 0xff0000
 80091f2:	f443 4340 	orr.w	r3, r3, #49152	; 0xc000
 80091f6:	f043 0380 	orr.w	r3, r3, #128	; 0x80
 80091fa:	b29b      	uxth	r3, r3
 80091fc:	8013      	strh	r3, [r2, #0]
 80091fe:	687a      	ldr	r2, [r7, #4]
 8009200:	683b      	ldr	r3, [r7, #0]
 8009202:	781b      	ldrb	r3, [r3, #0]
 8009204:	009b      	lsls	r3, r3, #2
 8009206:	4413      	add	r3, r2
 8009208:	881b      	ldrh	r3, [r3, #0]
 800920a:	83bb      	strh	r3, [r7, #28]
 800920c:	8bbb      	ldrh	r3, [r7, #28]
 800920e:	f003 0340 	and.w	r3, r3, #64	; 0x40
 8009212:	2b00      	cmp	r3, #0
 8009214:	d01b      	beq.n	800924e <USB_DeactivateEndpoint+0x1da>
 8009216:	687a      	ldr	r2, [r7, #4]
 8009218:	683b      	ldr	r3, [r7, #0]
 800921a:	781b      	ldrb	r3, [r3, #0]
 800921c:	009b      	lsls	r3, r3, #2
 800921e:	4413      	add	r3, r2
 8009220:	881b      	ldrh	r3, [r3, #0]
 8009222:	b29b      	uxth	r3, r3
 8009224:	f423 43e0 	bic.w	r3, r3, #28672	; 0x7000
 8009228:	f023 0370 	bic.w	r3, r3, #112	; 0x70
 800922c:	837b      	strh	r3, [r7, #26]
 800922e:	687a      	ldr	r2, [r7, #4]
 8009230:	683b      	ldr	r3, [r7, #0]
 8009232:	781b      	ldrb	r3, [r3, #0]
 8009234:	009b      	lsls	r3, r3, #2
 8009236:	441a      	add	r2, r3
 8009238:	8b7b      	ldrh	r3, [r7, #26]
 800923a:	f043 437f 	orr.w	r3, r3, #4278190080	; 0xff000000
 800923e:	f443 037f 	orr.w	r3, r3, #16711680	; 0xff0000
 8009242:	f443 4300 	orr.w	r3, r3, #32768	; 0x8000
 8009246:	f043 03c0 	orr.w	r3, r3, #192	; 0xc0
 800924a:	b29b      	uxth	r3, r3
 800924c:	8013      	strh	r3, [r2, #0]
 800924e:	687a      	ldr	r2, [r7, #4]
 8009250:	683b      	ldr	r3, [r7, #0]
 8009252:	781b      	ldrb	r3, [r3, #0]
 8009254:	009b      	lsls	r3, r3, #2
 8009256:	4413      	add	r3, r2
 8009258:	881b      	ldrh	r3, [r3, #0]
 800925a:	b29b      	uxth	r3, r3
 800925c:	f423 43e0 	bic.w	r3, r3, #28672	; 0x7000
 8009260:	f023 0370 	bic.w	r3, r3, #112	; 0x70
 8009264:	833b      	strh	r3, [r7, #24]
 8009266:	687a      	ldr	r2, [r7, #4]
 8009268:	683b      	ldr	r3, [r7, #0]
 800926a:	781b      	ldrb	r3, [r3, #0]
 800926c:	009b      	lsls	r3, r3, #2
 800926e:	441a      	add	r2, r3
 8009270:	8b3b      	ldrh	r3, [r7, #24]
 8009272:	f043 437f 	orr.w	r3, r3, #4278190080	; 0xff000000
 8009276:	f443 037f 	orr.w	r3, r3, #16711680	; 0xff0000
 800927a:	f443 4300 	orr.w	r3, r3, #32768	; 0x8000
 800927e:	f043 03c0 	orr.w	r3, r3, #192	; 0xc0
 8009282:	b29b      	uxth	r3, r3
 8009284:	8013      	strh	r3, [r2, #0]
 8009286:	687a      	ldr	r2, [r7, #4]
 8009288:	683b      	ldr	r3, [r7, #0]
 800928a:	781b      	ldrb	r3, [r3, #0]
 800928c:	009b      	lsls	r3, r3, #2
 800928e:	4413      	add	r3, r2
 8009290:	881b      	ldrh	r3, [r3, #0]
 8009292:	b29b      	uxth	r3, r3
 8009294:	f423 4380 	bic.w	r3, r3, #16384	; 0x4000
 8009298:	f023 0370 	bic.w	r3, r3, #112	; 0x70
 800929c:	82fb      	strh	r3, [r7, #22]
 800929e:	687a      	ldr	r2, [r7, #4]
 80092a0:	683b      	ldr	r3, [r7, #0]
 80092a2:	781b      	ldrb	r3, [r3, #0]
 80092a4:	009b      	lsls	r3, r3, #2
 80092a6:	441a      	add	r2, r3
 80092a8:	8afb      	ldrh	r3, [r7, #22]
 80092aa:	f043 437f 	orr.w	r3, r3, #4278190080	; 0xff000000
 80092ae:	f443 037f 	orr.w	r3, r3, #16711680	; 0xff0000
 80092b2:	f443 4300 	orr.w	r3, r3, #32768	; 0x8000
 80092b6:	f043 0380 	orr.w	r3, r3, #128	; 0x80
 80092ba:	b29b      	uxth	r3, r3
 80092bc:	8013      	strh	r3, [r2, #0]
 80092be:	687a      	ldr	r2, [r7, #4]
 80092c0:	683b      	ldr	r3, [r7, #0]
 80092c2:	781b      	ldrb	r3, [r3, #0]
 80092c4:	009b      	lsls	r3, r3, #2
 80092c6:	4413      	add	r3, r2
 80092c8:	881b      	ldrh	r3, [r3, #0]
 80092ca:	b29b      	uxth	r3, r3
 80092cc:	f423 43e0 	bic.w	r3, r3, #28672	; 0x7000
 80092d0:	f023 0340 	bic.w	r3, r3, #64	; 0x40
 80092d4:	82bb      	strh	r3, [r7, #20]
 80092d6:	687a      	ldr	r2, [r7, #4]
 80092d8:	683b      	ldr	r3, [r7, #0]
 80092da:	781b      	ldrb	r3, [r3, #0]
 80092dc:	009b      	lsls	r3, r3, #2
 80092de:	441a      	add	r2, r3
 80092e0:	8abb      	ldrh	r3, [r7, #20]
 80092e2:	f043 437f 	orr.w	r3, r3, #4278190080	; 0xff000000
 80092e6:	f443 037f 	orr.w	r3, r3, #16711680	; 0xff0000
 80092ea:	f443 4300 	orr.w	r3, r3, #32768	; 0x8000
 80092ee:	f043 0380 	orr.w	r3, r3, #128	; 0x80
 80092f2:	b29b      	uxth	r3, r3
 80092f4:	8013      	strh	r3, [r2, #0]
 80092f6:	e0a3      	b.n	8009440 <USB_DeactivateEndpoint+0x3cc>
 80092f8:	687a      	ldr	r2, [r7, #4]
 80092fa:	683b      	ldr	r3, [r7, #0]
 80092fc:	781b      	ldrb	r3, [r3, #0]
 80092fe:	009b      	lsls	r3, r3, #2
 8009300:	4413      	add	r3, r2
 8009302:	881b      	ldrh	r3, [r3, #0]
 8009304:	85fb      	strh	r3, [r7, #46]	; 0x2e
 8009306:	8dfb      	ldrh	r3, [r7, #46]	; 0x2e
 8009308:	f403 4380 	and.w	r3, r3, #16384	; 0x4000
 800930c:	2b00      	cmp	r3, #0
 800930e:	d01b      	beq.n	8009348 <USB_DeactivateEndpoint+0x2d4>
 8009310:	687a      	ldr	r2, [r7, #4]
 8009312:	683b      	ldr	r3, [r7, #0]
 8009314:	781b      	ldrb	r3, [r3, #0]
 8009316:	009b      	lsls	r3, r3, #2
 8009318:	4413      	add	r3, r2
 800931a:	881b      	ldrh	r3, [r3, #0]
 800931c:	b29b      	uxth	r3, r3
 800931e:	f423 43e0 	bic.w	r3, r3, #28672	; 0x7000
 8009322:	f023 0370 	bic.w	r3, r3, #112	; 0x70
 8009326:	85bb      	strh	r3, [r7, #44]	; 0x2c
 8009328:	687a      	ldr	r2, [r7, #4]
 800932a:	683b      	ldr	r3, [r7, #0]
 800932c:	781b      	ldrb	r3, [r3, #0]
 800932e:	009b      	lsls	r3, r3, #2
 8009330:	441a      	add	r2, r3
 8009332:	8dbb      	ldrh	r3, [r7, #44]	; 0x2c
 8009334:	f043 437f 	orr.w	r3, r3, #4278190080	; 0xff000000
 8009338:	f443 037f 	orr.w	r3, r3, #16711680	; 0xff0000
 800933c:	f443 4340 	orr.w	r3, r3, #49152	; 0xc000
 8009340:	f043 0380 	orr.w	r3, r3, #128	; 0x80
 8009344:	b29b      	uxth	r3, r3
 8009346:	8013      	strh	r3, [r2, #0]
 8009348:	687a      	ldr	r2, [r7, #4]
 800934a:	683b      	ldr	r3, [r7, #0]
 800934c:	781b      	ldrb	r3, [r3, #0]
 800934e:	009b      	lsls	r3, r3, #2
 8009350:	4413      	add	r3, r2
 8009352:	881b      	ldrh	r3, [r3, #0]
 8009354:	857b      	strh	r3, [r7, #42]	; 0x2a
 8009356:	8d7b      	ldrh	r3, [r7, #42]	; 0x2a
 8009358:	f003 0340 	and.w	r3, r3, #64	; 0x40
 800935c:	2b00      	cmp	r3, #0
 800935e:	d01b      	beq.n	8009398 <USB_DeactivateEndpoint+0x324>
 8009360:	687a      	ldr	r2, [r7, #4]
 8009362:	683b      	ldr	r3, [r7, #0]
 8009364:	781b      	ldrb	r3, [r3, #0]
 8009366:	009b      	lsls	r3, r3, #2
 8009368:	4413      	add	r3, r2
 800936a:	881b      	ldrh	r3, [r3, #0]
 800936c:	b29b      	uxth	r3, r3
 800936e:	f423 43e0 	bic.w	r3, r3, #28672	; 0x7000
 8009372:	f023 0370 	bic.w	r3, r3, #112	; 0x70
 8009376:	853b      	strh	r3, [r7, #40]	; 0x28
 8009378:	687a      	ldr	r2, [r7, #4]
 800937a:	683b      	ldr	r3, [r7, #0]
 800937c:	781b      	ldrb	r3, [r3, #0]
 800937e:	009b      	lsls	r3, r3, #2
 8009380:	441a      	add	r2, r3
 8009382:	8d3b      	ldrh	r3, [r7, #40]	; 0x28
 8009384:	f043 437f 	orr.w	r3, r3, #4278190080	; 0xff000000
 8009388:	f443 037f 	orr.w	r3, r3, #16711680	; 0xff0000
 800938c:	f443 4300 	orr.w	r3, r3, #32768	; 0x8000
 8009390:	f043 03c0 	orr.w	r3, r3, #192	; 0xc0
 8009394:	b29b      	uxth	r3, r3
 8009396:	8013      	strh	r3, [r2, #0]
 8009398:	687a      	ldr	r2, [r7, #4]
 800939a:	683b      	ldr	r3, [r7, #0]
 800939c:	781b      	ldrb	r3, [r3, #0]
 800939e:	009b      	lsls	r3, r3, #2
 80093a0:	4413      	add	r3, r2
 80093a2:	881b      	ldrh	r3, [r3, #0]
 80093a4:	b29b      	uxth	r3, r3
 80093a6:	f423 43e0 	bic.w	r3, r3, #28672	; 0x7000
 80093aa:	f023 0370 	bic.w	r3, r3, #112	; 0x70
 80093ae:	84fb      	strh	r3, [r7, #38]	; 0x26
 80093b0:	687a      	ldr	r2, [r7, #4]
 80093b2:	683b      	ldr	r3, [r7, #0]
 80093b4:	781b      	ldrb	r3, [r3, #0]
 80093b6:	009b      	lsls	r3, r3, #2
 80093b8:	441a      	add	r2, r3
 80093ba:	8cfb      	ldrh	r3, [r7, #38]	; 0x26
 80093bc:	f043 437f 	orr.w	r3, r3, #4278190080	; 0xff000000
 80093c0:	f443 037f 	orr.w	r3, r3, #16711680	; 0xff0000
 80093c4:	f443 4340 	orr.w	r3, r3, #49152	; 0xc000
 80093c8:	f043 0380 	orr.w	r3, r3, #128	; 0x80
 80093cc:	b29b      	uxth	r3, r3
 80093ce:	8013      	strh	r3, [r2, #0]
 80093d0:	687a      	ldr	r2, [r7, #4]
 80093d2:	683b      	ldr	r3, [r7, #0]
 80093d4:	781b      	ldrb	r3, [r3, #0]
 80093d6:	009b      	lsls	r3, r3, #2
 80093d8:	4413      	add	r3, r2
 80093da:	881b      	ldrh	r3, [r3, #0]
 80093dc:	b29b      	uxth	r3, r3
 80093de:	f423 43e0 	bic.w	r3, r3, #28672	; 0x7000
 80093e2:	f023 0340 	bic.w	r3, r3, #64	; 0x40
 80093e6:	84bb      	strh	r3, [r7, #36]	; 0x24
 80093e8:	687a      	ldr	r2, [r7, #4]
 80093ea:	683b      	ldr	r3, [r7, #0]
 80093ec:	781b      	ldrb	r3, [r3, #0]
 80093ee:	009b      	lsls	r3, r3, #2
 80093f0:	441a      	add	r2, r3
 80093f2:	8cbb      	ldrh	r3, [r7, #36]	; 0x24
 80093f4:	f043 437f 	orr.w	r3, r3, #4278190080	; 0xff000000
 80093f8:	f443 037f 	orr.w	r3, r3, #16711680	; 0xff0000
 80093fc:	f443 4300 	orr.w	r3, r3, #32768	; 0x8000
 8009400:	f043 0380 	orr.w	r3, r3, #128	; 0x80
 8009404:	b29b      	uxth	r3, r3
 8009406:	8013      	strh	r3, [r2, #0]
 8009408:	687a      	ldr	r2, [r7, #4]
 800940a:	683b      	ldr	r3, [r7, #0]
 800940c:	781b      	ldrb	r3, [r3, #0]
 800940e:	009b      	lsls	r3, r3, #2
 8009410:	4413      	add	r3, r2
 8009412:	881b      	ldrh	r3, [r3, #0]
 8009414:	b29b      	uxth	r3, r3
 8009416:	f423 4380 	bic.w	r3, r3, #16384	; 0x4000
 800941a:	f023 0370 	bic.w	r3, r3, #112	; 0x70
 800941e:	847b      	strh	r3, [r7, #34]	; 0x22
 8009420:	687a      	ldr	r2, [r7, #4]
 8009422:	683b      	ldr	r3, [r7, #0]
 8009424:	781b      	ldrb	r3, [r3, #0]
 8009426:	009b      	lsls	r3, r3, #2
 8009428:	441a      	add	r2, r3
 800942a:	8c7b      	ldrh	r3, [r7, #34]	; 0x22
 800942c:	f043 437f 	orr.w	r3, r3, #4278190080	; 0xff000000
 8009430:	f443 037f 	orr.w	r3, r3, #16711680	; 0xff0000
 8009434:	f443 4300 	orr.w	r3, r3, #32768	; 0x8000
 8009438:	f043 0380 	orr.w	r3, r3, #128	; 0x80
 800943c:	b29b      	uxth	r3, r3
 800943e:	8013      	strh	r3, [r2, #0]
 8009440:	2300      	movs	r3, #0
 8009442:	4618      	mov	r0, r3
 8009444:	3734      	adds	r7, #52	; 0x34
 8009446:	46bd      	mov	sp, r7
 8009448:	f85d 7b04 	ldr.w	r7, [sp], #4
 800944c:	4770      	bx	lr

0800944e <USB_EPStartXfer>:
 800944e:	b580      	push	{r7, lr}
 8009450:	b0c2      	sub	sp, #264	; 0x108
 8009452:	af00      	add	r7, sp, #0
 8009454:	f507 7384 	add.w	r3, r7, #264	; 0x108
 8009458:	f5a3 7382 	sub.w	r3, r3, #260	; 0x104
 800945c:	6018      	str	r0, [r3, #0]
 800945e:	f507 7384 	add.w	r3, r7, #264	; 0x108
 8009462:	f5a3 7384 	sub.w	r3, r3, #264	; 0x108
 8009466:	6019      	str	r1, [r3, #0]
 8009468:	f507 7384 	add.w	r3, r7, #264	; 0x108
 800946c:	f5a3 7384 	sub.w	r3, r3, #264	; 0x108
 8009470:	681b      	ldr	r3, [r3, #0]
 8009472:	785b      	ldrb	r3, [r3, #1]
 8009474:	2b01      	cmp	r3, #1
 8009476:	f040 86b7 	bne.w	800a1e8 <USB_EPStartXfer+0xd9a>
 800947a:	f507 7384 	add.w	r3, r7, #264	; 0x108
 800947e:	f5a3 7384 	sub.w	r3, r3, #264	; 0x108
 8009482:	681b      	ldr	r3, [r3, #0]
 8009484:	699a      	ldr	r2, [r3, #24]
 8009486:	f507 7384 	add.w	r3, r7, #264	; 0x108
 800948a:	f5a3 7384 	sub.w	r3, r3, #264	; 0x108
 800948e:	681b      	ldr	r3, [r3, #0]
 8009490:	691b      	ldr	r3, [r3, #16]
 8009492:	429a      	cmp	r2, r3
 8009494:	d908      	bls.n	80094a8 <USB_EPStartXfer+0x5a>
 8009496:	f507 7384 	add.w	r3, r7, #264	; 0x108
 800949a:	f5a3 7384 	sub.w	r3, r3, #264	; 0x108
 800949e:	681b      	ldr	r3, [r3, #0]
 80094a0:	691b      	ldr	r3, [r3, #16]
 80094a2:	f8c7 3104 	str.w	r3, [r7, #260]	; 0x104
 80094a6:	e007      	b.n	80094b8 <USB_EPStartXfer+0x6a>
 80094a8:	f507 7384 	add.w	r3, r7, #264	; 0x108
 80094ac:	f5a3 7384 	sub.w	r3, r3, #264	; 0x108
 80094b0:	681b      	ldr	r3, [r3, #0]
 80094b2:	699b      	ldr	r3, [r3, #24]
 80094b4:	f8c7 3104 	str.w	r3, [r7, #260]	; 0x104
 80094b8:	f507 7384 	add.w	r3, r7, #264	; 0x108
 80094bc:	f5a3 7384 	sub.w	r3, r3, #264	; 0x108
 80094c0:	681b      	ldr	r3, [r3, #0]
 80094c2:	7b1b      	ldrb	r3, [r3, #12]
 80094c4:	2b00      	cmp	r3, #0
 80094c6:	d13a      	bne.n	800953e <USB_EPStartXfer+0xf0>
 80094c8:	f507 7384 	add.w	r3, r7, #264	; 0x108
 80094cc:	f5a3 7384 	sub.w	r3, r3, #264	; 0x108
 80094d0:	681b      	ldr	r3, [r3, #0]
 80094d2:	6959      	ldr	r1, [r3, #20]
 80094d4:	f507 7384 	add.w	r3, r7, #264	; 0x108
 80094d8:	f5a3 7384 	sub.w	r3, r3, #264	; 0x108
 80094dc:	681b      	ldr	r3, [r3, #0]
 80094de:	88da      	ldrh	r2, [r3, #6]
 80094e0:	f8d7 3104 	ldr.w	r3, [r7, #260]	; 0x104
 80094e4:	b29b      	uxth	r3, r3
 80094e6:	f507 7084 	add.w	r0, r7, #264	; 0x108
 80094ea:	f5a0 7082 	sub.w	r0, r0, #260	; 0x104
 80094ee:	6800      	ldr	r0, [r0, #0]
 80094f0:	f001 fc98 	bl	800ae24 <USB_WritePMA>
 80094f4:	f507 7384 	add.w	r3, r7, #264	; 0x108
 80094f8:	f5a3 7382 	sub.w	r3, r3, #260	; 0x104
 80094fc:	681b      	ldr	r3, [r3, #0]
 80094fe:	613b      	str	r3, [r7, #16]
 8009500:	f507 7384 	add.w	r3, r7, #264	; 0x108
 8009504:	f5a3 7382 	sub.w	r3, r3, #260	; 0x104
 8009508:	681b      	ldr	r3, [r3, #0]
 800950a:	f8b3 3050 	ldrh.w	r3, [r3, #80]	; 0x50
 800950e:	b29b      	uxth	r3, r3
 8009510:	461a      	mov	r2, r3
 8009512:	693b      	ldr	r3, [r7, #16]
 8009514:	4413      	add	r3, r2
 8009516:	613b      	str	r3, [r7, #16]
 8009518:	f507 7384 	add.w	r3, r7, #264	; 0x108
 800951c:	f5a3 7384 	sub.w	r3, r3, #264	; 0x108
 8009520:	681b      	ldr	r3, [r3, #0]
 8009522:	781b      	ldrb	r3, [r3, #0]
 8009524:	00da      	lsls	r2, r3, #3
 8009526:	693b      	ldr	r3, [r7, #16]
 8009528:	4413      	add	r3, r2
 800952a:	f203 4302 	addw	r3, r3, #1026	; 0x402
 800952e:	60fb      	str	r3, [r7, #12]
 8009530:	f8d7 3104 	ldr.w	r3, [r7, #260]	; 0x104
 8009534:	b29a      	uxth	r2, r3
 8009536:	68fb      	ldr	r3, [r7, #12]
 8009538:	801a      	strh	r2, [r3, #0]
 800953a:	f000 be1f 	b.w	800a17c <USB_EPStartXfer+0xd2e>
 800953e:	f507 7384 	add.w	r3, r7, #264	; 0x108
 8009542:	f5a3 7384 	sub.w	r3, r3, #264	; 0x108
 8009546:	681b      	ldr	r3, [r3, #0]
 8009548:	78db      	ldrb	r3, [r3, #3]
 800954a:	2b02      	cmp	r3, #2
 800954c:	f040 8462 	bne.w	8009e14 <USB_EPStartXfer+0x9c6>
 8009550:	f507 7384 	add.w	r3, r7, #264	; 0x108
 8009554:	f5a3 7384 	sub.w	r3, r3, #264	; 0x108
 8009558:	681b      	ldr	r3, [r3, #0]
 800955a:	6a1a      	ldr	r2, [r3, #32]
 800955c:	f507 7384 	add.w	r3, r7, #264	; 0x108
 8009560:	f5a3 7384 	sub.w	r3, r3, #264	; 0x108
 8009564:	681b      	ldr	r3, [r3, #0]
 8009566:	691b      	ldr	r3, [r3, #16]
 8009568:	429a      	cmp	r2, r3
 800956a:	f240 83df 	bls.w	8009d2c <USB_EPStartXfer+0x8de>
 800956e:	f507 7384 	add.w	r3, r7, #264	; 0x108
 8009572:	f5a3 7382 	sub.w	r3, r3, #260	; 0x104
 8009576:	681a      	ldr	r2, [r3, #0]
 8009578:	f507 7384 	add.w	r3, r7, #264	; 0x108
 800957c:	f5a3 7384 	sub.w	r3, r3, #264	; 0x108
 8009580:	681b      	ldr	r3, [r3, #0]
 8009582:	781b      	ldrb	r3, [r3, #0]
 8009584:	009b      	lsls	r3, r3, #2
 8009586:	4413      	add	r3, r2
 8009588:	881b      	ldrh	r3, [r3, #0]
 800958a:	b29b      	uxth	r3, r3
 800958c:	f423 43e0 	bic.w	r3, r3, #28672	; 0x7000
 8009590:	f023 0370 	bic.w	r3, r3, #112	; 0x70
 8009594:	f8a7 3056 	strh.w	r3, [r7, #86]	; 0x56
 8009598:	f507 7384 	add.w	r3, r7, #264	; 0x108
 800959c:	f5a3 7382 	sub.w	r3, r3, #260	; 0x104
 80095a0:	681a      	ldr	r2, [r3, #0]
 80095a2:	f507 7384 	add.w	r3, r7, #264	; 0x108
 80095a6:	f5a3 7384 	sub.w	r3, r3, #264	; 0x108
 80095aa:	681b      	ldr	r3, [r3, #0]
 80095ac:	781b      	ldrb	r3, [r3, #0]
 80095ae:	009b      	lsls	r3, r3, #2
 80095b0:	441a      	add	r2, r3
 80095b2:	f8b7 3056 	ldrh.w	r3, [r7, #86]	; 0x56
 80095b6:	f043 437f 	orr.w	r3, r3, #4278190080	; 0xff000000
 80095ba:	f443 037f 	orr.w	r3, r3, #16711680	; 0xff0000
 80095be:	f443 4301 	orr.w	r3, r3, #33024	; 0x8100
 80095c2:	f043 0380 	orr.w	r3, r3, #128	; 0x80
 80095c6:	b29b      	uxth	r3, r3
 80095c8:	8013      	strh	r3, [r2, #0]
 80095ca:	f507 7384 	add.w	r3, r7, #264	; 0x108
 80095ce:	f5a3 7384 	sub.w	r3, r3, #264	; 0x108
 80095d2:	681b      	ldr	r3, [r3, #0]
 80095d4:	6a1a      	ldr	r2, [r3, #32]
 80095d6:	f8d7 3104 	ldr.w	r3, [r7, #260]	; 0x104
 80095da:	1ad2      	subs	r2, r2, r3
 80095dc:	f507 7384 	add.w	r3, r7, #264	; 0x108
 80095e0:	f5a3 7384 	sub.w	r3, r3, #264	; 0x108
 80095e4:	681b      	ldr	r3, [r3, #0]
 80095e6:	621a      	str	r2, [r3, #32]
 80095e8:	f507 7384 	add.w	r3, r7, #264	; 0x108
 80095ec:	f5a3 7382 	sub.w	r3, r3, #260	; 0x104
 80095f0:	681a      	ldr	r2, [r3, #0]
 80095f2:	f507 7384 	add.w	r3, r7, #264	; 0x108
 80095f6:	f5a3 7384 	sub.w	r3, r3, #264	; 0x108
 80095fa:	681b      	ldr	r3, [r3, #0]
 80095fc:	781b      	ldrb	r3, [r3, #0]
 80095fe:	009b      	lsls	r3, r3, #2
 8009600:	4413      	add	r3, r2
 8009602:	881b      	ldrh	r3, [r3, #0]
 8009604:	b29b      	uxth	r3, r3
 8009606:	f003 0340 	and.w	r3, r3, #64	; 0x40
 800960a:	2b00      	cmp	r3, #0
 800960c:	f000 81c7 	beq.w	800999e <USB_EPStartXfer+0x550>
 8009610:	f507 7384 	add.w	r3, r7, #264	; 0x108
 8009614:	f5a3 7382 	sub.w	r3, r3, #260	; 0x104
 8009618:	681b      	ldr	r3, [r3, #0]
 800961a:	633b      	str	r3, [r7, #48]	; 0x30
 800961c:	f507 7384 	add.w	r3, r7, #264	; 0x108
 8009620:	f5a3 7384 	sub.w	r3, r3, #264	; 0x108
 8009624:	681b      	ldr	r3, [r3, #0]
 8009626:	785b      	ldrb	r3, [r3, #1]
 8009628:	2b00      	cmp	r3, #0
 800962a:	d177      	bne.n	800971c <USB_EPStartXfer+0x2ce>
 800962c:	f507 7384 	add.w	r3, r7, #264	; 0x108
 8009630:	f5a3 7382 	sub.w	r3, r3, #260	; 0x104
 8009634:	681b      	ldr	r3, [r3, #0]
 8009636:	62bb      	str	r3, [r7, #40]	; 0x28
 8009638:	f507 7384 	add.w	r3, r7, #264	; 0x108
 800963c:	f5a3 7382 	sub.w	r3, r3, #260	; 0x104
 8009640:	681b      	ldr	r3, [r3, #0]
 8009642:	f8b3 3050 	ldrh.w	r3, [r3, #80]	; 0x50
 8009646:	b29b      	uxth	r3, r3
 8009648:	461a      	mov	r2, r3
 800964a:	6abb      	ldr	r3, [r7, #40]	; 0x28
 800964c:	4413      	add	r3, r2
 800964e:	62bb      	str	r3, [r7, #40]	; 0x28
 8009650:	f507 7384 	add.w	r3, r7, #264	; 0x108
 8009654:	f5a3 7384 	sub.w	r3, r3, #264	; 0x108
 8009658:	681b      	ldr	r3, [r3, #0]
 800965a:	781b      	ldrb	r3, [r3, #0]
 800965c:	00da      	lsls	r2, r3, #3
 800965e:	6abb      	ldr	r3, [r7, #40]	; 0x28
 8009660:	4413      	add	r3, r2
 8009662:	f203 4306 	addw	r3, r3, #1030	; 0x406
 8009666:	627b      	str	r3, [r7, #36]	; 0x24
 8009668:	6a7b      	ldr	r3, [r7, #36]	; 0x24
 800966a:	881b      	ldrh	r3, [r3, #0]
 800966c:	b29b      	uxth	r3, r3
 800966e:	f3c3 0309 	ubfx	r3, r3, #0, #10
 8009672:	b29a      	uxth	r2, r3
 8009674:	6a7b      	ldr	r3, [r7, #36]	; 0x24
 8009676:	801a      	strh	r2, [r3, #0]
 8009678:	f8d7 3104 	ldr.w	r3, [r7, #260]	; 0x104
 800967c:	2b3e      	cmp	r3, #62	; 0x3e
 800967e:	d921      	bls.n	80096c4 <USB_EPStartXfer+0x276>
 8009680:	f8d7 3104 	ldr.w	r3, [r7, #260]	; 0x104
 8009684:	095b      	lsrs	r3, r3, #5
 8009686:	f8c7 3100 	str.w	r3, [r7, #256]	; 0x100
 800968a:	f8d7 3104 	ldr.w	r3, [r7, #260]	; 0x104
 800968e:	f003 031f 	and.w	r3, r3, #31
 8009692:	2b00      	cmp	r3, #0
 8009694:	d104      	bne.n	80096a0 <USB_EPStartXfer+0x252>
 8009696:	f8d7 3100 	ldr.w	r3, [r7, #256]	; 0x100
 800969a:	3b01      	subs	r3, #1
 800969c:	f8c7 3100 	str.w	r3, [r7, #256]	; 0x100
 80096a0:	6a7b      	ldr	r3, [r7, #36]	; 0x24
 80096a2:	881b      	ldrh	r3, [r3, #0]
 80096a4:	b29a      	uxth	r2, r3
 80096a6:	f8d7 3100 	ldr.w	r3, [r7, #256]	; 0x100
 80096aa:	b29b      	uxth	r3, r3
 80096ac:	029b      	lsls	r3, r3, #10
 80096ae:	b29b      	uxth	r3, r3
 80096b0:	4313      	orrs	r3, r2
 80096b2:	b29b      	uxth	r3, r3
 80096b4:	ea6f 4343 	mvn.w	r3, r3, lsl #17
 80096b8:	ea6f 4353 	mvn.w	r3, r3, lsr #17
 80096bc:	b29a      	uxth	r2, r3
 80096be:	6a7b      	ldr	r3, [r7, #36]	; 0x24
 80096c0:	801a      	strh	r2, [r3, #0]
 80096c2:	e050      	b.n	8009766 <USB_EPStartXfer+0x318>
 80096c4:	f8d7 3104 	ldr.w	r3, [r7, #260]	; 0x104
 80096c8:	2b00      	cmp	r3, #0
 80096ca:	d10a      	bne.n	80096e2 <USB_EPStartXfer+0x294>
 80096cc:	6a7b      	ldr	r3, [r7, #36]	; 0x24
 80096ce:	881b      	ldrh	r3, [r3, #0]
 80096d0:	b29b      	uxth	r3, r3
 80096d2:	ea6f 4343 	mvn.w	r3, r3, lsl #17
 80096d6:	ea6f 4353 	mvn.w	r3, r3, lsr #17
 80096da:	b29a      	uxth	r2, r3
 80096dc:	6a7b      	ldr	r3, [r7, #36]	; 0x24
 80096de:	801a      	strh	r2, [r3, #0]
 80096e0:	e041      	b.n	8009766 <USB_EPStartXfer+0x318>
 80096e2:	f8d7 3104 	ldr.w	r3, [r7, #260]	; 0x104
 80096e6:	085b      	lsrs	r3, r3, #1
 80096e8:	f8c7 3100 	str.w	r3, [r7, #256]	; 0x100
 80096ec:	f8d7 3104 	ldr.w	r3, [r7, #260]	; 0x104
 80096f0:	f003 0301 	and.w	r3, r3, #1
 80096f4:	2b00      	cmp	r3, #0
 80096f6:	d004      	beq.n	8009702 <USB_EPStartXfer+0x2b4>
 80096f8:	f8d7 3100 	ldr.w	r3, [r7, #256]	; 0x100
 80096fc:	3301      	adds	r3, #1
 80096fe:	f8c7 3100 	str.w	r3, [r7, #256]	; 0x100
 8009702:	6a7b      	ldr	r3, [r7, #36]	; 0x24
 8009704:	881b      	ldrh	r3, [r3, #0]
 8009706:	b29a      	uxth	r2, r3
 8009708:	f8d7 3100 	ldr.w	r3, [r7, #256]	; 0x100
 800970c:	b29b      	uxth	r3, r3
 800970e:	029b      	lsls	r3, r3, #10
 8009710:	b29b      	uxth	r3, r3
 8009712:	4313      	orrs	r3, r2
 8009714:	b29a      	uxth	r2, r3
 8009716:	6a7b      	ldr	r3, [r7, #36]	; 0x24
 8009718:	801a      	strh	r2, [r3, #0]
 800971a:	e024      	b.n	8009766 <USB_EPStartXfer+0x318>
 800971c:	f507 7384 	add.w	r3, r7, #264	; 0x108
 8009720:	f5a3 7384 	sub.w	r3, r3, #264	; 0x108
 8009724:	681b      	ldr	r3, [r3, #0]
 8009726:	785b      	ldrb	r3, [r3, #1]
 8009728:	2b01      	cmp	r3, #1
 800972a:	d11c      	bne.n	8009766 <USB_EPStartXfer+0x318>
 800972c:	f507 7384 	add.w	r3, r7, #264	; 0x108
 8009730:	f5a3 7382 	sub.w	r3, r3, #260	; 0x104
 8009734:	681b      	ldr	r3, [r3, #0]
 8009736:	f8b3 3050 	ldrh.w	r3, [r3, #80]	; 0x50
 800973a:	b29b      	uxth	r3, r3
 800973c:	461a      	mov	r2, r3
 800973e:	6b3b      	ldr	r3, [r7, #48]	; 0x30
 8009740:	4413      	add	r3, r2
 8009742:	633b      	str	r3, [r7, #48]	; 0x30
 8009744:	f507 7384 	add.w	r3, r7, #264	; 0x108
 8009748:	f5a3 7384 	sub.w	r3, r3, #264	; 0x108
 800974c:	681b      	ldr	r3, [r3, #0]
 800974e:	781b      	ldrb	r3, [r3, #0]
 8009750:	00da      	lsls	r2, r3, #3
 8009752:	6b3b      	ldr	r3, [r7, #48]	; 0x30
 8009754:	4413      	add	r3, r2
 8009756:	f203 4306 	addw	r3, r3, #1030	; 0x406
 800975a:	62fb      	str	r3, [r7, #44]	; 0x2c
 800975c:	f8d7 3104 	ldr.w	r3, [r7, #260]	; 0x104
 8009760:	b29a      	uxth	r2, r3
 8009762:	6afb      	ldr	r3, [r7, #44]	; 0x2c
 8009764:	801a      	strh	r2, [r3, #0]
 8009766:	f507 7384 	add.w	r3, r7, #264	; 0x108
 800976a:	f5a3 7384 	sub.w	r3, r3, #264	; 0x108
 800976e:	681b      	ldr	r3, [r3, #0]
 8009770:	895b      	ldrh	r3, [r3, #10]
 8009772:	f8a7 3076 	strh.w	r3, [r7, #118]	; 0x76
 8009776:	f507 7384 	add.w	r3, r7, #264	; 0x108
 800977a:	f5a3 7384 	sub.w	r3, r3, #264	; 0x108
 800977e:	681b      	ldr	r3, [r3, #0]
 8009780:	6959      	ldr	r1, [r3, #20]
 8009782:	f8d7 3104 	ldr.w	r3, [r7, #260]	; 0x104
 8009786:	b29b      	uxth	r3, r3
 8009788:	f8b7 2076 	ldrh.w	r2, [r7, #118]	; 0x76
 800978c:	f507 7084 	add.w	r0, r7, #264	; 0x108
 8009790:	f5a0 7082 	sub.w	r0, r0, #260	; 0x104
 8009794:	6800      	ldr	r0, [r0, #0]
 8009796:	f001 fb45 	bl	800ae24 <USB_WritePMA>
 800979a:	f507 7384 	add.w	r3, r7, #264	; 0x108
 800979e:	f5a3 7384 	sub.w	r3, r3, #264	; 0x108
 80097a2:	681b      	ldr	r3, [r3, #0]
 80097a4:	695a      	ldr	r2, [r3, #20]
 80097a6:	f8d7 3104 	ldr.w	r3, [r7, #260]	; 0x104
 80097aa:	441a      	add	r2, r3
 80097ac:	f507 7384 	add.w	r3, r7, #264	; 0x108
 80097b0:	f5a3 7384 	sub.w	r3, r3, #264	; 0x108
 80097b4:	681b      	ldr	r3, [r3, #0]
 80097b6:	615a      	str	r2, [r3, #20]
 80097b8:	f507 7384 	add.w	r3, r7, #264	; 0x108
 80097bc:	f5a3 7384 	sub.w	r3, r3, #264	; 0x108
 80097c0:	681b      	ldr	r3, [r3, #0]
 80097c2:	6a1a      	ldr	r2, [r3, #32]
 80097c4:	f507 7384 	add.w	r3, r7, #264	; 0x108
 80097c8:	f5a3 7384 	sub.w	r3, r3, #264	; 0x108
 80097cc:	681b      	ldr	r3, [r3, #0]
 80097ce:	691b      	ldr	r3, [r3, #16]
 80097d0:	429a      	cmp	r2, r3
 80097d2:	d90f      	bls.n	80097f4 <USB_EPStartXfer+0x3a6>
 80097d4:	f507 7384 	add.w	r3, r7, #264	; 0x108
 80097d8:	f5a3 7384 	sub.w	r3, r3, #264	; 0x108
 80097dc:	681b      	ldr	r3, [r3, #0]
 80097de:	6a1a      	ldr	r2, [r3, #32]
 80097e0:	f8d7 3104 	ldr.w	r3, [r7, #260]	; 0x104
 80097e4:	1ad2      	subs	r2, r2, r3
 80097e6:	f507 7384 	add.w	r3, r7, #264	; 0x108
 80097ea:	f5a3 7384 	sub.w	r3, r3, #264	; 0x108
 80097ee:	681b      	ldr	r3, [r3, #0]
 80097f0:	621a      	str	r2, [r3, #32]
 80097f2:	e00e      	b.n	8009812 <USB_EPStartXfer+0x3c4>
 80097f4:	f507 7384 	add.w	r3, r7, #264	; 0x108
 80097f8:	f5a3 7384 	sub.w	r3, r3, #264	; 0x108
 80097fc:	681b      	ldr	r3, [r3, #0]
 80097fe:	6a1b      	ldr	r3, [r3, #32]
 8009800:	f8c7 3104 	str.w	r3, [r7, #260]	; 0x104
 8009804:	f507 7384 	add.w	r3, r7, #264	; 0x108
 8009808:	f5a3 7384 	sub.w	r3, r3, #264	; 0x108
 800980c:	681b      	ldr	r3, [r3, #0]
 800980e:	2200      	movs	r2, #0
 8009810:	621a      	str	r2, [r3, #32]
 8009812:	f507 7384 	add.w	r3, r7, #264	; 0x108
 8009816:	f5a3 7384 	sub.w	r3, r3, #264	; 0x108
 800981a:	681b      	ldr	r3, [r3, #0]
 800981c:	785b      	ldrb	r3, [r3, #1]
 800981e:	2b00      	cmp	r3, #0
 8009820:	d177      	bne.n	8009912 <USB_EPStartXfer+0x4c4>
 8009822:	f507 7384 	add.w	r3, r7, #264	; 0x108
 8009826:	f5a3 7382 	sub.w	r3, r3, #260	; 0x104
 800982a:	681b      	ldr	r3, [r3, #0]
 800982c:	61bb      	str	r3, [r7, #24]
 800982e:	f507 7384 	add.w	r3, r7, #264	; 0x108
 8009832:	f5a3 7382 	sub.w	r3, r3, #260	; 0x104
 8009836:	681b      	ldr	r3, [r3, #0]
 8009838:	f8b3 3050 	ldrh.w	r3, [r3, #80]	; 0x50
 800983c:	b29b      	uxth	r3, r3
 800983e:	461a      	mov	r2, r3
 8009840:	69bb      	ldr	r3, [r7, #24]
 8009842:	4413      	add	r3, r2
 8009844:	61bb      	str	r3, [r7, #24]
 8009846:	f507 7384 	add.w	r3, r7, #264	; 0x108
 800984a:	f5a3 7384 	sub.w	r3, r3, #264	; 0x108
 800984e:	681b      	ldr	r3, [r3, #0]
 8009850:	781b      	ldrb	r3, [r3, #0]
 8009852:	00da      	lsls	r2, r3, #3
 8009854:	69bb      	ldr	r3, [r7, #24]
 8009856:	4413      	add	r3, r2
 8009858:	f203 4302 	addw	r3, r3, #1026	; 0x402
 800985c:	617b      	str	r3, [r7, #20]
 800985e:	697b      	ldr	r3, [r7, #20]
 8009860:	881b      	ldrh	r3, [r3, #0]
 8009862:	b29b      	uxth	r3, r3
 8009864:	f3c3 0309 	ubfx	r3, r3, #0, #10
 8009868:	b29a      	uxth	r2, r3
 800986a:	697b      	ldr	r3, [r7, #20]
 800986c:	801a      	strh	r2, [r3, #0]
 800986e:	f8d7 3104 	ldr.w	r3, [r7, #260]	; 0x104
 8009872:	2b3e      	cmp	r3, #62	; 0x3e
 8009874:	d921      	bls.n	80098ba <USB_EPStartXfer+0x46c>
 8009876:	f8d7 3104 	ldr.w	r3, [r7, #260]	; 0x104
 800987a:	095b      	lsrs	r3, r3, #5
 800987c:	f8c7 30fc 	str.w	r3, [r7, #252]	; 0xfc
 8009880:	f8d7 3104 	ldr.w	r3, [r7, #260]	; 0x104
 8009884:	f003 031f 	and.w	r3, r3, #31
 8009888:	2b00      	cmp	r3, #0
 800988a:	d104      	bne.n	8009896 <USB_EPStartXfer+0x448>
 800988c:	f8d7 30fc 	ldr.w	r3, [r7, #252]	; 0xfc
 8009890:	3b01      	subs	r3, #1
 8009892:	f8c7 30fc 	str.w	r3, [r7, #252]	; 0xfc
 8009896:	697b      	ldr	r3, [r7, #20]
 8009898:	881b      	ldrh	r3, [r3, #0]
 800989a:	b29a      	uxth	r2, r3
 800989c:	f8d7 30fc 	ldr.w	r3, [r7, #252]	; 0xfc
 80098a0:	b29b      	uxth	r3, r3
 80098a2:	029b      	lsls	r3, r3, #10
 80098a4:	b29b      	uxth	r3, r3
 80098a6:	4313      	orrs	r3, r2
 80098a8:	b29b      	uxth	r3, r3
 80098aa:	ea6f 4343 	mvn.w	r3, r3, lsl #17
 80098ae:	ea6f 4353 	mvn.w	r3, r3, lsr #17
 80098b2:	b29a      	uxth	r2, r3
 80098b4:	697b      	ldr	r3, [r7, #20]
 80098b6:	801a      	strh	r2, [r3, #0]
 80098b8:	e056      	b.n	8009968 <USB_EPStartXfer+0x51a>
 80098ba:	f8d7 3104 	ldr.w	r3, [r7, #260]	; 0x104
 80098be:	2b00      	cmp	r3, #0
 80098c0:	d10a      	bne.n	80098d8 <USB_EPStartXfer+0x48a>
 80098c2:	697b      	ldr	r3, [r7, #20]
 80098c4:	881b      	ldrh	r3, [r3, #0]
 80098c6:	b29b      	uxth	r3, r3
 80098c8:	ea6f 4343 	mvn.w	r3, r3, lsl #17
 80098cc:	ea6f 4353 	mvn.w	r3, r3, lsr #17
 80098d0:	b29a      	uxth	r2, r3
 80098d2:	697b      	ldr	r3, [r7, #20]
 80098d4:	801a      	strh	r2, [r3, #0]
 80098d6:	e047      	b.n	8009968 <USB_EPStartXfer+0x51a>
 80098d8:	f8d7 3104 	ldr.w	r3, [r7, #260]	; 0x104
 80098dc:	085b      	lsrs	r3, r3, #1
 80098de:	f8c7 30fc 	str.w	r3, [r7, #252]	; 0xfc
 80098e2:	f8d7 3104 	ldr.w	r3, [r7, #260]	; 0x104
 80098e6:	f003 0301 	and.w	r3, r3, #1
 80098ea:	2b00      	cmp	r3, #0
 80098ec:	d004      	beq.n	80098f8 <USB_EPStartXfer+0x4aa>
 80098ee:	f8d7 30fc 	ldr.w	r3, [r7, #252]	; 0xfc
 80098f2:	3301      	adds	r3, #1
 80098f4:	f8c7 30fc 	str.w	r3, [r7, #252]	; 0xfc
 80098f8:	697b      	ldr	r3, [r7, #20]
 80098fa:	881b      	ldrh	r3, [r3, #0]
 80098fc:	b29a      	uxth	r2, r3
 80098fe:	f8d7 30fc 	ldr.w	r3, [r7, #252]	; 0xfc
 8009902:	b29b      	uxth	r3, r3
 8009904:	029b      	lsls	r3, r3, #10
 8009906:	b29b      	uxth	r3, r3
 8009908:	4313      	orrs	r3, r2
 800990a:	b29a      	uxth	r2, r3
 800990c:	697b      	ldr	r3, [r7, #20]
 800990e:	801a      	strh	r2, [r3, #0]
 8009910:	e02a      	b.n	8009968 <USB_EPStartXfer+0x51a>
 8009912:	f507 7384 	add.w	r3, r7, #264	; 0x108
 8009916:	f5a3 7384 	sub.w	r3, r3, #264	; 0x108
 800991a:	681b      	ldr	r3, [r3, #0]
 800991c:	785b      	ldrb	r3, [r3, #1]
 800991e:	2b01      	cmp	r3, #1
 8009920:	d122      	bne.n	8009968 <USB_EPStartXfer+0x51a>
 8009922:	f507 7384 	add.w	r3, r7, #264	; 0x108
 8009926:	f5a3 7382 	sub.w	r3, r3, #260	; 0x104
 800992a:	681b      	ldr	r3, [r3, #0]
 800992c:	623b      	str	r3, [r7, #32]
 800992e:	f507 7384 	add.w	r3, r7, #264	; 0x108
 8009932:	f5a3 7382 	sub.w	r3, r3, #260	; 0x104
 8009936:	681b      	ldr	r3, [r3, #0]
 8009938:	f8b3 3050 	ldrh.w	r3, [r3, #80]	; 0x50
 800993c:	b29b      	uxth	r3, r3
 800993e:	461a      	mov	r2, r3
 8009940:	6a3b      	ldr	r3, [r7, #32]
 8009942:	4413      	add	r3, r2
 8009944:	623b      	str	r3, [r7, #32]
 8009946:	f507 7384 	add.w	r3, r7, #264	; 0x108
 800994a:	f5a3 7384 	sub.w	r3, r3, #264	; 0x108
 800994e:	681b      	ldr	r3, [r3, #0]
 8009950:	781b      	ldrb	r3, [r3, #0]
 8009952:	00da      	lsls	r2, r3, #3
 8009954:	6a3b      	ldr	r3, [r7, #32]
 8009956:	4413      	add	r3, r2
 8009958:	f203 4302 	addw	r3, r3, #1026	; 0x402
 800995c:	61fb      	str	r3, [r7, #28]
 800995e:	f8d7 3104 	ldr.w	r3, [r7, #260]	; 0x104
 8009962:	b29a      	uxth	r2, r3
 8009964:	69fb      	ldr	r3, [r7, #28]
 8009966:	801a      	strh	r2, [r3, #0]
 8009968:	f507 7384 	add.w	r3, r7, #264	; 0x108
 800996c:	f5a3 7384 	sub.w	r3, r3, #264	; 0x108
 8009970:	681b      	ldr	r3, [r3, #0]
 8009972:	891b      	ldrh	r3, [r3, #8]
 8009974:	f8a7 3076 	strh.w	r3, [r7, #118]	; 0x76
 8009978:	f507 7384 	add.w	r3, r7, #264	; 0x108
 800997c:	f5a3 7384 	sub.w	r3, r3, #264	; 0x108
 8009980:	681b      	ldr	r3, [r3, #0]
 8009982:	6959      	ldr	r1, [r3, #20]
 8009984:	f8d7 3104 	ldr.w	r3, [r7, #260]	; 0x104
 8009988:	b29b      	uxth	r3, r3
 800998a:	f8b7 2076 	ldrh.w	r2, [r7, #118]	; 0x76
 800998e:	f507 7084 	add.w	r0, r7, #264	; 0x108
 8009992:	f5a0 7082 	sub.w	r0, r0, #260	; 0x104
 8009996:	6800      	ldr	r0, [r0, #0]
 8009998:	f001 fa44 	bl	800ae24 <USB_WritePMA>
 800999c:	e3ee      	b.n	800a17c <USB_EPStartXfer+0xd2e>
 800999e:	f507 7384 	add.w	r3, r7, #264	; 0x108
 80099a2:	f5a3 7384 	sub.w	r3, r3, #264	; 0x108
 80099a6:	681b      	ldr	r3, [r3, #0]
 80099a8:	785b      	ldrb	r3, [r3, #1]
 80099aa:	2b00      	cmp	r3, #0
 80099ac:	d177      	bne.n	8009a9e <USB_EPStartXfer+0x650>
 80099ae:	f507 7384 	add.w	r3, r7, #264	; 0x108
 80099b2:	f5a3 7382 	sub.w	r3, r3, #260	; 0x104
 80099b6:	681b      	ldr	r3, [r3, #0]
 80099b8:	64bb      	str	r3, [r7, #72]	; 0x48
 80099ba:	f507 7384 	add.w	r3, r7, #264	; 0x108
 80099be:	f5a3 7382 	sub.w	r3, r3, #260	; 0x104
 80099c2:	681b      	ldr	r3, [r3, #0]
 80099c4:	f8b3 3050 	ldrh.w	r3, [r3, #80]	; 0x50
 80099c8:	b29b      	uxth	r3, r3
 80099ca:	461a      	mov	r2, r3
 80099cc:	6cbb      	ldr	r3, [r7, #72]	; 0x48
 80099ce:	4413      	add	r3, r2
 80099d0:	64bb      	str	r3, [r7, #72]	; 0x48
 80099d2:	f507 7384 	add.w	r3, r7, #264	; 0x108
 80099d6:	f5a3 7384 	sub.w	r3, r3, #264	; 0x108
 80099da:	681b      	ldr	r3, [r3, #0]
 80099dc:	781b      	ldrb	r3, [r3, #0]
 80099de:	00da      	lsls	r2, r3, #3
 80099e0:	6cbb      	ldr	r3, [r7, #72]	; 0x48
 80099e2:	4413      	add	r3, r2
 80099e4:	f203 4302 	addw	r3, r3, #1026	; 0x402
 80099e8:	647b      	str	r3, [r7, #68]	; 0x44
 80099ea:	6c7b      	ldr	r3, [r7, #68]	; 0x44
 80099ec:	881b      	ldrh	r3, [r3, #0]
 80099ee:	b29b      	uxth	r3, r3
 80099f0:	f3c3 0309 	ubfx	r3, r3, #0, #10
 80099f4:	b29a      	uxth	r2, r3
 80099f6:	6c7b      	ldr	r3, [r7, #68]	; 0x44
 80099f8:	801a      	strh	r2, [r3, #0]
 80099fa:	f8d7 3104 	ldr.w	r3, [r7, #260]	; 0x104
 80099fe:	2b3e      	cmp	r3, #62	; 0x3e
 8009a00:	d921      	bls.n	8009a46 <USB_EPStartXfer+0x5f8>
 8009a02:	f8d7 3104 	ldr.w	r3, [r7, #260]	; 0x104
 8009a06:	095b      	lsrs	r3, r3, #5
 8009a08:	f8c7 30f8 	str.w	r3, [r7, #248]	; 0xf8
 8009a0c:	f8d7 3104 	ldr.w	r3, [r7, #260]	; 0x104
 8009a10:	f003 031f 	and.w	r3, r3, #31
 8009a14:	2b00      	cmp	r3, #0
 8009a16:	d104      	bne.n	8009a22 <USB_EPStartXfer+0x5d4>
 8009a18:	f8d7 30f8 	ldr.w	r3, [r7, #248]	; 0xf8
 8009a1c:	3b01      	subs	r3, #1
 8009a1e:	f8c7 30f8 	str.w	r3, [r7, #248]	; 0xf8
 8009a22:	6c7b      	ldr	r3, [r7, #68]	; 0x44
 8009a24:	881b      	ldrh	r3, [r3, #0]
 8009a26:	b29a      	uxth	r2, r3
 8009a28:	f8d7 30f8 	ldr.w	r3, [r7, #248]	; 0xf8
 8009a2c:	b29b      	uxth	r3, r3
 8009a2e:	029b      	lsls	r3, r3, #10
 8009a30:	b29b      	uxth	r3, r3
 8009a32:	4313      	orrs	r3, r2
 8009a34:	b29b      	uxth	r3, r3
 8009a36:	ea6f 4343 	mvn.w	r3, r3, lsl #17
 8009a3a:	ea6f 4353 	mvn.w	r3, r3, lsr #17
 8009a3e:	b29a      	uxth	r2, r3
 8009a40:	6c7b      	ldr	r3, [r7, #68]	; 0x44
 8009a42:	801a      	strh	r2, [r3, #0]
 8009a44:	e056      	b.n	8009af4 <USB_EPStartXfer+0x6a6>
 8009a46:	f8d7 3104 	ldr.w	r3, [r7, #260]	; 0x104
 8009a4a:	2b00      	cmp	r3, #0
 8009a4c:	d10a      	bne.n	8009a64 <USB_EPStartXfer+0x616>
 8009a4e:	6c7b      	ldr	r3, [r7, #68]	; 0x44
 8009a50:	881b      	ldrh	r3, [r3, #0]
 8009a52:	b29b      	uxth	r3, r3
 8009a54:	ea6f 4343 	mvn.w	r3, r3, lsl #17
 8009a58:	ea6f 4353 	mvn.w	r3, r3, lsr #17
 8009a5c:	b29a      	uxth	r2, r3
 8009a5e:	6c7b      	ldr	r3, [r7, #68]	; 0x44
 8009a60:	801a      	strh	r2, [r3, #0]
 8009a62:	e047      	b.n	8009af4 <USB_EPStartXfer+0x6a6>
 8009a64:	f8d7 3104 	ldr.w	r3, [r7, #260]	; 0x104
 8009a68:	085b      	lsrs	r3, r3, #1
 8009a6a:	f8c7 30f8 	str.w	r3, [r7, #248]	; 0xf8
 8009a6e:	f8d7 3104 	ldr.w	r3, [r7, #260]	; 0x104
 8009a72:	f003 0301 	and.w	r3, r3, #1
 8009a76:	2b00      	cmp	r3, #0
 8009a78:	d004      	beq.n	8009a84 <USB_EPStartXfer+0x636>
 8009a7a:	f8d7 30f8 	ldr.w	r3, [r7, #248]	; 0xf8
 8009a7e:	3301      	adds	r3, #1
 8009a80:	f8c7 30f8 	str.w	r3, [r7, #248]	; 0xf8
 8009a84:	6c7b      	ldr	r3, [r7, #68]	; 0x44
 8009a86:	881b      	ldrh	r3, [r3, #0]
 8009a88:	b29a      	uxth	r2, r3
 8009a8a:	f8d7 30f8 	ldr.w	r3, [r7, #248]	; 0xf8
 8009a8e:	b29b      	uxth	r3, r3
 8009a90:	029b      	lsls	r3, r3, #10
 8009a92:	b29b      	uxth	r3, r3
 8009a94:	4313      	orrs	r3, r2
 8009a96:	b29a      	uxth	r2, r3
 8009a98:	6c7b      	ldr	r3, [r7, #68]	; 0x44
 8009a9a:	801a      	strh	r2, [r3, #0]
 8009a9c:	e02a      	b.n	8009af4 <USB_EPStartXfer+0x6a6>
 8009a9e:	f507 7384 	add.w	r3, r7, #264	; 0x108
 8009aa2:	f5a3 7384 	sub.w	r3, r3, #264	; 0x108
 8009aa6:	681b      	ldr	r3, [r3, #0]
 8009aa8:	785b      	ldrb	r3, [r3, #1]
 8009aaa:	2b01      	cmp	r3, #1
 8009aac:	d122      	bne.n	8009af4 <USB_EPStartXfer+0x6a6>
 8009aae:	f507 7384 	add.w	r3, r7, #264	; 0x108
 8009ab2:	f5a3 7382 	sub.w	r3, r3, #260	; 0x104
 8009ab6:	681b      	ldr	r3, [r3, #0]
 8009ab8:	653b      	str	r3, [r7, #80]	; 0x50
 8009aba:	f507 7384 	add.w	r3, r7, #264	; 0x108
 8009abe:	f5a3 7382 	sub.w	r3, r3, #260	; 0x104
 8009ac2:	681b      	ldr	r3, [r3, #0]
 8009ac4:	f8b3 3050 	ldrh.w	r3, [r3, #80]	; 0x50
 8009ac8:	b29b      	uxth	r3, r3
 8009aca:	461a      	mov	r2, r3
 8009acc:	6d3b      	ldr	r3, [r7, #80]	; 0x50
 8009ace:	4413      	add	r3, r2
 8009ad0:	653b      	str	r3, [r7, #80]	; 0x50
 8009ad2:	f507 7384 	add.w	r3, r7, #264	; 0x108
 8009ad6:	f5a3 7384 	sub.w	r3, r3, #264	; 0x108
 8009ada:	681b      	ldr	r3, [r3, #0]
 8009adc:	781b      	ldrb	r3, [r3, #0]
 8009ade:	00da      	lsls	r2, r3, #3
 8009ae0:	6d3b      	ldr	r3, [r7, #80]	; 0x50
 8009ae2:	4413      	add	r3, r2
 8009ae4:	f203 4302 	addw	r3, r3, #1026	; 0x402
 8009ae8:	64fb      	str	r3, [r7, #76]	; 0x4c
 8009aea:	f8d7 3104 	ldr.w	r3, [r7, #260]	; 0x104
 8009aee:	b29a      	uxth	r2, r3
 8009af0:	6cfb      	ldr	r3, [r7, #76]	; 0x4c
 8009af2:	801a      	strh	r2, [r3, #0]
 8009af4:	f507 7384 	add.w	r3, r7, #264	; 0x108
 8009af8:	f5a3 7384 	sub.w	r3, r3, #264	; 0x108
 8009afc:	681b      	ldr	r3, [r3, #0]
 8009afe:	891b      	ldrh	r3, [r3, #8]
 8009b00:	f8a7 3076 	strh.w	r3, [r7, #118]	; 0x76
 8009b04:	f507 7384 	add.w	r3, r7, #264	; 0x108
 8009b08:	f5a3 7384 	sub.w	r3, r3, #264	; 0x108
 8009b0c:	681b      	ldr	r3, [r3, #0]
 8009b0e:	6959      	ldr	r1, [r3, #20]
 8009b10:	f8d7 3104 	ldr.w	r3, [r7, #260]	; 0x104
 8009b14:	b29b      	uxth	r3, r3
 8009b16:	f8b7 2076 	ldrh.w	r2, [r7, #118]	; 0x76
 8009b1a:	f507 7084 	add.w	r0, r7, #264	; 0x108
 8009b1e:	f5a0 7082 	sub.w	r0, r0, #260	; 0x104
 8009b22:	6800      	ldr	r0, [r0, #0]
 8009b24:	f001 f97e 	bl	800ae24 <USB_WritePMA>
 8009b28:	f507 7384 	add.w	r3, r7, #264	; 0x108
 8009b2c:	f5a3 7384 	sub.w	r3, r3, #264	; 0x108
 8009b30:	681b      	ldr	r3, [r3, #0]
 8009b32:	695a      	ldr	r2, [r3, #20]
 8009b34:	f8d7 3104 	ldr.w	r3, [r7, #260]	; 0x104
 8009b38:	441a      	add	r2, r3
 8009b3a:	f507 7384 	add.w	r3, r7, #264	; 0x108
 8009b3e:	f5a3 7384 	sub.w	r3, r3, #264	; 0x108
 8009b42:	681b      	ldr	r3, [r3, #0]
 8009b44:	615a      	str	r2, [r3, #20]
 8009b46:	f507 7384 	add.w	r3, r7, #264	; 0x108
 8009b4a:	f5a3 7384 	sub.w	r3, r3, #264	; 0x108
 8009b4e:	681b      	ldr	r3, [r3, #0]
 8009b50:	6a1a      	ldr	r2, [r3, #32]
 8009b52:	f507 7384 	add.w	r3, r7, #264	; 0x108
 8009b56:	f5a3 7384 	sub.w	r3, r3, #264	; 0x108
 8009b5a:	681b      	ldr	r3, [r3, #0]
 8009b5c:	691b      	ldr	r3, [r3, #16]
 8009b5e:	429a      	cmp	r2, r3
 8009b60:	d90f      	bls.n	8009b82 <USB_EPStartXfer+0x734>
 8009b62:	f507 7384 	add.w	r3, r7, #264	; 0x108
 8009b66:	f5a3 7384 	sub.w	r3, r3, #264	; 0x108
 8009b6a:	681b      	ldr	r3, [r3, #0]
 8009b6c:	6a1a      	ldr	r2, [r3, #32]
 8009b6e:	f8d7 3104 	ldr.w	r3, [r7, #260]	; 0x104
 8009b72:	1ad2      	subs	r2, r2, r3
 8009b74:	f507 7384 	add.w	r3, r7, #264	; 0x108
 8009b78:	f5a3 7384 	sub.w	r3, r3, #264	; 0x108
 8009b7c:	681b      	ldr	r3, [r3, #0]
 8009b7e:	621a      	str	r2, [r3, #32]
 8009b80:	e00e      	b.n	8009ba0 <USB_EPStartXfer+0x752>
 8009b82:	f507 7384 	add.w	r3, r7, #264	; 0x108
 8009b86:	f5a3 7384 	sub.w	r3, r3, #264	; 0x108
 8009b8a:	681b      	ldr	r3, [r3, #0]
 8009b8c:	6a1b      	ldr	r3, [r3, #32]
 8009b8e:	f8c7 3104 	str.w	r3, [r7, #260]	; 0x104
 8009b92:	f507 7384 	add.w	r3, r7, #264	; 0x108
 8009b96:	f5a3 7384 	sub.w	r3, r3, #264	; 0x108
 8009b9a:	681b      	ldr	r3, [r3, #0]
 8009b9c:	2200      	movs	r2, #0
 8009b9e:	621a      	str	r2, [r3, #32]
 8009ba0:	f507 7384 	add.w	r3, r7, #264	; 0x108
 8009ba4:	f5a3 7382 	sub.w	r3, r3, #260	; 0x104
 8009ba8:	681b      	ldr	r3, [r3, #0]
 8009baa:	643b      	str	r3, [r7, #64]	; 0x40
 8009bac:	f507 7384 	add.w	r3, r7, #264	; 0x108
 8009bb0:	f5a3 7384 	sub.w	r3, r3, #264	; 0x108
 8009bb4:	681b      	ldr	r3, [r3, #0]
 8009bb6:	785b      	ldrb	r3, [r3, #1]
 8009bb8:	2b00      	cmp	r3, #0
 8009bba:	d177      	bne.n	8009cac <USB_EPStartXfer+0x85e>
 8009bbc:	f507 7384 	add.w	r3, r7, #264	; 0x108
 8009bc0:	f5a3 7382 	sub.w	r3, r3, #260	; 0x104
 8009bc4:	681b      	ldr	r3, [r3, #0]
 8009bc6:	63bb      	str	r3, [r7, #56]	; 0x38
 8009bc8:	f507 7384 	add.w	r3, r7, #264	; 0x108
 8009bcc:	f5a3 7382 	sub.w	r3, r3, #260	; 0x104
 8009bd0:	681b      	ldr	r3, [r3, #0]
 8009bd2:	f8b3 3050 	ldrh.w	r3, [r3, #80]	; 0x50
 8009bd6:	b29b      	uxth	r3, r3
 8009bd8:	461a      	mov	r2, r3
 8009bda:	6bbb      	ldr	r3, [r7, #56]	; 0x38
 8009bdc:	4413      	add	r3, r2
 8009bde:	63bb      	str	r3, [r7, #56]	; 0x38
 8009be0:	f507 7384 	add.w	r3, r7, #264	; 0x108
 8009be4:	f5a3 7384 	sub.w	r3, r3, #264	; 0x108
 8009be8:	681b      	ldr	r3, [r3, #0]
 8009bea:	781b      	ldrb	r3, [r3, #0]
 8009bec:	00da      	lsls	r2, r3, #3
 8009bee:	6bbb      	ldr	r3, [r7, #56]	; 0x38
 8009bf0:	4413      	add	r3, r2
 8009bf2:	f203 4306 	addw	r3, r3, #1030	; 0x406
 8009bf6:	637b      	str	r3, [r7, #52]	; 0x34
 8009bf8:	6b7b      	ldr	r3, [r7, #52]	; 0x34
 8009bfa:	881b      	ldrh	r3, [r3, #0]
 8009bfc:	b29b      	uxth	r3, r3
 8009bfe:	f3c3 0309 	ubfx	r3, r3, #0, #10
 8009c02:	b29a      	uxth	r2, r3
 8009c04:	6b7b      	ldr	r3, [r7, #52]	; 0x34
 8009c06:	801a      	strh	r2, [r3, #0]
 8009c08:	f8d7 3104 	ldr.w	r3, [r7, #260]	; 0x104
 8009c0c:	2b3e      	cmp	r3, #62	; 0x3e
 8009c0e:	d921      	bls.n	8009c54 <USB_EPStartXfer+0x806>
 8009c10:	f8d7 3104 	ldr.w	r3, [r7, #260]	; 0x104
 8009c14:	095b      	lsrs	r3, r3, #5
 8009c16:	f8c7 30f4 	str.w	r3, [r7, #244]	; 0xf4
 8009c1a:	f8d7 3104 	ldr.w	r3, [r7, #260]	; 0x104
 8009c1e:	f003 031f 	and.w	r3, r3, #31
 8009c22:	2b00      	cmp	r3, #0
 8009c24:	d104      	bne.n	8009c30 <USB_EPStartXfer+0x7e2>
 8009c26:	f8d7 30f4 	ldr.w	r3, [r7, #244]	; 0xf4
 8009c2a:	3b01      	subs	r3, #1
 8009c2c:	f8c7 30f4 	str.w	r3, [r7, #244]	; 0xf4
 8009c30:	6b7b      	ldr	r3, [r7, #52]	; 0x34
 8009c32:	881b      	ldrh	r3, [r3, #0]
 8009c34:	b29a      	uxth	r2, r3
 8009c36:	f8d7 30f4 	ldr.w	r3, [r7, #244]	; 0xf4
 8009c3a:	b29b      	uxth	r3, r3
 8009c3c:	029b      	lsls	r3, r3, #10
 8009c3e:	b29b      	uxth	r3, r3
 8009c40:	4313      	orrs	r3, r2
 8009c42:	b29b      	uxth	r3, r3
 8009c44:	ea6f 4343 	mvn.w	r3, r3, lsl #17
 8009c48:	ea6f 4353 	mvn.w	r3, r3, lsr #17
 8009c4c:	b29a      	uxth	r2, r3
 8009c4e:	6b7b      	ldr	r3, [r7, #52]	; 0x34
 8009c50:	801a      	strh	r2, [r3, #0]
 8009c52:	e050      	b.n	8009cf6 <USB_EPStartXfer+0x8a8>
 8009c54:	f8d7 3104 	ldr.w	r3, [r7, #260]	; 0x104
 8009c58:	2b00      	cmp	r3, #0
 8009c5a:	d10a      	bne.n	8009c72 <USB_EPStartXfer+0x824>
 8009c5c:	6b7b      	ldr	r3, [r7, #52]	; 0x34
 8009c5e:	881b      	ldrh	r3, [r3, #0]
 8009c60:	b29b      	uxth	r3, r3
 8009c62:	ea6f 4343 	mvn.w	r3, r3, lsl #17
 8009c66:	ea6f 4353 	mvn.w	r3, r3, lsr #17
 8009c6a:	b29a      	uxth	r2, r3
 8009c6c:	6b7b      	ldr	r3, [r7, #52]	; 0x34
 8009c6e:	801a      	strh	r2, [r3, #0]
 8009c70:	e041      	b.n	8009cf6 <USB_EPStartXfer+0x8a8>
 8009c72:	f8d7 3104 	ldr.w	r3, [r7, #260]	; 0x104
 8009c76:	085b      	lsrs	r3, r3, #1
 8009c78:	f8c7 30f4 	str.w	r3, [r7, #244]	; 0xf4
 8009c7c:	f8d7 3104 	ldr.w	r3, [r7, #260]	; 0x104
 8009c80:	f003 0301 	and.w	r3, r3, #1
 8009c84:	2b00      	cmp	r3, #0
 8009c86:	d004      	beq.n	8009c92 <USB_EPStartXfer+0x844>
 8009c88:	f8d7 30f4 	ldr.w	r3, [r7, #244]	; 0xf4
 8009c8c:	3301      	adds	r3, #1
 8009c8e:	f8c7 30f4 	str.w	r3, [r7, #244]	; 0xf4
 8009c92:	6b7b      	ldr	r3, [r7, #52]	; 0x34
 8009c94:	881b      	ldrh	r3, [r3, #0]
 8009c96:	b29a      	uxth	r2, r3
 8009c98:	f8d7 30f4 	ldr.w	r3, [r7, #244]	; 0xf4
 8009c9c:	b29b      	uxth	r3, r3
 8009c9e:	029b      	lsls	r3, r3, #10
 8009ca0:	b29b      	uxth	r3, r3
 8009ca2:	4313      	orrs	r3, r2
 8009ca4:	b29a      	uxth	r2, r3
 8009ca6:	6b7b      	ldr	r3, [r7, #52]	; 0x34
 8009ca8:	801a      	strh	r2, [r3, #0]
 8009caa:	e024      	b.n	8009cf6 <USB_EPStartXfer+0x8a8>
 8009cac:	f507 7384 	add.w	r3, r7, #264	; 0x108
 8009cb0:	f5a3 7384 	sub.w	r3, r3, #264	; 0x108
 8009cb4:	681b      	ldr	r3, [r3, #0]
 8009cb6:	785b      	ldrb	r3, [r3, #1]
 8009cb8:	2b01      	cmp	r3, #1
 8009cba:	d11c      	bne.n	8009cf6 <USB_EPStartXfer+0x8a8>
 8009cbc:	f507 7384 	add.w	r3, r7, #264	; 0x108
 8009cc0:	f5a3 7382 	sub.w	r3, r3, #260	; 0x104
 8009cc4:	681b      	ldr	r3, [r3, #0]
 8009cc6:	f8b3 3050 	ldrh.w	r3, [r3, #80]	; 0x50
 8009cca:	b29b      	uxth	r3, r3
 8009ccc:	461a      	mov	r2, r3
 8009cce:	6c3b      	ldr	r3, [r7, #64]	; 0x40
 8009cd0:	4413      	add	r3, r2
 8009cd2:	643b      	str	r3, [r7, #64]	; 0x40
 8009cd4:	f507 7384 	add.w	r3, r7, #264	; 0x108
 8009cd8:	f5a3 7384 	sub.w	r3, r3, #264	; 0x108
 8009cdc:	681b      	ldr	r3, [r3, #0]
 8009cde:	781b      	ldrb	r3, [r3, #0]
 8009ce0:	00da      	lsls	r2, r3, #3
 8009ce2:	6c3b      	ldr	r3, [r7, #64]	; 0x40
 8009ce4:	4413      	add	r3, r2
 8009ce6:	f203 4306 	addw	r3, r3, #1030	; 0x406
 8009cea:	63fb      	str	r3, [r7, #60]	; 0x3c
 8009cec:	f8d7 3104 	ldr.w	r3, [r7, #260]	; 0x104
 8009cf0:	b29a      	uxth	r2, r3
 8009cf2:	6bfb      	ldr	r3, [r7, #60]	; 0x3c
 8009cf4:	801a      	strh	r2, [r3, #0]
 8009cf6:	f507 7384 	add.w	r3, r7, #264	; 0x108
 8009cfa:	f5a3 7384 	sub.w	r3, r3, #264	; 0x108
 8009cfe:	681b      	ldr	r3, [r3, #0]
 8009d00:	895b      	ldrh	r3, [r3, #10]
 8009d02:	f8a7 3076 	strh.w	r3, [r7, #118]	; 0x76
 8009d06:	f507 7384 	add.w	r3, r7, #264	; 0x108
 8009d0a:	f5a3 7384 	sub.w	r3, r3, #264	; 0x108
 8009d0e:	681b      	ldr	r3, [r3, #0]
 8009d10:	6959      	ldr	r1, [r3, #20]
 8009d12:	f8d7 3104 	ldr.w	r3, [r7, #260]	; 0x104
 8009d16:	b29b      	uxth	r3, r3
 8009d18:	f8b7 2076 	ldrh.w	r2, [r7, #118]	; 0x76
 8009d1c:	f507 7084 	add.w	r0, r7, #264	; 0x108
 8009d20:	f5a0 7082 	sub.w	r0, r0, #260	; 0x104
 8009d24:	6800      	ldr	r0, [r0, #0]
 8009d26:	f001 f87d 	bl	800ae24 <USB_WritePMA>
 8009d2a:	e227      	b.n	800a17c <USB_EPStartXfer+0xd2e>
 8009d2c:	f507 7384 	add.w	r3, r7, #264	; 0x108
 8009d30:	f5a3 7384 	sub.w	r3, r3, #264	; 0x108
 8009d34:	681b      	ldr	r3, [r3, #0]
 8009d36:	6a1b      	ldr	r3, [r3, #32]
 8009d38:	f8c7 3104 	str.w	r3, [r7, #260]	; 0x104
 8009d3c:	f507 7384 	add.w	r3, r7, #264	; 0x108
 8009d40:	f5a3 7382 	sub.w	r3, r3, #260	; 0x104
 8009d44:	681a      	ldr	r2, [r3, #0]
 8009d46:	f507 7384 	add.w	r3, r7, #264	; 0x108
 8009d4a:	f5a3 7384 	sub.w	r3, r3, #264	; 0x108
 8009d4e:	681b      	ldr	r3, [r3, #0]
 8009d50:	781b      	ldrb	r3, [r3, #0]
 8009d52:	009b      	lsls	r3, r3, #2
 8009d54:	4413      	add	r3, r2
 8009d56:	881b      	ldrh	r3, [r3, #0]
 8009d58:	b29b      	uxth	r3, r3
 8009d5a:	f423 43e2 	bic.w	r3, r3, #28928	; 0x7100
 8009d5e:	f023 0370 	bic.w	r3, r3, #112	; 0x70
 8009d62:	f8a7 3062 	strh.w	r3, [r7, #98]	; 0x62
 8009d66:	f507 7384 	add.w	r3, r7, #264	; 0x108
 8009d6a:	f5a3 7382 	sub.w	r3, r3, #260	; 0x104
 8009d6e:	681a      	ldr	r2, [r3, #0]
 8009d70:	f507 7384 	add.w	r3, r7, #264	; 0x108
 8009d74:	f5a3 7384 	sub.w	r3, r3, #264	; 0x108
 8009d78:	681b      	ldr	r3, [r3, #0]
 8009d7a:	781b      	ldrb	r3, [r3, #0]
 8009d7c:	009b      	lsls	r3, r3, #2
 8009d7e:	441a      	add	r2, r3
 8009d80:	f8b7 3062 	ldrh.w	r3, [r7, #98]	; 0x62
 8009d84:	f043 437f 	orr.w	r3, r3, #4278190080	; 0xff000000
 8009d88:	f443 037f 	orr.w	r3, r3, #16711680	; 0xff0000
 8009d8c:	f443 4300 	orr.w	r3, r3, #32768	; 0x8000
 8009d90:	f043 0380 	orr.w	r3, r3, #128	; 0x80
 8009d94:	b29b      	uxth	r3, r3
 8009d96:	8013      	strh	r3, [r2, #0]
 8009d98:	f507 7384 	add.w	r3, r7, #264	; 0x108
 8009d9c:	f5a3 7382 	sub.w	r3, r3, #260	; 0x104
 8009da0:	681b      	ldr	r3, [r3, #0]
 8009da2:	65fb      	str	r3, [r7, #92]	; 0x5c
 8009da4:	f507 7384 	add.w	r3, r7, #264	; 0x108
 8009da8:	f5a3 7382 	sub.w	r3, r3, #260	; 0x104
 8009dac:	681b      	ldr	r3, [r3, #0]
 8009dae:	f8b3 3050 	ldrh.w	r3, [r3, #80]	; 0x50
 8009db2:	b29b      	uxth	r3, r3
 8009db4:	461a      	mov	r2, r3
 8009db6:	6dfb      	ldr	r3, [r7, #92]	; 0x5c
 8009db8:	4413      	add	r3, r2
 8009dba:	65fb      	str	r3, [r7, #92]	; 0x5c
 8009dbc:	f507 7384 	add.w	r3, r7, #264	; 0x108
 8009dc0:	f5a3 7384 	sub.w	r3, r3, #264	; 0x108
 8009dc4:	681b      	ldr	r3, [r3, #0]
 8009dc6:	781b      	ldrb	r3, [r3, #0]
 8009dc8:	00da      	lsls	r2, r3, #3
 8009dca:	6dfb      	ldr	r3, [r7, #92]	; 0x5c
 8009dcc:	4413      	add	r3, r2
 8009dce:	f203 4302 	addw	r3, r3, #1026	; 0x402
 8009dd2:	65bb      	str	r3, [r7, #88]	; 0x58
 8009dd4:	f8d7 3104 	ldr.w	r3, [r7, #260]	; 0x104
 8009dd8:	b29a      	uxth	r2, r3
 8009dda:	6dbb      	ldr	r3, [r7, #88]	; 0x58
 8009ddc:	801a      	strh	r2, [r3, #0]
 8009dde:	f507 7384 	add.w	r3, r7, #264	; 0x108
 8009de2:	f5a3 7384 	sub.w	r3, r3, #264	; 0x108
 8009de6:	681b      	ldr	r3, [r3, #0]
 8009de8:	891b      	ldrh	r3, [r3, #8]
 8009dea:	f8a7 3076 	strh.w	r3, [r7, #118]	; 0x76
 8009dee:	f507 7384 	add.w	r3, r7, #264	; 0x108
 8009df2:	f5a3 7384 	sub.w	r3, r3, #264	; 0x108
 8009df6:	681b      	ldr	r3, [r3, #0]
 8009df8:	6959      	ldr	r1, [r3, #20]
 8009dfa:	f8d7 3104 	ldr.w	r3, [r7, #260]	; 0x104
 8009dfe:	b29b      	uxth	r3, r3
 8009e00:	f8b7 2076 	ldrh.w	r2, [r7, #118]	; 0x76
 8009e04:	f507 7084 	add.w	r0, r7, #264	; 0x108
 8009e08:	f5a0 7082 	sub.w	r0, r0, #260	; 0x104
 8009e0c:	6800      	ldr	r0, [r0, #0]
 8009e0e:	f001 f809 	bl	800ae24 <USB_WritePMA>
 8009e12:	e1b3      	b.n	800a17c <USB_EPStartXfer+0xd2e>
 8009e14:	f507 7384 	add.w	r3, r7, #264	; 0x108
 8009e18:	f5a3 7384 	sub.w	r3, r3, #264	; 0x108
 8009e1c:	681b      	ldr	r3, [r3, #0]
 8009e1e:	6a1a      	ldr	r2, [r3, #32]
 8009e20:	f8d7 3104 	ldr.w	r3, [r7, #260]	; 0x104
 8009e24:	1ad2      	subs	r2, r2, r3
 8009e26:	f507 7384 	add.w	r3, r7, #264	; 0x108
 8009e2a:	f5a3 7384 	sub.w	r3, r3, #264	; 0x108
 8009e2e:	681b      	ldr	r3, [r3, #0]
 8009e30:	621a      	str	r2, [r3, #32]
 8009e32:	f507 7384 	add.w	r3, r7, #264	; 0x108
 8009e36:	f5a3 7382 	sub.w	r3, r3, #260	; 0x104
 8009e3a:	681a      	ldr	r2, [r3, #0]
 8009e3c:	f507 7384 	add.w	r3, r7, #264	; 0x108
 8009e40:	f5a3 7384 	sub.w	r3, r3, #264	; 0x108
 8009e44:	681b      	ldr	r3, [r3, #0]
 8009e46:	781b      	ldrb	r3, [r3, #0]
 8009e48:	009b      	lsls	r3, r3, #2
 8009e4a:	4413      	add	r3, r2
 8009e4c:	881b      	ldrh	r3, [r3, #0]
 8009e4e:	b29b      	uxth	r3, r3
 8009e50:	f003 0340 	and.w	r3, r3, #64	; 0x40
 8009e54:	2b00      	cmp	r3, #0
 8009e56:	f000 80c6 	beq.w	8009fe6 <USB_EPStartXfer+0xb98>
 8009e5a:	f507 7384 	add.w	r3, r7, #264	; 0x108
 8009e5e:	f5a3 7382 	sub.w	r3, r3, #260	; 0x104
 8009e62:	681b      	ldr	r3, [r3, #0]
 8009e64:	673b      	str	r3, [r7, #112]	; 0x70
 8009e66:	f507 7384 	add.w	r3, r7, #264	; 0x108
 8009e6a:	f5a3 7384 	sub.w	r3, r3, #264	; 0x108
 8009e6e:	681b      	ldr	r3, [r3, #0]
 8009e70:	785b      	ldrb	r3, [r3, #1]
 8009e72:	2b00      	cmp	r3, #0
 8009e74:	d177      	bne.n	8009f66 <USB_EPStartXfer+0xb18>
 8009e76:	f507 7384 	add.w	r3, r7, #264	; 0x108
 8009e7a:	f5a3 7382 	sub.w	r3, r3, #260	; 0x104
 8009e7e:	681b      	ldr	r3, [r3, #0]
 8009e80:	66bb      	str	r3, [r7, #104]	; 0x68
 8009e82:	f507 7384 	add.w	r3, r7, #264	; 0x108
 8009e86:	f5a3 7382 	sub.w	r3, r3, #260	; 0x104
 8009e8a:	681b      	ldr	r3, [r3, #0]
 8009e8c:	f8b3 3050 	ldrh.w	r3, [r3, #80]	; 0x50
 8009e90:	b29b      	uxth	r3, r3
 8009e92:	461a      	mov	r2, r3
 8009e94:	6ebb      	ldr	r3, [r7, #104]	; 0x68
 8009e96:	4413      	add	r3, r2
 8009e98:	66bb      	str	r3, [r7, #104]	; 0x68
 8009e9a:	f507 7384 	add.w	r3, r7, #264	; 0x108
 8009e9e:	f5a3 7384 	sub.w	r3, r3, #264	; 0x108
 8009ea2:	681b      	ldr	r3, [r3, #0]
 8009ea4:	781b      	ldrb	r3, [r3, #0]
 8009ea6:	00da      	lsls	r2, r3, #3
 8009ea8:	6ebb      	ldr	r3, [r7, #104]	; 0x68
 8009eaa:	4413      	add	r3, r2
 8009eac:	f203 4306 	addw	r3, r3, #1030	; 0x406
 8009eb0:	667b      	str	r3, [r7, #100]	; 0x64
 8009eb2:	6e7b      	ldr	r3, [r7, #100]	; 0x64
 8009eb4:	881b      	ldrh	r3, [r3, #0]
 8009eb6:	b29b      	uxth	r3, r3
 8009eb8:	f3c3 0309 	ubfx	r3, r3, #0, #10
 8009ebc:	b29a      	uxth	r2, r3
 8009ebe:	6e7b      	ldr	r3, [r7, #100]	; 0x64
 8009ec0:	801a      	strh	r2, [r3, #0]
 8009ec2:	f8d7 3104 	ldr.w	r3, [r7, #260]	; 0x104
 8009ec6:	2b3e      	cmp	r3, #62	; 0x3e
 8009ec8:	d921      	bls.n	8009f0e <USB_EPStartXfer+0xac0>
 8009eca:	f8d7 3104 	ldr.w	r3, [r7, #260]	; 0x104
 8009ece:	095b      	lsrs	r3, r3, #5
 8009ed0:	f8c7 30f0 	str.w	r3, [r7, #240]	; 0xf0
 8009ed4:	f8d7 3104 	ldr.w	r3, [r7, #260]	; 0x104
 8009ed8:	f003 031f 	and.w	r3, r3, #31
 8009edc:	2b00      	cmp	r3, #0
 8009ede:	d104      	bne.n	8009eea <USB_EPStartXfer+0xa9c>
 8009ee0:	f8d7 30f0 	ldr.w	r3, [r7, #240]	; 0xf0
 8009ee4:	3b01      	subs	r3, #1
 8009ee6:	f8c7 30f0 	str.w	r3, [r7, #240]	; 0xf0
 8009eea:	6e7b      	ldr	r3, [r7, #100]	; 0x64
 8009eec:	881b      	ldrh	r3, [r3, #0]
 8009eee:	b29a      	uxth	r2, r3
 8009ef0:	f8d7 30f0 	ldr.w	r3, [r7, #240]	; 0xf0
 8009ef4:	b29b      	uxth	r3, r3
 8009ef6:	029b      	lsls	r3, r3, #10
 8009ef8:	b29b      	uxth	r3, r3
 8009efa:	4313      	orrs	r3, r2
 8009efc:	b29b      	uxth	r3, r3
 8009efe:	ea6f 4343 	mvn.w	r3, r3, lsl #17
 8009f02:	ea6f 4353 	mvn.w	r3, r3, lsr #17
 8009f06:	b29a      	uxth	r2, r3
 8009f08:	6e7b      	ldr	r3, [r7, #100]	; 0x64
 8009f0a:	801a      	strh	r2, [r3, #0]
 8009f0c:	e050      	b.n	8009fb0 <USB_EPStartXfer+0xb62>
 8009f0e:	f8d7 3104 	ldr.w	r3, [r7, #260]	; 0x104
 8009f12:	2b00      	cmp	r3, #0
 8009f14:	d10a      	bne.n	8009f2c <USB_EPStartXfer+0xade>
 8009f16:	6e7b      	ldr	r3, [r7, #100]	; 0x64
 8009f18:	881b      	ldrh	r3, [r3, #0]
 8009f1a:	b29b      	uxth	r3, r3
 8009f1c:	ea6f 4343 	mvn.w	r3, r3, lsl #17
 8009f20:	ea6f 4353 	mvn.w	r3, r3, lsr #17
 8009f24:	b29a      	uxth	r2, r3
 8009f26:	6e7b      	ldr	r3, [r7, #100]	; 0x64
 8009f28:	801a      	strh	r2, [r3, #0]
 8009f2a:	e041      	b.n	8009fb0 <USB_EPStartXfer+0xb62>
 8009f2c:	f8d7 3104 	ldr.w	r3, [r7, #260]	; 0x104
 8009f30:	085b      	lsrs	r3, r3, #1
 8009f32:	f8c7 30f0 	str.w	r3, [r7, #240]	; 0xf0
 8009f36:	f8d7 3104 	ldr.w	r3, [r7, #260]	; 0x104
 8009f3a:	f003 0301 	and.w	r3, r3, #1
 8009f3e:	2b00      	cmp	r3, #0
 8009f40:	d004      	beq.n	8009f4c <USB_EPStartXfer+0xafe>
 8009f42:	f8d7 30f0 	ldr.w	r3, [r7, #240]	; 0xf0
 8009f46:	3301      	adds	r3, #1
 8009f48:	f8c7 30f0 	str.w	r3, [r7, #240]	; 0xf0
 8009f4c:	6e7b      	ldr	r3, [r7, #100]	; 0x64
 8009f4e:	881b      	ldrh	r3, [r3, #0]
 8009f50:	b29a      	uxth	r2, r3
 8009f52:	f8d7 30f0 	ldr.w	r3, [r7, #240]	; 0xf0
 8009f56:	b29b      	uxth	r3, r3
 8009f58:	029b      	lsls	r3, r3, #10
 8009f5a:	b29b      	uxth	r3, r3
 8009f5c:	4313      	orrs	r3, r2
 8009f5e:	b29a      	uxth	r2, r3
 8009f60:	6e7b      	ldr	r3, [r7, #100]	; 0x64
 8009f62:	801a      	strh	r2, [r3, #0]
 8009f64:	e024      	b.n	8009fb0 <USB_EPStartXfer+0xb62>
 8009f66:	f507 7384 	add.w	r3, r7, #264	; 0x108
 8009f6a:	f5a3 7384 	sub.w	r3, r3, #264	; 0x108
 8009f6e:	681b      	ldr	r3, [r3, #0]
 8009f70:	785b      	ldrb	r3, [r3, #1]
 8009f72:	2b01      	cmp	r3, #1
 8009f74:	d11c      	bne.n	8009fb0 <USB_EPStartXfer+0xb62>
 8009f76:	f507 7384 	add.w	r3, r7, #264	; 0x108
 8009f7a:	f5a3 7382 	sub.w	r3, r3, #260	; 0x104
 8009f7e:	681b      	ldr	r3, [r3, #0]
 8009f80:	f8b3 3050 	ldrh.w	r3, [r3, #80]	; 0x50
 8009f84:	b29b      	uxth	r3, r3
 8009f86:	461a      	mov	r2, r3
 8009f88:	6f3b      	ldr	r3, [r7, #112]	; 0x70
 8009f8a:	4413      	add	r3, r2
 8009f8c:	673b      	str	r3, [r7, #112]	; 0x70
 8009f8e:	f507 7384 	add.w	r3, r7, #264	; 0x108
 8009f92:	f5a3 7384 	sub.w	r3, r3, #264	; 0x108
 8009f96:	681b      	ldr	r3, [r3, #0]
 8009f98:	781b      	ldrb	r3, [r3, #0]
 8009f9a:	00da      	lsls	r2, r3, #3
 8009f9c:	6f3b      	ldr	r3, [r7, #112]	; 0x70
 8009f9e:	4413      	add	r3, r2
 8009fa0:	f203 4306 	addw	r3, r3, #1030	; 0x406
 8009fa4:	66fb      	str	r3, [r7, #108]	; 0x6c
 8009fa6:	f8d7 3104 	ldr.w	r3, [r7, #260]	; 0x104
 8009faa:	b29a      	uxth	r2, r3
 8009fac:	6efb      	ldr	r3, [r7, #108]	; 0x6c
 8009fae:	801a      	strh	r2, [r3, #0]
 8009fb0:	f507 7384 	add.w	r3, r7, #264	; 0x108
 8009fb4:	f5a3 7384 	sub.w	r3, r3, #264	; 0x108
 8009fb8:	681b      	ldr	r3, [r3, #0]
 8009fba:	895b      	ldrh	r3, [r3, #10]
 8009fbc:	f8a7 3076 	strh.w	r3, [r7, #118]	; 0x76
 8009fc0:	f507 7384 	add.w	r3, r7, #264	; 0x108
 8009fc4:	f5a3 7384 	sub.w	r3, r3, #264	; 0x108
 8009fc8:	681b      	ldr	r3, [r3, #0]
 8009fca:	6959      	ldr	r1, [r3, #20]
 8009fcc:	f8d7 3104 	ldr.w	r3, [r7, #260]	; 0x104
 8009fd0:	b29b      	uxth	r3, r3
 8009fd2:	f8b7 2076 	ldrh.w	r2, [r7, #118]	; 0x76
 8009fd6:	f507 7084 	add.w	r0, r7, #264	; 0x108
 8009fda:	f5a0 7082 	sub.w	r0, r0, #260	; 0x104
 8009fde:	6800      	ldr	r0, [r0, #0]
 8009fe0:	f000 ff20 	bl	800ae24 <USB_WritePMA>
 8009fe4:	e0ca      	b.n	800a17c <USB_EPStartXfer+0xd2e>
 8009fe6:	f507 7384 	add.w	r3, r7, #264	; 0x108
 8009fea:	f5a3 7384 	sub.w	r3, r3, #264	; 0x108
 8009fee:	681b      	ldr	r3, [r3, #0]
 8009ff0:	785b      	ldrb	r3, [r3, #1]
 8009ff2:	2b00      	cmp	r3, #0
 8009ff4:	d177      	bne.n	800a0e6 <USB_EPStartXfer+0xc98>
 8009ff6:	f507 7384 	add.w	r3, r7, #264	; 0x108
 8009ffa:	f5a3 7382 	sub.w	r3, r3, #260	; 0x104
 8009ffe:	681b      	ldr	r3, [r3, #0]
 800a000:	67fb      	str	r3, [r7, #124]	; 0x7c
 800a002:	f507 7384 	add.w	r3, r7, #264	; 0x108
 800a006:	f5a3 7382 	sub.w	r3, r3, #260	; 0x104
 800a00a:	681b      	ldr	r3, [r3, #0]
 800a00c:	f8b3 3050 	ldrh.w	r3, [r3, #80]	; 0x50
 800a010:	b29b      	uxth	r3, r3
 800a012:	461a      	mov	r2, r3
 800a014:	6ffb      	ldr	r3, [r7, #124]	; 0x7c
 800a016:	4413      	add	r3, r2
 800a018:	67fb      	str	r3, [r7, #124]	; 0x7c
 800a01a:	f507 7384 	add.w	r3, r7, #264	; 0x108
 800a01e:	f5a3 7384 	sub.w	r3, r3, #264	; 0x108
 800a022:	681b      	ldr	r3, [r3, #0]
 800a024:	781b      	ldrb	r3, [r3, #0]
 800a026:	00da      	lsls	r2, r3, #3
 800a028:	6ffb      	ldr	r3, [r7, #124]	; 0x7c
 800a02a:	4413      	add	r3, r2
 800a02c:	f203 4302 	addw	r3, r3, #1026	; 0x402
 800a030:	67bb      	str	r3, [r7, #120]	; 0x78
 800a032:	6fbb      	ldr	r3, [r7, #120]	; 0x78
 800a034:	881b      	ldrh	r3, [r3, #0]
 800a036:	b29b      	uxth	r3, r3
 800a038:	f3c3 0309 	ubfx	r3, r3, #0, #10
 800a03c:	b29a      	uxth	r2, r3
 800a03e:	6fbb      	ldr	r3, [r7, #120]	; 0x78
 800a040:	801a      	strh	r2, [r3, #0]
 800a042:	f8d7 3104 	ldr.w	r3, [r7, #260]	; 0x104
 800a046:	2b3e      	cmp	r3, #62	; 0x3e
 800a048:	d921      	bls.n	800a08e <USB_EPStartXfer+0xc40>
 800a04a:	f8d7 3104 	ldr.w	r3, [r7, #260]	; 0x104
 800a04e:	095b      	lsrs	r3, r3, #5
 800a050:	f8c7 30ec 	str.w	r3, [r7, #236]	; 0xec
 800a054:	f8d7 3104 	ldr.w	r3, [r7, #260]	; 0x104
 800a058:	f003 031f 	and.w	r3, r3, #31
 800a05c:	2b00      	cmp	r3, #0
 800a05e:	d104      	bne.n	800a06a <USB_EPStartXfer+0xc1c>
 800a060:	f8d7 30ec 	ldr.w	r3, [r7, #236]	; 0xec
 800a064:	3b01      	subs	r3, #1
 800a066:	f8c7 30ec 	str.w	r3, [r7, #236]	; 0xec
 800a06a:	6fbb      	ldr	r3, [r7, #120]	; 0x78
 800a06c:	881b      	ldrh	r3, [r3, #0]
 800a06e:	b29a      	uxth	r2, r3
 800a070:	f8d7 30ec 	ldr.w	r3, [r7, #236]	; 0xec
 800a074:	b29b      	uxth	r3, r3
 800a076:	029b      	lsls	r3, r3, #10
 800a078:	b29b      	uxth	r3, r3
 800a07a:	4313      	orrs	r3, r2
 800a07c:	b29b      	uxth	r3, r3
 800a07e:	ea6f 4343 	mvn.w	r3, r3, lsl #17
 800a082:	ea6f 4353 	mvn.w	r3, r3, lsr #17
 800a086:	b29a      	uxth	r2, r3
 800a088:	6fbb      	ldr	r3, [r7, #120]	; 0x78
 800a08a:	801a      	strh	r2, [r3, #0]
 800a08c:	e05c      	b.n	800a148 <USB_EPStartXfer+0xcfa>
 800a08e:	f8d7 3104 	ldr.w	r3, [r7, #260]	; 0x104
 800a092:	2b00      	cmp	r3, #0
 800a094:	d10a      	bne.n	800a0ac <USB_EPStartXfer+0xc5e>
 800a096:	6fbb      	ldr	r3, [r7, #120]	; 0x78
 800a098:	881b      	ldrh	r3, [r3, #0]
 800a09a:	b29b      	uxth	r3, r3
 800a09c:	ea6f 4343 	mvn.w	r3, r3, lsl #17
 800a0a0:	ea6f 4353 	mvn.w	r3, r3, lsr #17
 800a0a4:	b29a      	uxth	r2, r3
 800a0a6:	6fbb      	ldr	r3, [r7, #120]	; 0x78
 800a0a8:	801a      	strh	r2, [r3, #0]
 800a0aa:	e04d      	b.n	800a148 <USB_EPStartXfer+0xcfa>
 800a0ac:	f8d7 3104 	ldr.w	r3, [r7, #260]	; 0x104
 800a0b0:	085b      	lsrs	r3, r3, #1
 800a0b2:	f8c7 30ec 	str.w	r3, [r7, #236]	; 0xec
 800a0b6:	f8d7 3104 	ldr.w	r3, [r7, #260]	; 0x104
 800a0ba:	f003 0301 	and.w	r3, r3, #1
 800a0be:	2b00      	cmp	r3, #0
 800a0c0:	d004      	beq.n	800a0cc <USB_EPStartXfer+0xc7e>
 800a0c2:	f8d7 30ec 	ldr.w	r3, [r7, #236]	; 0xec
 800a0c6:	3301      	adds	r3, #1
 800a0c8:	f8c7 30ec 	str.w	r3, [r7, #236]	; 0xec
 800a0cc:	6fbb      	ldr	r3, [r7, #120]	; 0x78
 800a0ce:	881b      	ldrh	r3, [r3, #0]
 800a0d0:	b29a      	uxth	r2, r3
 800a0d2:	f8d7 30ec 	ldr.w	r3, [r7, #236]	; 0xec
 800a0d6:	b29b      	uxth	r3, r3
 800a0d8:	029b      	lsls	r3, r3, #10
 800a0da:	b29b      	uxth	r3, r3
 800a0dc:	4313      	orrs	r3, r2
 800a0de:	b29a      	uxth	r2, r3
 800a0e0:	6fbb      	ldr	r3, [r7, #120]	; 0x78
 800a0e2:	801a      	strh	r2, [r3, #0]
 800a0e4:	e030      	b.n	800a148 <USB_EPStartXfer+0xcfa>
 800a0e6:	f507 7384 	add.w	r3, r7, #264	; 0x108
 800a0ea:	f5a3 7384 	sub.w	r3, r3, #264	; 0x108
 800a0ee:	681b      	ldr	r3, [r3, #0]
 800a0f0:	785b      	ldrb	r3, [r3, #1]
 800a0f2:	2b01      	cmp	r3, #1
 800a0f4:	d128      	bne.n	800a148 <USB_EPStartXfer+0xcfa>
 800a0f6:	f507 7384 	add.w	r3, r7, #264	; 0x108
 800a0fa:	f5a3 7382 	sub.w	r3, r3, #260	; 0x104
 800a0fe:	681b      	ldr	r3, [r3, #0]
 800a100:	f8c7 3084 	str.w	r3, [r7, #132]	; 0x84
 800a104:	f507 7384 	add.w	r3, r7, #264	; 0x108
 800a108:	f5a3 7382 	sub.w	r3, r3, #260	; 0x104
 800a10c:	681b      	ldr	r3, [r3, #0]
 800a10e:	f8b3 3050 	ldrh.w	r3, [r3, #80]	; 0x50
 800a112:	b29b      	uxth	r3, r3
 800a114:	461a      	mov	r2, r3
 800a116:	f8d7 3084 	ldr.w	r3, [r7, #132]	; 0x84
 800a11a:	4413      	add	r3, r2
 800a11c:	f8c7 3084 	str.w	r3, [r7, #132]	; 0x84
 800a120:	f507 7384 	add.w	r3, r7, #264	; 0x108
 800a124:	f5a3 7384 	sub.w	r3, r3, #264	; 0x108
 800a128:	681b      	ldr	r3, [r3, #0]
 800a12a:	781b      	ldrb	r3, [r3, #0]
 800a12c:	00da      	lsls	r2, r3, #3
 800a12e:	f8d7 3084 	ldr.w	r3, [r7, #132]	; 0x84
 800a132:	4413      	add	r3, r2
 800a134:	f203 4302 	addw	r3, r3, #1026	; 0x402
 800a138:	f8c7 3080 	str.w	r3, [r7, #128]	; 0x80
 800a13c:	f8d7 3104 	ldr.w	r3, [r7, #260]	; 0x104
 800a140:	b29a      	uxth	r2, r3
 800a142:	f8d7 3080 	ldr.w	r3, [r7, #128]	; 0x80
 800a146:	801a      	strh	r2, [r3, #0]
 800a148:	f507 7384 	add.w	r3, r7, #264	; 0x108
 800a14c:	f5a3 7384 	sub.w	r3, r3, #264	; 0x108
 800a150:	681b      	ldr	r3, [r3, #0]
 800a152:	891b      	ldrh	r3, [r3, #8]
 800a154:	f8a7 3076 	strh.w	r3, [r7, #118]	; 0x76
 800a158:	f507 7384 	add.w	r3, r7, #264	; 0x108
 800a15c:	f5a3 7384 	sub.w	r3, r3, #264	; 0x108
 800a160:	681b      	ldr	r3, [r3, #0]
 800a162:	6959      	ldr	r1, [r3, #20]
 800a164:	f8d7 3104 	ldr.w	r3, [r7, #260]	; 0x104
 800a168:	b29b      	uxth	r3, r3
 800a16a:	f8b7 2076 	ldrh.w	r2, [r7, #118]	; 0x76
 800a16e:	f507 7084 	add.w	r0, r7, #264	; 0x108
 800a172:	f5a0 7082 	sub.w	r0, r0, #260	; 0x104
 800a176:	6800      	ldr	r0, [r0, #0]
 800a178:	f000 fe54 	bl	800ae24 <USB_WritePMA>
 800a17c:	f507 7384 	add.w	r3, r7, #264	; 0x108
 800a180:	f5a3 7382 	sub.w	r3, r3, #260	; 0x104
 800a184:	681a      	ldr	r2, [r3, #0]
 800a186:	f507 7384 	add.w	r3, r7, #264	; 0x108
 800a18a:	f5a3 7384 	sub.w	r3, r3, #264	; 0x108
 800a18e:	681b      	ldr	r3, [r3, #0]
 800a190:	781b      	ldrb	r3, [r3, #0]
 800a192:	009b      	lsls	r3, r3, #2
 800a194:	4413      	add	r3, r2
 800a196:	881b      	ldrh	r3, [r3, #0]
 800a198:	b29b      	uxth	r3, r3
 800a19a:	f423 43e0 	bic.w	r3, r3, #28672	; 0x7000
 800a19e:	f023 0340 	bic.w	r3, r3, #64	; 0x40
 800a1a2:	817b      	strh	r3, [r7, #10]
 800a1a4:	897b      	ldrh	r3, [r7, #10]
 800a1a6:	f083 0310 	eor.w	r3, r3, #16
 800a1aa:	817b      	strh	r3, [r7, #10]
 800a1ac:	897b      	ldrh	r3, [r7, #10]
 800a1ae:	f083 0320 	eor.w	r3, r3, #32
 800a1b2:	817b      	strh	r3, [r7, #10]
 800a1b4:	f507 7384 	add.w	r3, r7, #264	; 0x108
 800a1b8:	f5a3 7382 	sub.w	r3, r3, #260	; 0x104
 800a1bc:	681a      	ldr	r2, [r3, #0]
 800a1be:	f507 7384 	add.w	r3, r7, #264	; 0x108
 800a1c2:	f5a3 7384 	sub.w	r3, r3, #264	; 0x108
 800a1c6:	681b      	ldr	r3, [r3, #0]
 800a1c8:	781b      	ldrb	r3, [r3, #0]
 800a1ca:	009b      	lsls	r3, r3, #2
 800a1cc:	441a      	add	r2, r3
 800a1ce:	897b      	ldrh	r3, [r7, #10]
 800a1d0:	f043 437f 	orr.w	r3, r3, #4278190080	; 0xff000000
 800a1d4:	f443 037f 	orr.w	r3, r3, #16711680	; 0xff0000
 800a1d8:	f443 4300 	orr.w	r3, r3, #32768	; 0x8000
 800a1dc:	f043 0380 	orr.w	r3, r3, #128	; 0x80
 800a1e0:	b29b      	uxth	r3, r3
 800a1e2:	8013      	strh	r3, [r2, #0]
 800a1e4:	f000 bcde 	b.w	800aba4 <USB_EPStartXfer+0x1756>
 800a1e8:	f507 7384 	add.w	r3, r7, #264	; 0x108
 800a1ec:	f5a3 7384 	sub.w	r3, r3, #264	; 0x108
 800a1f0:	681b      	ldr	r3, [r3, #0]
 800a1f2:	7b1b      	ldrb	r3, [r3, #12]
 800a1f4:	2b00      	cmp	r3, #0
 800a1f6:	f040 80bb 	bne.w	800a370 <USB_EPStartXfer+0xf22>
 800a1fa:	f507 7384 	add.w	r3, r7, #264	; 0x108
 800a1fe:	f5a3 7384 	sub.w	r3, r3, #264	; 0x108
 800a202:	681b      	ldr	r3, [r3, #0]
 800a204:	699a      	ldr	r2, [r3, #24]
 800a206:	f507 7384 	add.w	r3, r7, #264	; 0x108
 800a20a:	f5a3 7384 	sub.w	r3, r3, #264	; 0x108
 800a20e:	681b      	ldr	r3, [r3, #0]
 800a210:	691b      	ldr	r3, [r3, #16]
 800a212:	429a      	cmp	r2, r3
 800a214:	d917      	bls.n	800a246 <USB_EPStartXfer+0xdf8>
 800a216:	f507 7384 	add.w	r3, r7, #264	; 0x108
 800a21a:	f5a3 7384 	sub.w	r3, r3, #264	; 0x108
 800a21e:	681b      	ldr	r3, [r3, #0]
 800a220:	691b      	ldr	r3, [r3, #16]
 800a222:	f8c7 3104 	str.w	r3, [r7, #260]	; 0x104
 800a226:	f507 7384 	add.w	r3, r7, #264	; 0x108
 800a22a:	f5a3 7384 	sub.w	r3, r3, #264	; 0x108
 800a22e:	681b      	ldr	r3, [r3, #0]
 800a230:	699a      	ldr	r2, [r3, #24]
 800a232:	f8d7 3104 	ldr.w	r3, [r7, #260]	; 0x104
 800a236:	1ad2      	subs	r2, r2, r3
 800a238:	f507 7384 	add.w	r3, r7, #264	; 0x108
 800a23c:	f5a3 7384 	sub.w	r3, r3, #264	; 0x108
 800a240:	681b      	ldr	r3, [r3, #0]
 800a242:	619a      	str	r2, [r3, #24]
 800a244:	e00e      	b.n	800a264 <USB_EPStartXfer+0xe16>
 800a246:	f507 7384 	add.w	r3, r7, #264	; 0x108
 800a24a:	f5a3 7384 	sub.w	r3, r3, #264	; 0x108
 800a24e:	681b      	ldr	r3, [r3, #0]
 800a250:	699b      	ldr	r3, [r3, #24]
 800a252:	f8c7 3104 	str.w	r3, [r7, #260]	; 0x104
 800a256:	f507 7384 	add.w	r3, r7, #264	; 0x108
 800a25a:	f5a3 7384 	sub.w	r3, r3, #264	; 0x108
 800a25e:	681b      	ldr	r3, [r3, #0]
 800a260:	2200      	movs	r2, #0
 800a262:	619a      	str	r2, [r3, #24]
 800a264:	f507 7384 	add.w	r3, r7, #264	; 0x108
 800a268:	f5a3 7382 	sub.w	r3, r3, #260	; 0x104
 800a26c:	681b      	ldr	r3, [r3, #0]
 800a26e:	f8c7 3090 	str.w	r3, [r7, #144]	; 0x90
 800a272:	f507 7384 	add.w	r3, r7, #264	; 0x108
 800a276:	f5a3 7382 	sub.w	r3, r3, #260	; 0x104
 800a27a:	681b      	ldr	r3, [r3, #0]
 800a27c:	f8b3 3050 	ldrh.w	r3, [r3, #80]	; 0x50
 800a280:	b29b      	uxth	r3, r3
 800a282:	461a      	mov	r2, r3
 800a284:	f8d7 3090 	ldr.w	r3, [r7, #144]	; 0x90
 800a288:	4413      	add	r3, r2
 800a28a:	f8c7 3090 	str.w	r3, [r7, #144]	; 0x90
 800a28e:	f507 7384 	add.w	r3, r7, #264	; 0x108
 800a292:	f5a3 7384 	sub.w	r3, r3, #264	; 0x108
 800a296:	681b      	ldr	r3, [r3, #0]
 800a298:	781b      	ldrb	r3, [r3, #0]
 800a29a:	00da      	lsls	r2, r3, #3
 800a29c:	f8d7 3090 	ldr.w	r3, [r7, #144]	; 0x90
 800a2a0:	4413      	add	r3, r2
 800a2a2:	f203 4306 	addw	r3, r3, #1030	; 0x406
 800a2a6:	f8c7 308c 	str.w	r3, [r7, #140]	; 0x8c
 800a2aa:	f8d7 308c 	ldr.w	r3, [r7, #140]	; 0x8c
 800a2ae:	881b      	ldrh	r3, [r3, #0]
 800a2b0:	b29b      	uxth	r3, r3
 800a2b2:	f3c3 0309 	ubfx	r3, r3, #0, #10
 800a2b6:	b29a      	uxth	r2, r3
 800a2b8:	f8d7 308c 	ldr.w	r3, [r7, #140]	; 0x8c
 800a2bc:	801a      	strh	r2, [r3, #0]
 800a2be:	f8d7 3104 	ldr.w	r3, [r7, #260]	; 0x104
 800a2c2:	2b3e      	cmp	r3, #62	; 0x3e
 800a2c4:	d924      	bls.n	800a310 <USB_EPStartXfer+0xec2>
 800a2c6:	f8d7 3104 	ldr.w	r3, [r7, #260]	; 0x104
 800a2ca:	095b      	lsrs	r3, r3, #5
 800a2cc:	f8c7 30e8 	str.w	r3, [r7, #232]	; 0xe8
 800a2d0:	f8d7 3104 	ldr.w	r3, [r7, #260]	; 0x104
 800a2d4:	f003 031f 	and.w	r3, r3, #31
 800a2d8:	2b00      	cmp	r3, #0
 800a2da:	d104      	bne.n	800a2e6 <USB_EPStartXfer+0xe98>
 800a2dc:	f8d7 30e8 	ldr.w	r3, [r7, #232]	; 0xe8
 800a2e0:	3b01      	subs	r3, #1
 800a2e2:	f8c7 30e8 	str.w	r3, [r7, #232]	; 0xe8
 800a2e6:	f8d7 308c 	ldr.w	r3, [r7, #140]	; 0x8c
 800a2ea:	881b      	ldrh	r3, [r3, #0]
 800a2ec:	b29a      	uxth	r2, r3
 800a2ee:	f8d7 30e8 	ldr.w	r3, [r7, #232]	; 0xe8
 800a2f2:	b29b      	uxth	r3, r3
 800a2f4:	029b      	lsls	r3, r3, #10
 800a2f6:	b29b      	uxth	r3, r3
 800a2f8:	4313      	orrs	r3, r2
 800a2fa:	b29b      	uxth	r3, r3
 800a2fc:	ea6f 4343 	mvn.w	r3, r3, lsl #17
 800a300:	ea6f 4353 	mvn.w	r3, r3, lsr #17
 800a304:	b29a      	uxth	r2, r3
 800a306:	f8d7 308c 	ldr.w	r3, [r7, #140]	; 0x8c
 800a30a:	801a      	strh	r2, [r3, #0]
 800a30c:	f000 bc10 	b.w	800ab30 <USB_EPStartXfer+0x16e2>
 800a310:	f8d7 3104 	ldr.w	r3, [r7, #260]	; 0x104
 800a314:	2b00      	cmp	r3, #0
 800a316:	d10c      	bne.n	800a332 <USB_EPStartXfer+0xee4>
 800a318:	f8d7 308c 	ldr.w	r3, [r7, #140]	; 0x8c
 800a31c:	881b      	ldrh	r3, [r3, #0]
 800a31e:	b29b      	uxth	r3, r3
 800a320:	ea6f 4343 	mvn.w	r3, r3, lsl #17
 800a324:	ea6f 4353 	mvn.w	r3, r3, lsr #17
 800a328:	b29a      	uxth	r2, r3
 800a32a:	f8d7 308c 	ldr.w	r3, [r7, #140]	; 0x8c
 800a32e:	801a      	strh	r2, [r3, #0]
 800a330:	e3fe      	b.n	800ab30 <USB_EPStartXfer+0x16e2>
 800a332:	f8d7 3104 	ldr.w	r3, [r7, #260]	; 0x104
 800a336:	085b      	lsrs	r3, r3, #1
 800a338:	f8c7 30e8 	str.w	r3, [r7, #232]	; 0xe8
 800a33c:	f8d7 3104 	ldr.w	r3, [r7, #260]	; 0x104
 800a340:	f003 0301 	and.w	r3, r3, #1
 800a344:	2b00      	cmp	r3, #0
 800a346:	d004      	beq.n	800a352 <USB_EPStartXfer+0xf04>
 800a348:	f8d7 30e8 	ldr.w	r3, [r7, #232]	; 0xe8
 800a34c:	3301      	adds	r3, #1
 800a34e:	f8c7 30e8 	str.w	r3, [r7, #232]	; 0xe8
 800a352:	f8d7 308c 	ldr.w	r3, [r7, #140]	; 0x8c
 800a356:	881b      	ldrh	r3, [r3, #0]
 800a358:	b29a      	uxth	r2, r3
 800a35a:	f8d7 30e8 	ldr.w	r3, [r7, #232]	; 0xe8
 800a35e:	b29b      	uxth	r3, r3
 800a360:	029b      	lsls	r3, r3, #10
 800a362:	b29b      	uxth	r3, r3
 800a364:	4313      	orrs	r3, r2
 800a366:	b29a      	uxth	r2, r3
 800a368:	f8d7 308c 	ldr.w	r3, [r7, #140]	; 0x8c
 800a36c:	801a      	strh	r2, [r3, #0]
 800a36e:	e3df      	b.n	800ab30 <USB_EPStartXfer+0x16e2>
 800a370:	f507 7384 	add.w	r3, r7, #264	; 0x108
 800a374:	f5a3 7384 	sub.w	r3, r3, #264	; 0x108
 800a378:	681b      	ldr	r3, [r3, #0]
 800a37a:	78db      	ldrb	r3, [r3, #3]
 800a37c:	2b02      	cmp	r3, #2
 800a37e:	f040 8218 	bne.w	800a7b2 <USB_EPStartXfer+0x1364>
 800a382:	f507 7384 	add.w	r3, r7, #264	; 0x108
 800a386:	f5a3 7384 	sub.w	r3, r3, #264	; 0x108
 800a38a:	681b      	ldr	r3, [r3, #0]
 800a38c:	785b      	ldrb	r3, [r3, #1]
 800a38e:	2b00      	cmp	r3, #0
 800a390:	f040 809d 	bne.w	800a4ce <USB_EPStartXfer+0x1080>
 800a394:	f507 7384 	add.w	r3, r7, #264	; 0x108
 800a398:	f5a3 7382 	sub.w	r3, r3, #260	; 0x104
 800a39c:	681b      	ldr	r3, [r3, #0]
 800a39e:	f8c7 30ac 	str.w	r3, [r7, #172]	; 0xac
 800a3a2:	f507 7384 	add.w	r3, r7, #264	; 0x108
 800a3a6:	f5a3 7382 	sub.w	r3, r3, #260	; 0x104
 800a3aa:	681b      	ldr	r3, [r3, #0]
 800a3ac:	f8b3 3050 	ldrh.w	r3, [r3, #80]	; 0x50
 800a3b0:	b29b      	uxth	r3, r3
 800a3b2:	461a      	mov	r2, r3
 800a3b4:	f8d7 30ac 	ldr.w	r3, [r7, #172]	; 0xac
 800a3b8:	4413      	add	r3, r2
 800a3ba:	f8c7 30ac 	str.w	r3, [r7, #172]	; 0xac
 800a3be:	f507 7384 	add.w	r3, r7, #264	; 0x108
 800a3c2:	f5a3 7384 	sub.w	r3, r3, #264	; 0x108
 800a3c6:	681b      	ldr	r3, [r3, #0]
 800a3c8:	781b      	ldrb	r3, [r3, #0]
 800a3ca:	00da      	lsls	r2, r3, #3
 800a3cc:	f8d7 30ac 	ldr.w	r3, [r7, #172]	; 0xac
 800a3d0:	4413      	add	r3, r2
 800a3d2:	f203 4302 	addw	r3, r3, #1026	; 0x402
 800a3d6:	f8c7 30a8 	str.w	r3, [r7, #168]	; 0xa8
 800a3da:	f8d7 30a8 	ldr.w	r3, [r7, #168]	; 0xa8
 800a3de:	881b      	ldrh	r3, [r3, #0]
 800a3e0:	b29b      	uxth	r3, r3
 800a3e2:	f3c3 0309 	ubfx	r3, r3, #0, #10
 800a3e6:	b29a      	uxth	r2, r3
 800a3e8:	f8d7 30a8 	ldr.w	r3, [r7, #168]	; 0xa8
 800a3ec:	801a      	strh	r2, [r3, #0]
 800a3ee:	f507 7384 	add.w	r3, r7, #264	; 0x108
 800a3f2:	f5a3 7384 	sub.w	r3, r3, #264	; 0x108
 800a3f6:	681b      	ldr	r3, [r3, #0]
 800a3f8:	691b      	ldr	r3, [r3, #16]
 800a3fa:	2b3e      	cmp	r3, #62	; 0x3e
 800a3fc:	d92b      	bls.n	800a456 <USB_EPStartXfer+0x1008>
 800a3fe:	f507 7384 	add.w	r3, r7, #264	; 0x108
 800a402:	f5a3 7384 	sub.w	r3, r3, #264	; 0x108
 800a406:	681b      	ldr	r3, [r3, #0]
 800a408:	691b      	ldr	r3, [r3, #16]
 800a40a:	095b      	lsrs	r3, r3, #5
 800a40c:	f8c7 30e4 	str.w	r3, [r7, #228]	; 0xe4
 800a410:	f507 7384 	add.w	r3, r7, #264	; 0x108
 800a414:	f5a3 7384 	sub.w	r3, r3, #264	; 0x108
 800a418:	681b      	ldr	r3, [r3, #0]
 800a41a:	691b      	ldr	r3, [r3, #16]
 800a41c:	f003 031f 	and.w	r3, r3, #31
 800a420:	2b00      	cmp	r3, #0
 800a422:	d104      	bne.n	800a42e <USB_EPStartXfer+0xfe0>
 800a424:	f8d7 30e4 	ldr.w	r3, [r7, #228]	; 0xe4
 800a428:	3b01      	subs	r3, #1
 800a42a:	f8c7 30e4 	str.w	r3, [r7, #228]	; 0xe4
 800a42e:	f8d7 30a8 	ldr.w	r3, [r7, #168]	; 0xa8
 800a432:	881b      	ldrh	r3, [r3, #0]
 800a434:	b29a      	uxth	r2, r3
 800a436:	f8d7 30e4 	ldr.w	r3, [r7, #228]	; 0xe4
 800a43a:	b29b      	uxth	r3, r3
 800a43c:	029b      	lsls	r3, r3, #10
 800a43e:	b29b      	uxth	r3, r3
 800a440:	4313      	orrs	r3, r2
 800a442:	b29b      	uxth	r3, r3
 800a444:	ea6f 4343 	mvn.w	r3, r3, lsl #17
 800a448:	ea6f 4353 	mvn.w	r3, r3, lsr #17
 800a44c:	b29a      	uxth	r2, r3
 800a44e:	f8d7 30a8 	ldr.w	r3, [r7, #168]	; 0xa8
 800a452:	801a      	strh	r2, [r3, #0]
 800a454:	e070      	b.n	800a538 <USB_EPStartXfer+0x10ea>
 800a456:	f507 7384 	add.w	r3, r7, #264	; 0x108
 800a45a:	f5a3 7384 	sub.w	r3, r3, #264	; 0x108
 800a45e:	681b      	ldr	r3, [r3, #0]
 800a460:	691b      	ldr	r3, [r3, #16]
 800a462:	2b00      	cmp	r3, #0
 800a464:	d10c      	bne.n	800a480 <USB_EPStartXfer+0x1032>
 800a466:	f8d7 30a8 	ldr.w	r3, [r7, #168]	; 0xa8
 800a46a:	881b      	ldrh	r3, [r3, #0]
 800a46c:	b29b      	uxth	r3, r3
 800a46e:	ea6f 4343 	mvn.w	r3, r3, lsl #17
 800a472:	ea6f 4353 	mvn.w	r3, r3, lsr #17
 800a476:	b29a      	uxth	r2, r3
 800a478:	f8d7 30a8 	ldr.w	r3, [r7, #168]	; 0xa8
 800a47c:	801a      	strh	r2, [r3, #0]
 800a47e:	e05b      	b.n	800a538 <USB_EPStartXfer+0x10ea>
 800a480:	f507 7384 	add.w	r3, r7, #264	; 0x108
 800a484:	f5a3 7384 	sub.w	r3, r3, #264	; 0x108
 800a488:	681b      	ldr	r3, [r3, #0]
 800a48a:	691b      	ldr	r3, [r3, #16]
 800a48c:	085b      	lsrs	r3, r3, #1
 800a48e:	f8c7 30e4 	str.w	r3, [r7, #228]	; 0xe4
 800a492:	f507 7384 	add.w	r3, r7, #264	; 0x108
 800a496:	f5a3 7384 	sub.w	r3, r3, #264	; 0x108
 800a49a:	681b      	ldr	r3, [r3, #0]
 800a49c:	691b      	ldr	r3, [r3, #16]
 800a49e:	f003 0301 	and.w	r3, r3, #1
 800a4a2:	2b00      	cmp	r3, #0
 800a4a4:	d004      	beq.n	800a4b0 <USB_EPStartXfer+0x1062>
 800a4a6:	f8d7 30e4 	ldr.w	r3, [r7, #228]	; 0xe4
 800a4aa:	3301      	adds	r3, #1
 800a4ac:	f8c7 30e4 	str.w	r3, [r7, #228]	; 0xe4
 800a4b0:	f8d7 30a8 	ldr.w	r3, [r7, #168]	; 0xa8
 800a4b4:	881b      	ldrh	r3, [r3, #0]
 800a4b6:	b29a      	uxth	r2, r3
 800a4b8:	f8d7 30e4 	ldr.w	r3, [r7, #228]	; 0xe4
 800a4bc:	b29b      	uxth	r3, r3
 800a4be:	029b      	lsls	r3, r3, #10
 800a4c0:	b29b      	uxth	r3, r3
 800a4c2:	4313      	orrs	r3, r2
 800a4c4:	b29a      	uxth	r2, r3
 800a4c6:	f8d7 30a8 	ldr.w	r3, [r7, #168]	; 0xa8
 800a4ca:	801a      	strh	r2, [r3, #0]
 800a4cc:	e034      	b.n	800a538 <USB_EPStartXfer+0x10ea>
 800a4ce:	f507 7384 	add.w	r3, r7, #264	; 0x108
 800a4d2:	f5a3 7384 	sub.w	r3, r3, #264	; 0x108
 800a4d6:	681b      	ldr	r3, [r3, #0]
 800a4d8:	785b      	ldrb	r3, [r3, #1]
 800a4da:	2b01      	cmp	r3, #1
 800a4dc:	d12c      	bne.n	800a538 <USB_EPStartXfer+0x10ea>
 800a4de:	f507 7384 	add.w	r3, r7, #264	; 0x108
 800a4e2:	f5a3 7382 	sub.w	r3, r3, #260	; 0x104
 800a4e6:	681b      	ldr	r3, [r3, #0]
 800a4e8:	f8c7 30b4 	str.w	r3, [r7, #180]	; 0xb4
 800a4ec:	f507 7384 	add.w	r3, r7, #264	; 0x108
 800a4f0:	f5a3 7382 	sub.w	r3, r3, #260	; 0x104
 800a4f4:	681b      	ldr	r3, [r3, #0]
 800a4f6:	f8b3 3050 	ldrh.w	r3, [r3, #80]	; 0x50
 800a4fa:	b29b      	uxth	r3, r3
 800a4fc:	461a      	mov	r2, r3
 800a4fe:	f8d7 30b4 	ldr.w	r3, [r7, #180]	; 0xb4
 800a502:	4413      	add	r3, r2
 800a504:	f8c7 30b4 	str.w	r3, [r7, #180]	; 0xb4
 800a508:	f507 7384 	add.w	r3, r7, #264	; 0x108
 800a50c:	f5a3 7384 	sub.w	r3, r3, #264	; 0x108
 800a510:	681b      	ldr	r3, [r3, #0]
 800a512:	781b      	ldrb	r3, [r3, #0]
 800a514:	00da      	lsls	r2, r3, #3
 800a516:	f8d7 30b4 	ldr.w	r3, [r7, #180]	; 0xb4
 800a51a:	4413      	add	r3, r2
 800a51c:	f203 4302 	addw	r3, r3, #1026	; 0x402
 800a520:	f8c7 30b0 	str.w	r3, [r7, #176]	; 0xb0
 800a524:	f507 7384 	add.w	r3, r7, #264	; 0x108
 800a528:	f5a3 7384 	sub.w	r3, r3, #264	; 0x108
 800a52c:	681b      	ldr	r3, [r3, #0]
 800a52e:	691b      	ldr	r3, [r3, #16]
 800a530:	b29a      	uxth	r2, r3
 800a532:	f8d7 30b0 	ldr.w	r3, [r7, #176]	; 0xb0
 800a536:	801a      	strh	r2, [r3, #0]
 800a538:	f507 7384 	add.w	r3, r7, #264	; 0x108
 800a53c:	f5a3 7382 	sub.w	r3, r3, #260	; 0x104
 800a540:	681b      	ldr	r3, [r3, #0]
 800a542:	f8c7 30a4 	str.w	r3, [r7, #164]	; 0xa4
 800a546:	f507 7384 	add.w	r3, r7, #264	; 0x108
 800a54a:	f5a3 7384 	sub.w	r3, r3, #264	; 0x108
 800a54e:	681b      	ldr	r3, [r3, #0]
 800a550:	785b      	ldrb	r3, [r3, #1]
 800a552:	2b00      	cmp	r3, #0
 800a554:	f040 809d 	bne.w	800a692 <USB_EPStartXfer+0x1244>
 800a558:	f507 7384 	add.w	r3, r7, #264	; 0x108
 800a55c:	f5a3 7382 	sub.w	r3, r3, #260	; 0x104
 800a560:	681b      	ldr	r3, [r3, #0]
 800a562:	f8c7 309c 	str.w	r3, [r7, #156]	; 0x9c
 800a566:	f507 7384 	add.w	r3, r7, #264	; 0x108
 800a56a:	f5a3 7382 	sub.w	r3, r3, #260	; 0x104
 800a56e:	681b      	ldr	r3, [r3, #0]
 800a570:	f8b3 3050 	ldrh.w	r3, [r3, #80]	; 0x50
 800a574:	b29b      	uxth	r3, r3
 800a576:	461a      	mov	r2, r3
 800a578:	f8d7 309c 	ldr.w	r3, [r7, #156]	; 0x9c
 800a57c:	4413      	add	r3, r2
 800a57e:	f8c7 309c 	str.w	r3, [r7, #156]	; 0x9c
 800a582:	f507 7384 	add.w	r3, r7, #264	; 0x108
 800a586:	f5a3 7384 	sub.w	r3, r3, #264	; 0x108
 800a58a:	681b      	ldr	r3, [r3, #0]
 800a58c:	781b      	ldrb	r3, [r3, #0]
 800a58e:	00da      	lsls	r2, r3, #3
 800a590:	f8d7 309c 	ldr.w	r3, [r7, #156]	; 0x9c
 800a594:	4413      	add	r3, r2
 800a596:	f203 4306 	addw	r3, r3, #1030	; 0x406
 800a59a:	f8c7 3098 	str.w	r3, [r7, #152]	; 0x98
 800a59e:	f8d7 3098 	ldr.w	r3, [r7, #152]	; 0x98
 800a5a2:	881b      	ldrh	r3, [r3, #0]
 800a5a4:	b29b      	uxth	r3, r3
 800a5a6:	f3c3 0309 	ubfx	r3, r3, #0, #10
 800a5aa:	b29a      	uxth	r2, r3
 800a5ac:	f8d7 3098 	ldr.w	r3, [r7, #152]	; 0x98
 800a5b0:	801a      	strh	r2, [r3, #0]
 800a5b2:	f507 7384 	add.w	r3, r7, #264	; 0x108
 800a5b6:	f5a3 7384 	sub.w	r3, r3, #264	; 0x108
 800a5ba:	681b      	ldr	r3, [r3, #0]
 800a5bc:	691b      	ldr	r3, [r3, #16]
 800a5be:	2b3e      	cmp	r3, #62	; 0x3e
 800a5c0:	d92b      	bls.n	800a61a <USB_EPStartXfer+0x11cc>
 800a5c2:	f507 7384 	add.w	r3, r7, #264	; 0x108
 800a5c6:	f5a3 7384 	sub.w	r3, r3, #264	; 0x108
 800a5ca:	681b      	ldr	r3, [r3, #0]
 800a5cc:	691b      	ldr	r3, [r3, #16]
 800a5ce:	095b      	lsrs	r3, r3, #5
 800a5d0:	f8c7 30e0 	str.w	r3, [r7, #224]	; 0xe0
 800a5d4:	f507 7384 	add.w	r3, r7, #264	; 0x108
 800a5d8:	f5a3 7384 	sub.w	r3, r3, #264	; 0x108
 800a5dc:	681b      	ldr	r3, [r3, #0]
 800a5de:	691b      	ldr	r3, [r3, #16]
 800a5e0:	f003 031f 	and.w	r3, r3, #31
 800a5e4:	2b00      	cmp	r3, #0
 800a5e6:	d104      	bne.n	800a5f2 <USB_EPStartXfer+0x11a4>
 800a5e8:	f8d7 30e0 	ldr.w	r3, [r7, #224]	; 0xe0
 800a5ec:	3b01      	subs	r3, #1
 800a5ee:	f8c7 30e0 	str.w	r3, [r7, #224]	; 0xe0
 800a5f2:	f8d7 3098 	ldr.w	r3, [r7, #152]	; 0x98
 800a5f6:	881b      	ldrh	r3, [r3, #0]
 800a5f8:	b29a      	uxth	r2, r3
 800a5fa:	f8d7 30e0 	ldr.w	r3, [r7, #224]	; 0xe0
 800a5fe:	b29b      	uxth	r3, r3
 800a600:	029b      	lsls	r3, r3, #10
 800a602:	b29b      	uxth	r3, r3
 800a604:	4313      	orrs	r3, r2
 800a606:	b29b      	uxth	r3, r3
 800a608:	ea6f 4343 	mvn.w	r3, r3, lsl #17
 800a60c:	ea6f 4353 	mvn.w	r3, r3, lsr #17
 800a610:	b29a      	uxth	r2, r3
 800a612:	f8d7 3098 	ldr.w	r3, [r7, #152]	; 0x98
 800a616:	801a      	strh	r2, [r3, #0]
 800a618:	e069      	b.n	800a6ee <USB_EPStartXfer+0x12a0>
 800a61a:	f507 7384 	add.w	r3, r7, #264	; 0x108
 800a61e:	f5a3 7384 	sub.w	r3, r3, #264	; 0x108
 800a622:	681b      	ldr	r3, [r3, #0]
 800a624:	691b      	ldr	r3, [r3, #16]
 800a626:	2b00      	cmp	r3, #0
 800a628:	d10c      	bne.n	800a644 <USB_EPStartXfer+0x11f6>
 800a62a:	f8d7 3098 	ldr.w	r3, [r7, #152]	; 0x98
 800a62e:	881b      	ldrh	r3, [r3, #0]
 800a630:	b29b      	uxth	r3, r3
 800a632:	ea6f 4343 	mvn.w	r3, r3, lsl #17
 800a636:	ea6f 4353 	mvn.w	r3, r3, lsr #17
 800a63a:	b29a      	uxth	r2, r3
 800a63c:	f8d7 3098 	ldr.w	r3, [r7, #152]	; 0x98
 800a640:	801a      	strh	r2, [r3, #0]
 800a642:	e054      	b.n	800a6ee <USB_EPStartXfer+0x12a0>
 800a644:	f507 7384 	add.w	r3, r7, #264	; 0x108
 800a648:	f5a3 7384 	sub.w	r3, r3, #264	; 0x108
 800a64c:	681b      	ldr	r3, [r3, #0]
 800a64e:	691b      	ldr	r3, [r3, #16]
 800a650:	085b      	lsrs	r3, r3, #1
 800a652:	f8c7 30e0 	str.w	r3, [r7, #224]	; 0xe0
 800a656:	f507 7384 	add.w	r3, r7, #264	; 0x108
 800a65a:	f5a3 7384 	sub.w	r3, r3, #264	; 0x108
 800a65e:	681b      	ldr	r3, [r3, #0]
 800a660:	691b      	ldr	r3, [r3, #16]
 800a662:	f003 0301 	and.w	r3, r3, #1
 800a666:	2b00      	cmp	r3, #0
 800a668:	d004      	beq.n	800a674 <USB_EPStartXfer+0x1226>
 800a66a:	f8d7 30e0 	ldr.w	r3, [r7, #224]	; 0xe0
 800a66e:	3301      	adds	r3, #1
 800a670:	f8c7 30e0 	str.w	r3, [r7, #224]	; 0xe0
 800a674:	f8d7 3098 	ldr.w	r3, [r7, #152]	; 0x98
 800a678:	881b      	ldrh	r3, [r3, #0]
 800a67a:	b29a      	uxth	r2, r3
 800a67c:	f8d7 30e0 	ldr.w	r3, [r7, #224]	; 0xe0
 800a680:	b29b      	uxth	r3, r3
 800a682:	029b      	lsls	r3, r3, #10
 800a684:	b29b      	uxth	r3, r3
 800a686:	4313      	orrs	r3, r2
 800a688:	b29a      	uxth	r2, r3
 800a68a:	f8d7 3098 	ldr.w	r3, [r7, #152]	; 0x98
 800a68e:	801a      	strh	r2, [r3, #0]
 800a690:	e02d      	b.n	800a6ee <USB_EPStartXfer+0x12a0>
 800a692:	f507 7384 	add.w	r3, r7, #264	; 0x108
 800a696:	f5a3 7384 	sub.w	r3, r3, #264	; 0x108
 800a69a:	681b      	ldr	r3, [r3, #0]
 800a69c:	785b      	ldrb	r3, [r3, #1]
 800a69e:	2b01      	cmp	r3, #1
 800a6a0:	d125      	bne.n	800a6ee <USB_EPStartXfer+0x12a0>
 800a6a2:	f507 7384 	add.w	r3, r7, #264	; 0x108
 800a6a6:	f5a3 7382 	sub.w	r3, r3, #260	; 0x104
 800a6aa:	681b      	ldr	r3, [r3, #0]
 800a6ac:	f8b3 3050 	ldrh.w	r3, [r3, #80]	; 0x50
 800a6b0:	b29b      	uxth	r3, r3
 800a6b2:	461a      	mov	r2, r3
 800a6b4:	f8d7 30a4 	ldr.w	r3, [r7, #164]	; 0xa4
 800a6b8:	4413      	add	r3, r2
 800a6ba:	f8c7 30a4 	str.w	r3, [r7, #164]	; 0xa4
 800a6be:	f507 7384 	add.w	r3, r7, #264	; 0x108
 800a6c2:	f5a3 7384 	sub.w	r3, r3, #264	; 0x108
 800a6c6:	681b      	ldr	r3, [r3, #0]
 800a6c8:	781b      	ldrb	r3, [r3, #0]
 800a6ca:	00da      	lsls	r2, r3, #3
 800a6cc:	f8d7 30a4 	ldr.w	r3, [r7, #164]	; 0xa4
 800a6d0:	4413      	add	r3, r2
 800a6d2:	f203 4306 	addw	r3, r3, #1030	; 0x406
 800a6d6:	f8c7 30a0 	str.w	r3, [r7, #160]	; 0xa0
 800a6da:	f507 7384 	add.w	r3, r7, #264	; 0x108
 800a6de:	f5a3 7384 	sub.w	r3, r3, #264	; 0x108
 800a6e2:	681b      	ldr	r3, [r3, #0]
 800a6e4:	691b      	ldr	r3, [r3, #16]
 800a6e6:	b29a      	uxth	r2, r3
 800a6e8:	f8d7 30a0 	ldr.w	r3, [r7, #160]	; 0xa0
 800a6ec:	801a      	strh	r2, [r3, #0]
 800a6ee:	f507 7384 	add.w	r3, r7, #264	; 0x108
 800a6f2:	f5a3 7384 	sub.w	r3, r3, #264	; 0x108
 800a6f6:	681b      	ldr	r3, [r3, #0]
 800a6f8:	69db      	ldr	r3, [r3, #28]
 800a6fa:	2b00      	cmp	r3, #0
 800a6fc:	f000 8218 	beq.w	800ab30 <USB_EPStartXfer+0x16e2>
 800a700:	f507 7384 	add.w	r3, r7, #264	; 0x108
 800a704:	f5a3 7382 	sub.w	r3, r3, #260	; 0x104
 800a708:	681a      	ldr	r2, [r3, #0]
 800a70a:	f507 7384 	add.w	r3, r7, #264	; 0x108
 800a70e:	f5a3 7384 	sub.w	r3, r3, #264	; 0x108
 800a712:	681b      	ldr	r3, [r3, #0]
 800a714:	781b      	ldrb	r3, [r3, #0]
 800a716:	009b      	lsls	r3, r3, #2
 800a718:	4413      	add	r3, r2
 800a71a:	881b      	ldrh	r3, [r3, #0]
 800a71c:	f8a7 3096 	strh.w	r3, [r7, #150]	; 0x96
 800a720:	f8b7 3096 	ldrh.w	r3, [r7, #150]	; 0x96
 800a724:	f403 4380 	and.w	r3, r3, #16384	; 0x4000
 800a728:	2b00      	cmp	r3, #0
 800a72a:	d005      	beq.n	800a738 <USB_EPStartXfer+0x12ea>
 800a72c:	f8b7 3096 	ldrh.w	r3, [r7, #150]	; 0x96
 800a730:	f003 0340 	and.w	r3, r3, #64	; 0x40
 800a734:	2b00      	cmp	r3, #0
 800a736:	d10d      	bne.n	800a754 <USB_EPStartXfer+0x1306>
 800a738:	f8b7 3096 	ldrh.w	r3, [r7, #150]	; 0x96
 800a73c:	f403 4380 	and.w	r3, r3, #16384	; 0x4000
 800a740:	2b00      	cmp	r3, #0
 800a742:	f040 81f5 	bne.w	800ab30 <USB_EPStartXfer+0x16e2>
 800a746:	f8b7 3096 	ldrh.w	r3, [r7, #150]	; 0x96
 800a74a:	f003 0340 	and.w	r3, r3, #64	; 0x40
 800a74e:	2b00      	cmp	r3, #0
 800a750:	f040 81ee 	bne.w	800ab30 <USB_EPStartXfer+0x16e2>
 800a754:	f507 7384 	add.w	r3, r7, #264	; 0x108
 800a758:	f5a3 7382 	sub.w	r3, r3, #260	; 0x104
 800a75c:	681a      	ldr	r2, [r3, #0]
 800a75e:	f507 7384 	add.w	r3, r7, #264	; 0x108
 800a762:	f5a3 7384 	sub.w	r3, r3, #264	; 0x108
 800a766:	681b      	ldr	r3, [r3, #0]
 800a768:	781b      	ldrb	r3, [r3, #0]
 800a76a:	009b      	lsls	r3, r3, #2
 800a76c:	4413      	add	r3, r2
 800a76e:	881b      	ldrh	r3, [r3, #0]
 800a770:	b29b      	uxth	r3, r3
 800a772:	f423 43e0 	bic.w	r3, r3, #28672	; 0x7000
 800a776:	f023 0370 	bic.w	r3, r3, #112	; 0x70
 800a77a:	f8a7 3094 	strh.w	r3, [r7, #148]	; 0x94
 800a77e:	f507 7384 	add.w	r3, r7, #264	; 0x108
 800a782:	f5a3 7382 	sub.w	r3, r3, #260	; 0x104
 800a786:	681a      	ldr	r2, [r3, #0]
 800a788:	f507 7384 	add.w	r3, r7, #264	; 0x108
 800a78c:	f5a3 7384 	sub.w	r3, r3, #264	; 0x108
 800a790:	681b      	ldr	r3, [r3, #0]
 800a792:	781b      	ldrb	r3, [r3, #0]
 800a794:	009b      	lsls	r3, r3, #2
 800a796:	441a      	add	r2, r3
 800a798:	f8b7 3094 	ldrh.w	r3, [r7, #148]	; 0x94
 800a79c:	f043 437f 	orr.w	r3, r3, #4278190080	; 0xff000000
 800a7a0:	f443 037f 	orr.w	r3, r3, #16711680	; 0xff0000
 800a7a4:	f443 4300 	orr.w	r3, r3, #32768	; 0x8000
 800a7a8:	f043 03c0 	orr.w	r3, r3, #192	; 0xc0
 800a7ac:	b29b      	uxth	r3, r3
 800a7ae:	8013      	strh	r3, [r2, #0]
 800a7b0:	e1be      	b.n	800ab30 <USB_EPStartXfer+0x16e2>
 800a7b2:	f507 7384 	add.w	r3, r7, #264	; 0x108
 800a7b6:	f5a3 7384 	sub.w	r3, r3, #264	; 0x108
 800a7ba:	681b      	ldr	r3, [r3, #0]
 800a7bc:	78db      	ldrb	r3, [r3, #3]
 800a7be:	2b01      	cmp	r3, #1
 800a7c0:	f040 81b4 	bne.w	800ab2c <USB_EPStartXfer+0x16de>
 800a7c4:	f507 7384 	add.w	r3, r7, #264	; 0x108
 800a7c8:	f5a3 7384 	sub.w	r3, r3, #264	; 0x108
 800a7cc:	681b      	ldr	r3, [r3, #0]
 800a7ce:	699a      	ldr	r2, [r3, #24]
 800a7d0:	f507 7384 	add.w	r3, r7, #264	; 0x108
 800a7d4:	f5a3 7384 	sub.w	r3, r3, #264	; 0x108
 800a7d8:	681b      	ldr	r3, [r3, #0]
 800a7da:	691b      	ldr	r3, [r3, #16]
 800a7dc:	429a      	cmp	r2, r3
 800a7de:	d917      	bls.n	800a810 <USB_EPStartXfer+0x13c2>
 800a7e0:	f507 7384 	add.w	r3, r7, #264	; 0x108
 800a7e4:	f5a3 7384 	sub.w	r3, r3, #264	; 0x108
 800a7e8:	681b      	ldr	r3, [r3, #0]
 800a7ea:	691b      	ldr	r3, [r3, #16]
 800a7ec:	f8c7 3104 	str.w	r3, [r7, #260]	; 0x104
 800a7f0:	f507 7384 	add.w	r3, r7, #264	; 0x108
 800a7f4:	f5a3 7384 	sub.w	r3, r3, #264	; 0x108
 800a7f8:	681b      	ldr	r3, [r3, #0]
 800a7fa:	699a      	ldr	r2, [r3, #24]
 800a7fc:	f8d7 3104 	ldr.w	r3, [r7, #260]	; 0x104
 800a800:	1ad2      	subs	r2, r2, r3
 800a802:	f507 7384 	add.w	r3, r7, #264	; 0x108
 800a806:	f5a3 7384 	sub.w	r3, r3, #264	; 0x108
 800a80a:	681b      	ldr	r3, [r3, #0]
 800a80c:	619a      	str	r2, [r3, #24]
 800a80e:	e00e      	b.n	800a82e <USB_EPStartXfer+0x13e0>
 800a810:	f507 7384 	add.w	r3, r7, #264	; 0x108
 800a814:	f5a3 7384 	sub.w	r3, r3, #264	; 0x108
 800a818:	681b      	ldr	r3, [r3, #0]
 800a81a:	699b      	ldr	r3, [r3, #24]
 800a81c:	f8c7 3104 	str.w	r3, [r7, #260]	; 0x104
 800a820:	f507 7384 	add.w	r3, r7, #264	; 0x108
 800a824:	f5a3 7384 	sub.w	r3, r3, #264	; 0x108
 800a828:	681b      	ldr	r3, [r3, #0]
 800a82a:	2200      	movs	r2, #0
 800a82c:	619a      	str	r2, [r3, #24]
 800a82e:	f507 7384 	add.w	r3, r7, #264	; 0x108
 800a832:	f5a3 7384 	sub.w	r3, r3, #264	; 0x108
 800a836:	681b      	ldr	r3, [r3, #0]
 800a838:	785b      	ldrb	r3, [r3, #1]
 800a83a:	2b00      	cmp	r3, #0
 800a83c:	f040 8085 	bne.w	800a94a <USB_EPStartXfer+0x14fc>
 800a840:	f507 7384 	add.w	r3, r7, #264	; 0x108
 800a844:	f5a3 7382 	sub.w	r3, r3, #260	; 0x104
 800a848:	681b      	ldr	r3, [r3, #0]
 800a84a:	f8c7 30cc 	str.w	r3, [r7, #204]	; 0xcc
 800a84e:	f507 7384 	add.w	r3, r7, #264	; 0x108
 800a852:	f5a3 7382 	sub.w	r3, r3, #260	; 0x104
 800a856:	681b      	ldr	r3, [r3, #0]
 800a858:	f8b3 3050 	ldrh.w	r3, [r3, #80]	; 0x50
 800a85c:	b29b      	uxth	r3, r3
 800a85e:	461a      	mov	r2, r3
 800a860:	f8d7 30cc 	ldr.w	r3, [r7, #204]	; 0xcc
 800a864:	4413      	add	r3, r2
 800a866:	f8c7 30cc 	str.w	r3, [r7, #204]	; 0xcc
 800a86a:	f507 7384 	add.w	r3, r7, #264	; 0x108
 800a86e:	f5a3 7384 	sub.w	r3, r3, #264	; 0x108
 800a872:	681b      	ldr	r3, [r3, #0]
 800a874:	781b      	ldrb	r3, [r3, #0]
 800a876:	00da      	lsls	r2, r3, #3
 800a878:	f8d7 30cc 	ldr.w	r3, [r7, #204]	; 0xcc
 800a87c:	4413      	add	r3, r2
 800a87e:	f203 4302 	addw	r3, r3, #1026	; 0x402
 800a882:	f8c7 30c8 	str.w	r3, [r7, #200]	; 0xc8
 800a886:	f8d7 30c8 	ldr.w	r3, [r7, #200]	; 0xc8
 800a88a:	881b      	ldrh	r3, [r3, #0]
 800a88c:	b29b      	uxth	r3, r3
 800a88e:	f3c3 0309 	ubfx	r3, r3, #0, #10
 800a892:	b29a      	uxth	r2, r3
 800a894:	f8d7 30c8 	ldr.w	r3, [r7, #200]	; 0xc8
 800a898:	801a      	strh	r2, [r3, #0]
 800a89a:	f8d7 3104 	ldr.w	r3, [r7, #260]	; 0x104
 800a89e:	2b3e      	cmp	r3, #62	; 0x3e
 800a8a0:	d923      	bls.n	800a8ea <USB_EPStartXfer+0x149c>
 800a8a2:	f8d7 3104 	ldr.w	r3, [r7, #260]	; 0x104
 800a8a6:	095b      	lsrs	r3, r3, #5
 800a8a8:	f8c7 30dc 	str.w	r3, [r7, #220]	; 0xdc
 800a8ac:	f8d7 3104 	ldr.w	r3, [r7, #260]	; 0x104
 800a8b0:	f003 031f 	and.w	r3, r3, #31
 800a8b4:	2b00      	cmp	r3, #0
 800a8b6:	d104      	bne.n	800a8c2 <USB_EPStartXfer+0x1474>
 800a8b8:	f8d7 30dc 	ldr.w	r3, [r7, #220]	; 0xdc
 800a8bc:	3b01      	subs	r3, #1
 800a8be:	f8c7 30dc 	str.w	r3, [r7, #220]	; 0xdc
 800a8c2:	f8d7 30c8 	ldr.w	r3, [r7, #200]	; 0xc8
 800a8c6:	881b      	ldrh	r3, [r3, #0]
 800a8c8:	b29a      	uxth	r2, r3
 800a8ca:	f8d7 30dc 	ldr.w	r3, [r7, #220]	; 0xdc
 800a8ce:	b29b      	uxth	r3, r3
 800a8d0:	029b      	lsls	r3, r3, #10
 800a8d2:	b29b      	uxth	r3, r3
 800a8d4:	4313      	orrs	r3, r2
 800a8d6:	b29b      	uxth	r3, r3
 800a8d8:	ea6f 4343 	mvn.w	r3, r3, lsl #17
 800a8dc:	ea6f 4353 	mvn.w	r3, r3, lsr #17
 800a8e0:	b29a      	uxth	r2, r3
 800a8e2:	f8d7 30c8 	ldr.w	r3, [r7, #200]	; 0xc8
 800a8e6:	801a      	strh	r2, [r3, #0]
 800a8e8:	e060      	b.n	800a9ac <USB_EPStartXfer+0x155e>
 800a8ea:	f8d7 3104 	ldr.w	r3, [r7, #260]	; 0x104
 800a8ee:	2b00      	cmp	r3, #0
 800a8f0:	d10c      	bne.n	800a90c <USB_EPStartXfer+0x14be>
 800a8f2:	f8d7 30c8 	ldr.w	r3, [r7, #200]	; 0xc8
 800a8f6:	881b      	ldrh	r3, [r3, #0]
 800a8f8:	b29b      	uxth	r3, r3
 800a8fa:	ea6f 4343 	mvn.w	r3, r3, lsl #17
 800a8fe:	ea6f 4353 	mvn.w	r3, r3, lsr #17
 800a902:	b29a      	uxth	r2, r3
 800a904:	f8d7 30c8 	ldr.w	r3, [r7, #200]	; 0xc8
 800a908:	801a      	strh	r2, [r3, #0]
 800a90a:	e04f      	b.n	800a9ac <USB_EPStartXfer+0x155e>
 800a90c:	f8d7 3104 	ldr.w	r3, [r7, #260]	; 0x104
 800a910:	085b      	lsrs	r3, r3, #1
 800a912:	f8c7 30dc 	str.w	r3, [r7, #220]	; 0xdc
 800a916:	f8d7 3104 	ldr.w	r3, [r7, #260]	; 0x104
 800a91a:	f003 0301 	and.w	r3, r3, #1
 800a91e:	2b00      	cmp	r3, #0
 800a920:	d004      	beq.n	800a92c <USB_EPStartXfer+0x14de>
 800a922:	f8d7 30dc 	ldr.w	r3, [r7, #220]	; 0xdc
 800a926:	3301      	adds	r3, #1
 800a928:	f8c7 30dc 	str.w	r3, [r7, #220]	; 0xdc
 800a92c:	f8d7 30c8 	ldr.w	r3, [r7, #200]	; 0xc8
 800a930:	881b      	ldrh	r3, [r3, #0]
 800a932:	b29a      	uxth	r2, r3
 800a934:	f8d7 30dc 	ldr.w	r3, [r7, #220]	; 0xdc
 800a938:	b29b      	uxth	r3, r3
 800a93a:	029b      	lsls	r3, r3, #10
 800a93c:	b29b      	uxth	r3, r3
 800a93e:	4313      	orrs	r3, r2
 800a940:	b29a      	uxth	r2, r3
 800a942:	f8d7 30c8 	ldr.w	r3, [r7, #200]	; 0xc8
 800a946:	801a      	strh	r2, [r3, #0]
 800a948:	e030      	b.n	800a9ac <USB_EPStartXfer+0x155e>
 800a94a:	f507 7384 	add.w	r3, r7, #264	; 0x108
 800a94e:	f5a3 7384 	sub.w	r3, r3, #264	; 0x108
 800a952:	681b      	ldr	r3, [r3, #0]
 800a954:	785b      	ldrb	r3, [r3, #1]
 800a956:	2b01      	cmp	r3, #1
 800a958:	d128      	bne.n	800a9ac <USB_EPStartXfer+0x155e>
 800a95a:	f507 7384 	add.w	r3, r7, #264	; 0x108
 800a95e:	f5a3 7382 	sub.w	r3, r3, #260	; 0x104
 800a962:	681b      	ldr	r3, [r3, #0]
 800a964:	f8c7 30d4 	str.w	r3, [r7, #212]	; 0xd4
 800a968:	f507 7384 	add.w	r3, r7, #264	; 0x108
 800a96c:	f5a3 7382 	sub.w	r3, r3, #260	; 0x104
 800a970:	681b      	ldr	r3, [r3, #0]
 800a972:	f8b3 3050 	ldrh.w	r3, [r3, #80]	; 0x50
 800a976:	b29b      	uxth	r3, r3
 800a978:	461a      	mov	r2, r3
 800a97a:	f8d7 30d4 	ldr.w	r3, [r7, #212]	; 0xd4
 800a97e:	4413      	add	r3, r2
 800a980:	f8c7 30d4 	str.w	r3, [r7, #212]	; 0xd4
 800a984:	f507 7384 	add.w	r3, r7, #264	; 0x108
 800a988:	f5a3 7384 	sub.w	r3, r3, #264	; 0x108
 800a98c:	681b      	ldr	r3, [r3, #0]
 800a98e:	781b      	ldrb	r3, [r3, #0]
 800a990:	00da      	lsls	r2, r3, #3
 800a992:	f8d7 30d4 	ldr.w	r3, [r7, #212]	; 0xd4
 800a996:	4413      	add	r3, r2
 800a998:	f203 4302 	addw	r3, r3, #1026	; 0x402
 800a99c:	f8c7 30d0 	str.w	r3, [r7, #208]	; 0xd0
 800a9a0:	f8d7 3104 	ldr.w	r3, [r7, #260]	; 0x104
 800a9a4:	b29a      	uxth	r2, r3
 800a9a6:	f8d7 30d0 	ldr.w	r3, [r7, #208]	; 0xd0
 800a9aa:	801a      	strh	r2, [r3, #0]
 800a9ac:	f507 7384 	add.w	r3, r7, #264	; 0x108
 800a9b0:	f5a3 7382 	sub.w	r3, r3, #260	; 0x104
 800a9b4:	681b      	ldr	r3, [r3, #0]
 800a9b6:	f8c7 30c4 	str.w	r3, [r7, #196]	; 0xc4
 800a9ba:	f507 7384 	add.w	r3, r7, #264	; 0x108
 800a9be:	f5a3 7384 	sub.w	r3, r3, #264	; 0x108
 800a9c2:	681b      	ldr	r3, [r3, #0]
 800a9c4:	785b      	ldrb	r3, [r3, #1]
 800a9c6:	2b00      	cmp	r3, #0
 800a9c8:	f040 8085 	bne.w	800aad6 <USB_EPStartXfer+0x1688>
 800a9cc:	f507 7384 	add.w	r3, r7, #264	; 0x108
 800a9d0:	f5a3 7382 	sub.w	r3, r3, #260	; 0x104
 800a9d4:	681b      	ldr	r3, [r3, #0]
 800a9d6:	f8c7 30bc 	str.w	r3, [r7, #188]	; 0xbc
 800a9da:	f507 7384 	add.w	r3, r7, #264	; 0x108
 800a9de:	f5a3 7382 	sub.w	r3, r3, #260	; 0x104
 800a9e2:	681b      	ldr	r3, [r3, #0]
 800a9e4:	f8b3 3050 	ldrh.w	r3, [r3, #80]	; 0x50
 800a9e8:	b29b      	uxth	r3, r3
 800a9ea:	461a      	mov	r2, r3
 800a9ec:	f8d7 30bc 	ldr.w	r3, [r7, #188]	; 0xbc
 800a9f0:	4413      	add	r3, r2
 800a9f2:	f8c7 30bc 	str.w	r3, [r7, #188]	; 0xbc
 800a9f6:	f507 7384 	add.w	r3, r7, #264	; 0x108
 800a9fa:	f5a3 7384 	sub.w	r3, r3, #264	; 0x108
 800a9fe:	681b      	ldr	r3, [r3, #0]
 800aa00:	781b      	ldrb	r3, [r3, #0]
 800aa02:	00da      	lsls	r2, r3, #3
 800aa04:	f8d7 30bc 	ldr.w	r3, [r7, #188]	; 0xbc
 800aa08:	4413      	add	r3, r2
 800aa0a:	f203 4306 	addw	r3, r3, #1030	; 0x406
 800aa0e:	f8c7 30b8 	str.w	r3, [r7, #184]	; 0xb8
 800aa12:	f8d7 30b8 	ldr.w	r3, [r7, #184]	; 0xb8
 800aa16:	881b      	ldrh	r3, [r3, #0]
 800aa18:	b29b      	uxth	r3, r3
 800aa1a:	f3c3 0309 	ubfx	r3, r3, #0, #10
 800aa1e:	b29a      	uxth	r2, r3
 800aa20:	f8d7 30b8 	ldr.w	r3, [r7, #184]	; 0xb8
 800aa24:	801a      	strh	r2, [r3, #0]
 800aa26:	f8d7 3104 	ldr.w	r3, [r7, #260]	; 0x104
 800aa2a:	2b3e      	cmp	r3, #62	; 0x3e
 800aa2c:	d923      	bls.n	800aa76 <USB_EPStartXfer+0x1628>
 800aa2e:	f8d7 3104 	ldr.w	r3, [r7, #260]	; 0x104
 800aa32:	095b      	lsrs	r3, r3, #5
 800aa34:	f8c7 30d8 	str.w	r3, [r7, #216]	; 0xd8
 800aa38:	f8d7 3104 	ldr.w	r3, [r7, #260]	; 0x104
 800aa3c:	f003 031f 	and.w	r3, r3, #31
 800aa40:	2b00      	cmp	r3, #0
 800aa42:	d104      	bne.n	800aa4e <USB_EPStartXfer+0x1600>
 800aa44:	f8d7 30d8 	ldr.w	r3, [r7, #216]	; 0xd8
 800aa48:	3b01      	subs	r3, #1
 800aa4a:	f8c7 30d8 	str.w	r3, [r7, #216]	; 0xd8
 800aa4e:	f8d7 30b8 	ldr.w	r3, [r7, #184]	; 0xb8
 800aa52:	881b      	ldrh	r3, [r3, #0]
 800aa54:	b29a      	uxth	r2, r3
 800aa56:	f8d7 30d8 	ldr.w	r3, [r7, #216]	; 0xd8
 800aa5a:	b29b      	uxth	r3, r3
 800aa5c:	029b      	lsls	r3, r3, #10
 800aa5e:	b29b      	uxth	r3, r3
 800aa60:	4313      	orrs	r3, r2
 800aa62:	b29b      	uxth	r3, r3
 800aa64:	ea6f 4343 	mvn.w	r3, r3, lsl #17
 800aa68:	ea6f 4353 	mvn.w	r3, r3, lsr #17
 800aa6c:	b29a      	uxth	r2, r3
 800aa6e:	f8d7 30b8 	ldr.w	r3, [r7, #184]	; 0xb8
 800aa72:	801a      	strh	r2, [r3, #0]
 800aa74:	e05c      	b.n	800ab30 <USB_EPStartXfer+0x16e2>
 800aa76:	f8d7 3104 	ldr.w	r3, [r7, #260]	; 0x104
 800aa7a:	2b00      	cmp	r3, #0
 800aa7c:	d10c      	bne.n	800aa98 <USB_EPStartXfer+0x164a>
 800aa7e:	f8d7 30b8 	ldr.w	r3, [r7, #184]	; 0xb8
 800aa82:	881b      	ldrh	r3, [r3, #0]
 800aa84:	b29b      	uxth	r3, r3
 800aa86:	ea6f 4343 	mvn.w	r3, r3, lsl #17
 800aa8a:	ea6f 4353 	mvn.w	r3, r3, lsr #17
 800aa8e:	b29a      	uxth	r2, r3
 800aa90:	f8d7 30b8 	ldr.w	r3, [r7, #184]	; 0xb8
 800aa94:	801a      	strh	r2, [r3, #0]
 800aa96:	e04b      	b.n	800ab30 <USB_EPStartXfer+0x16e2>
 800aa98:	f8d7 3104 	ldr.w	r3, [r7, #260]	; 0x104
 800aa9c:	085b      	lsrs	r3, r3, #1
 800aa9e:	f8c7 30d8 	str.w	r3, [r7, #216]	; 0xd8
 800aaa2:	f8d7 3104 	ldr.w	r3, [r7, #260]	; 0x104
 800aaa6:	f003 0301 	and.w	r3, r3, #1
 800aaaa:	2b00      	cmp	r3, #0
 800aaac:	d004      	beq.n	800aab8 <USB_EPStartXfer+0x166a>
 800aaae:	f8d7 30d8 	ldr.w	r3, [r7, #216]	; 0xd8
 800aab2:	3301      	adds	r3, #1
 800aab4:	f8c7 30d8 	str.w	r3, [r7, #216]	; 0xd8
 800aab8:	f8d7 30b8 	ldr.w	r3, [r7, #184]	; 0xb8
 800aabc:	881b      	ldrh	r3, [r3, #0]
 800aabe:	b29a      	uxth	r2, r3
 800aac0:	f8d7 30d8 	ldr.w	r3, [r7, #216]	; 0xd8
 800aac4:	b29b      	uxth	r3, r3
 800aac6:	029b      	lsls	r3, r3, #10
 800aac8:	b29b      	uxth	r3, r3
 800aaca:	4313      	orrs	r3, r2
 800aacc:	b29a      	uxth	r2, r3
 800aace:	f8d7 30b8 	ldr.w	r3, [r7, #184]	; 0xb8
 800aad2:	801a      	strh	r2, [r3, #0]
 800aad4:	e02c      	b.n	800ab30 <USB_EPStartXfer+0x16e2>
 800aad6:	f507 7384 	add.w	r3, r7, #264	; 0x108
 800aada:	f5a3 7384 	sub.w	r3, r3, #264	; 0x108
 800aade:	681b      	ldr	r3, [r3, #0]
 800aae0:	785b      	ldrb	r3, [r3, #1]
 800aae2:	2b01      	cmp	r3, #1
 800aae4:	d124      	bne.n	800ab30 <USB_EPStartXfer+0x16e2>
 800aae6:	f507 7384 	add.w	r3, r7, #264	; 0x108
 800aaea:	f5a3 7382 	sub.w	r3, r3, #260	; 0x104
 800aaee:	681b      	ldr	r3, [r3, #0]
 800aaf0:	f8b3 3050 	ldrh.w	r3, [r3, #80]	; 0x50
 800aaf4:	b29b      	uxth	r3, r3
 800aaf6:	461a      	mov	r2, r3
 800aaf8:	f8d7 30c4 	ldr.w	r3, [r7, #196]	; 0xc4
 800aafc:	4413      	add	r3, r2
 800aafe:	f8c7 30c4 	str.w	r3, [r7, #196]	; 0xc4
 800ab02:	f507 7384 	add.w	r3, r7, #264	; 0x108
 800ab06:	f5a3 7384 	sub.w	r3, r3, #264	; 0x108
 800ab0a:	681b      	ldr	r3, [r3, #0]
 800ab0c:	781b      	ldrb	r3, [r3, #0]
 800ab0e:	00da      	lsls	r2, r3, #3
 800ab10:	f8d7 30c4 	ldr.w	r3, [r7, #196]	; 0xc4
 800ab14:	4413      	add	r3, r2
 800ab16:	f203 4306 	addw	r3, r3, #1030	; 0x406
 800ab1a:	f8c7 30c0 	str.w	r3, [r7, #192]	; 0xc0
 800ab1e:	f8d7 3104 	ldr.w	r3, [r7, #260]	; 0x104
 800ab22:	b29a      	uxth	r2, r3
 800ab24:	f8d7 30c0 	ldr.w	r3, [r7, #192]	; 0xc0
 800ab28:	801a      	strh	r2, [r3, #0]
 800ab2a:	e001      	b.n	800ab30 <USB_EPStartXfer+0x16e2>
 800ab2c:	2301      	movs	r3, #1
 800ab2e:	e03a      	b.n	800aba6 <USB_EPStartXfer+0x1758>
 800ab30:	f507 7384 	add.w	r3, r7, #264	; 0x108
 800ab34:	f5a3 7382 	sub.w	r3, r3, #260	; 0x104
 800ab38:	681a      	ldr	r2, [r3, #0]
 800ab3a:	f507 7384 	add.w	r3, r7, #264	; 0x108
 800ab3e:	f5a3 7384 	sub.w	r3, r3, #264	; 0x108
 800ab42:	681b      	ldr	r3, [r3, #0]
 800ab44:	781b      	ldrb	r3, [r3, #0]
 800ab46:	009b      	lsls	r3, r3, #2
 800ab48:	4413      	add	r3, r2
 800ab4a:	881b      	ldrh	r3, [r3, #0]
 800ab4c:	b29b      	uxth	r3, r3
 800ab4e:	f423 4380 	bic.w	r3, r3, #16384	; 0x4000
 800ab52:	f023 0370 	bic.w	r3, r3, #112	; 0x70
 800ab56:	f8a7 308a 	strh.w	r3, [r7, #138]	; 0x8a
 800ab5a:	f8b7 308a 	ldrh.w	r3, [r7, #138]	; 0x8a
 800ab5e:	f483 5380 	eor.w	r3, r3, #4096	; 0x1000
 800ab62:	f8a7 308a 	strh.w	r3, [r7, #138]	; 0x8a
 800ab66:	f8b7 308a 	ldrh.w	r3, [r7, #138]	; 0x8a
 800ab6a:	f483 5300 	eor.w	r3, r3, #8192	; 0x2000
 800ab6e:	f8a7 308a 	strh.w	r3, [r7, #138]	; 0x8a
 800ab72:	f507 7384 	add.w	r3, r7, #264	; 0x108
 800ab76:	f5a3 7382 	sub.w	r3, r3, #260	; 0x104
 800ab7a:	681a      	ldr	r2, [r3, #0]
 800ab7c:	f507 7384 	add.w	r3, r7, #264	; 0x108
 800ab80:	f5a3 7384 	sub.w	r3, r3, #264	; 0x108
 800ab84:	681b      	ldr	r3, [r3, #0]
 800ab86:	781b      	ldrb	r3, [r3, #0]
 800ab88:	009b      	lsls	r3, r3, #2
 800ab8a:	441a      	add	r2, r3
 800ab8c:	f8b7 308a 	ldrh.w	r3, [r7, #138]	; 0x8a
 800ab90:	f043 437f 	orr.w	r3, r3, #4278190080	; 0xff000000
 800ab94:	f443 037f 	orr.w	r3, r3, #16711680	; 0xff0000
 800ab98:	f443 4300 	orr.w	r3, r3, #32768	; 0x8000
 800ab9c:	f043 0380 	orr.w	r3, r3, #128	; 0x80
 800aba0:	b29b      	uxth	r3, r3
 800aba2:	8013      	strh	r3, [r2, #0]
 800aba4:	2300      	movs	r3, #0
 800aba6:	4618      	mov	r0, r3
 800aba8:	f507 7784 	add.w	r7, r7, #264	; 0x108
 800abac:	46bd      	mov	sp, r7
 800abae:	bd80      	pop	{r7, pc}

0800abb0 <USB_EPSetStall>:
 800abb0:	b480      	push	{r7}
 800abb2:	b085      	sub	sp, #20
 800abb4:	af00      	add	r7, sp, #0
 800abb6:	6078      	str	r0, [r7, #4]
 800abb8:	6039      	str	r1, [r7, #0]
 800abba:	683b      	ldr	r3, [r7, #0]
 800abbc:	785b      	ldrb	r3, [r3, #1]
 800abbe:	2b00      	cmp	r3, #0
 800abc0:	d020      	beq.n	800ac04 <USB_EPSetStall+0x54>
 800abc2:	687a      	ldr	r2, [r7, #4]
 800abc4:	683b      	ldr	r3, [r7, #0]
 800abc6:	781b      	ldrb	r3, [r3, #0]
 800abc8:	009b      	lsls	r3, r3, #2
 800abca:	4413      	add	r3, r2
 800abcc:	881b      	ldrh	r3, [r3, #0]
 800abce:	b29b      	uxth	r3, r3
 800abd0:	f423 43e0 	bic.w	r3, r3, #28672	; 0x7000
 800abd4:	f023 0340 	bic.w	r3, r3, #64	; 0x40
 800abd8:	81bb      	strh	r3, [r7, #12]
 800abda:	89bb      	ldrh	r3, [r7, #12]
 800abdc:	f083 0310 	eor.w	r3, r3, #16
 800abe0:	81bb      	strh	r3, [r7, #12]
 800abe2:	687a      	ldr	r2, [r7, #4]
 800abe4:	683b      	ldr	r3, [r7, #0]
 800abe6:	781b      	ldrb	r3, [r3, #0]
 800abe8:	009b      	lsls	r3, r3, #2
 800abea:	441a      	add	r2, r3
 800abec:	89bb      	ldrh	r3, [r7, #12]
 800abee:	f043 437f 	orr.w	r3, r3, #4278190080	; 0xff000000
 800abf2:	f443 037f 	orr.w	r3, r3, #16711680	; 0xff0000
 800abf6:	f443 4300 	orr.w	r3, r3, #32768	; 0x8000
 800abfa:	f043 0380 	orr.w	r3, r3, #128	; 0x80
 800abfe:	b29b      	uxth	r3, r3
 800ac00:	8013      	strh	r3, [r2, #0]
 800ac02:	e01f      	b.n	800ac44 <USB_EPSetStall+0x94>
 800ac04:	687a      	ldr	r2, [r7, #4]
 800ac06:	683b      	ldr	r3, [r7, #0]
 800ac08:	781b      	ldrb	r3, [r3, #0]
 800ac0a:	009b      	lsls	r3, r3, #2
 800ac0c:	4413      	add	r3, r2
 800ac0e:	881b      	ldrh	r3, [r3, #0]
 800ac10:	b29b      	uxth	r3, r3
 800ac12:	f423 4380 	bic.w	r3, r3, #16384	; 0x4000
 800ac16:	f023 0370 	bic.w	r3, r3, #112	; 0x70
 800ac1a:	81fb      	strh	r3, [r7, #14]
 800ac1c:	89fb      	ldrh	r3, [r7, #14]
 800ac1e:	f483 5380 	eor.w	r3, r3, #4096	; 0x1000
 800ac22:	81fb      	strh	r3, [r7, #14]
 800ac24:	687a      	ldr	r2, [r7, #4]
 800ac26:	683b      	ldr	r3, [r7, #0]
 800ac28:	781b      	ldrb	r3, [r3, #0]
 800ac2a:	009b      	lsls	r3, r3, #2
 800ac2c:	441a      	add	r2, r3
 800ac2e:	89fb      	ldrh	r3, [r7, #14]
 800ac30:	f043 437f 	orr.w	r3, r3, #4278190080	; 0xff000000
 800ac34:	f443 037f 	orr.w	r3, r3, #16711680	; 0xff0000
 800ac38:	f443 4300 	orr.w	r3, r3, #32768	; 0x8000
 800ac3c:	f043 0380 	orr.w	r3, r3, #128	; 0x80
 800ac40:	b29b      	uxth	r3, r3
 800ac42:	8013      	strh	r3, [r2, #0]
 800ac44:	2300      	movs	r3, #0
 800ac46:	4618      	mov	r0, r3
 800ac48:	3714      	adds	r7, #20
 800ac4a:	46bd      	mov	sp, r7
 800ac4c:	f85d 7b04 	ldr.w	r7, [sp], #4
 800ac50:	4770      	bx	lr

0800ac52 <USB_EPClearStall>:
 800ac52:	b480      	push	{r7}
 800ac54:	b087      	sub	sp, #28
 800ac56:	af00      	add	r7, sp, #0
 800ac58:	6078      	str	r0, [r7, #4]
 800ac5a:	6039      	str	r1, [r7, #0]
 800ac5c:	683b      	ldr	r3, [r7, #0]
 800ac5e:	7b1b      	ldrb	r3, [r3, #12]
 800ac60:	2b00      	cmp	r3, #0
 800ac62:	f040 809d 	bne.w	800ada0 <USB_EPClearStall+0x14e>
 800ac66:	683b      	ldr	r3, [r7, #0]
 800ac68:	785b      	ldrb	r3, [r3, #1]
 800ac6a:	2b00      	cmp	r3, #0
 800ac6c:	d04c      	beq.n	800ad08 <USB_EPClearStall+0xb6>
 800ac6e:	687a      	ldr	r2, [r7, #4]
 800ac70:	683b      	ldr	r3, [r7, #0]
 800ac72:	781b      	ldrb	r3, [r3, #0]
 800ac74:	009b      	lsls	r3, r3, #2
 800ac76:	4413      	add	r3, r2
 800ac78:	881b      	ldrh	r3, [r3, #0]
 800ac7a:	823b      	strh	r3, [r7, #16]
 800ac7c:	8a3b      	ldrh	r3, [r7, #16]
 800ac7e:	f003 0340 	and.w	r3, r3, #64	; 0x40
 800ac82:	2b00      	cmp	r3, #0
 800ac84:	d01b      	beq.n	800acbe <USB_EPClearStall+0x6c>
 800ac86:	687a      	ldr	r2, [r7, #4]
 800ac88:	683b      	ldr	r3, [r7, #0]
 800ac8a:	781b      	ldrb	r3, [r3, #0]
 800ac8c:	009b      	lsls	r3, r3, #2
 800ac8e:	4413      	add	r3, r2
 800ac90:	881b      	ldrh	r3, [r3, #0]
 800ac92:	b29b      	uxth	r3, r3
 800ac94:	f423 43e0 	bic.w	r3, r3, #28672	; 0x7000
 800ac98:	f023 0370 	bic.w	r3, r3, #112	; 0x70
 800ac9c:	81fb      	strh	r3, [r7, #14]
 800ac9e:	687a      	ldr	r2, [r7, #4]
 800aca0:	683b      	ldr	r3, [r7, #0]
 800aca2:	781b      	ldrb	r3, [r3, #0]
 800aca4:	009b      	lsls	r3, r3, #2
 800aca6:	441a      	add	r2, r3
 800aca8:	89fb      	ldrh	r3, [r7, #14]
 800acaa:	f043 437f 	orr.w	r3, r3, #4278190080	; 0xff000000
 800acae:	f443 037f 	orr.w	r3, r3, #16711680	; 0xff0000
 800acb2:	f443 4300 	orr.w	r3, r3, #32768	; 0x8000
 800acb6:	f043 03c0 	orr.w	r3, r3, #192	; 0xc0
 800acba:	b29b      	uxth	r3, r3
 800acbc:	8013      	strh	r3, [r2, #0]
 800acbe:	683b      	ldr	r3, [r7, #0]
 800acc0:	78db      	ldrb	r3, [r3, #3]
 800acc2:	2b01      	cmp	r3, #1
 800acc4:	d06c      	beq.n	800ada0 <USB_EPClearStall+0x14e>
 800acc6:	687a      	ldr	r2, [r7, #4]
 800acc8:	683b      	ldr	r3, [r7, #0]
 800acca:	781b      	ldrb	r3, [r3, #0]
 800accc:	009b      	lsls	r3, r3, #2
 800acce:	4413      	add	r3, r2
 800acd0:	881b      	ldrh	r3, [r3, #0]
 800acd2:	b29b      	uxth	r3, r3
 800acd4:	f423 43e0 	bic.w	r3, r3, #28672	; 0x7000
 800acd8:	f023 0340 	bic.w	r3, r3, #64	; 0x40
 800acdc:	81bb      	strh	r3, [r7, #12]
 800acde:	89bb      	ldrh	r3, [r7, #12]
 800ace0:	f083 0320 	eor.w	r3, r3, #32
 800ace4:	81bb      	strh	r3, [r7, #12]
 800ace6:	687a      	ldr	r2, [r7, #4]
 800ace8:	683b      	ldr	r3, [r7, #0]
 800acea:	781b      	ldrb	r3, [r3, #0]
 800acec:	009b      	lsls	r3, r3, #2
 800acee:	441a      	add	r2, r3
 800acf0:	89bb      	ldrh	r3, [r7, #12]
 800acf2:	f043 437f 	orr.w	r3, r3, #4278190080	; 0xff000000
 800acf6:	f443 037f 	orr.w	r3, r3, #16711680	; 0xff0000
 800acfa:	f443 4300 	orr.w	r3, r3, #32768	; 0x8000
 800acfe:	f043 0380 	orr.w	r3, r3, #128	; 0x80
 800ad02:	b29b      	uxth	r3, r3
 800ad04:	8013      	strh	r3, [r2, #0]
 800ad06:	e04b      	b.n	800ada0 <USB_EPClearStall+0x14e>
 800ad08:	687a      	ldr	r2, [r7, #4]
 800ad0a:	683b      	ldr	r3, [r7, #0]
 800ad0c:	781b      	ldrb	r3, [r3, #0]
 800ad0e:	009b      	lsls	r3, r3, #2
 800ad10:	4413      	add	r3, r2
 800ad12:	881b      	ldrh	r3, [r3, #0]
 800ad14:	82fb      	strh	r3, [r7, #22]
 800ad16:	8afb      	ldrh	r3, [r7, #22]
 800ad18:	f403 4380 	and.w	r3, r3, #16384	; 0x4000
 800ad1c:	2b00      	cmp	r3, #0
 800ad1e:	d01b      	beq.n	800ad58 <USB_EPClearStall+0x106>
 800ad20:	687a      	ldr	r2, [r7, #4]
 800ad22:	683b      	ldr	r3, [r7, #0]
 800ad24:	781b      	ldrb	r3, [r3, #0]
 800ad26:	009b      	lsls	r3, r3, #2
 800ad28:	4413      	add	r3, r2
 800ad2a:	881b      	ldrh	r3, [r3, #0]
 800ad2c:	b29b      	uxth	r3, r3
 800ad2e:	f423 43e0 	bic.w	r3, r3, #28672	; 0x7000
 800ad32:	f023 0370 	bic.w	r3, r3, #112	; 0x70
 800ad36:	82bb      	strh	r3, [r7, #20]
 800ad38:	687a      	ldr	r2, [r7, #4]
 800ad3a:	683b      	ldr	r3, [r7, #0]
 800ad3c:	781b      	ldrb	r3, [r3, #0]
 800ad3e:	009b      	lsls	r3, r3, #2
 800ad40:	441a      	add	r2, r3
 800ad42:	8abb      	ldrh	r3, [r7, #20]
 800ad44:	f043 437f 	orr.w	r3, r3, #4278190080	; 0xff000000
 800ad48:	f443 037f 	orr.w	r3, r3, #16711680	; 0xff0000
 800ad4c:	f443 4340 	orr.w	r3, r3, #49152	; 0xc000
 800ad50:	f043 0380 	orr.w	r3, r3, #128	; 0x80
 800ad54:	b29b      	uxth	r3, r3
 800ad56:	8013      	strh	r3, [r2, #0]
 800ad58:	687a      	ldr	r2, [r7, #4]
 800ad5a:	683b      	ldr	r3, [r7, #0]
 800ad5c:	781b      	ldrb	r3, [r3, #0]
 800ad5e:	009b      	lsls	r3, r3, #2
 800ad60:	4413      	add	r3, r2
 800ad62:	881b      	ldrh	r3, [r3, #0]
 800ad64:	b29b      	uxth	r3, r3
 800ad66:	f423 4380 	bic.w	r3, r3, #16384	; 0x4000
 800ad6a:	f023 0370 	bic.w	r3, r3, #112	; 0x70
 800ad6e:	827b      	strh	r3, [r7, #18]
 800ad70:	8a7b      	ldrh	r3, [r7, #18]
 800ad72:	f483 5380 	eor.w	r3, r3, #4096	; 0x1000
 800ad76:	827b      	strh	r3, [r7, #18]
 800ad78:	8a7b      	ldrh	r3, [r7, #18]
 800ad7a:	f483 5300 	eor.w	r3, r3, #8192	; 0x2000
 800ad7e:	827b      	strh	r3, [r7, #18]
 800ad80:	687a      	ldr	r2, [r7, #4]
 800ad82:	683b      	ldr	r3, [r7, #0]
 800ad84:	781b      	ldrb	r3, [r3, #0]
 800ad86:	009b      	lsls	r3, r3, #2
 800ad88:	441a      	add	r2, r3
 800ad8a:	8a7b      	ldrh	r3, [r7, #18]
 800ad8c:	f043 437f 	orr.w	r3, r3, #4278190080	; 0xff000000
 800ad90:	f443 037f 	orr.w	r3, r3, #16711680	; 0xff0000
 800ad94:	f443 4300 	orr.w	r3, r3, #32768	; 0x8000
 800ad98:	f043 0380 	orr.w	r3, r3, #128	; 0x80
 800ad9c:	b29b      	uxth	r3, r3
 800ad9e:	8013      	strh	r3, [r2, #0]
 800ada0:	2300      	movs	r3, #0
 800ada2:	4618      	mov	r0, r3
 800ada4:	371c      	adds	r7, #28
 800ada6:	46bd      	mov	sp, r7
 800ada8:	f85d 7b04 	ldr.w	r7, [sp], #4
 800adac:	4770      	bx	lr

0800adae <USB_SetDevAddress>:
 800adae:	b480      	push	{r7}
 800adb0:	b083      	sub	sp, #12
 800adb2:	af00      	add	r7, sp, #0
 800adb4:	6078      	str	r0, [r7, #4]
 800adb6:	460b      	mov	r3, r1
 800adb8:	70fb      	strb	r3, [r7, #3]
 800adba:	78fb      	ldrb	r3, [r7, #3]
 800adbc:	2b00      	cmp	r3, #0
 800adbe:	d103      	bne.n	800adc8 <USB_SetDevAddress+0x1a>
 800adc0:	687b      	ldr	r3, [r7, #4]
 800adc2:	2280      	movs	r2, #128	; 0x80
 800adc4:	f8a3 204c 	strh.w	r2, [r3, #76]	; 0x4c
 800adc8:	2300      	movs	r3, #0
 800adca:	4618      	mov	r0, r3
 800adcc:	370c      	adds	r7, #12
 800adce:	46bd      	mov	sp, r7
 800add0:	f85d 7b04 	ldr.w	r7, [sp], #4
 800add4:	4770      	bx	lr

0800add6 <USB_DevConnect>:
 800add6:	b480      	push	{r7}
 800add8:	b083      	sub	sp, #12
 800adda:	af00      	add	r7, sp, #0
 800addc:	6078      	str	r0, [r7, #4]
 800adde:	687b      	ldr	r3, [r7, #4]
 800ade0:	f8b3 3058 	ldrh.w	r3, [r3, #88]	; 0x58
 800ade4:	b29b      	uxth	r3, r3
 800ade6:	ea6f 4343 	mvn.w	r3, r3, lsl #17
 800adea:	ea6f 4353 	mvn.w	r3, r3, lsr #17
 800adee:	b29a      	uxth	r2, r3
 800adf0:	687b      	ldr	r3, [r7, #4]
 800adf2:	f8a3 2058 	strh.w	r2, [r3, #88]	; 0x58
 800adf6:	2300      	movs	r3, #0
 800adf8:	4618      	mov	r0, r3
 800adfa:	370c      	adds	r7, #12
 800adfc:	46bd      	mov	sp, r7
 800adfe:	f85d 7b04 	ldr.w	r7, [sp], #4
 800ae02:	4770      	bx	lr

0800ae04 <USB_ReadInterrupts>:
 800ae04:	b480      	push	{r7}
 800ae06:	b085      	sub	sp, #20
 800ae08:	af00      	add	r7, sp, #0
 800ae0a:	6078      	str	r0, [r7, #4]
 800ae0c:	687b      	ldr	r3, [r7, #4]
 800ae0e:	f8b3 3044 	ldrh.w	r3, [r3, #68]	; 0x44
 800ae12:	b29b      	uxth	r3, r3
 800ae14:	60fb      	str	r3, [r7, #12]
 800ae16:	68fb      	ldr	r3, [r7, #12]
 800ae18:	4618      	mov	r0, r3
 800ae1a:	3714      	adds	r7, #20
 800ae1c:	46bd      	mov	sp, r7
 800ae1e:	f85d 7b04 	ldr.w	r7, [sp], #4
 800ae22:	4770      	bx	lr

0800ae24 <USB_WritePMA>:
 800ae24:	b480      	push	{r7}
 800ae26:	b08b      	sub	sp, #44	; 0x2c
 800ae28:	af00      	add	r7, sp, #0
 800ae2a:	60f8      	str	r0, [r7, #12]
 800ae2c:	60b9      	str	r1, [r7, #8]
 800ae2e:	4611      	mov	r1, r2
 800ae30:	461a      	mov	r2, r3
 800ae32:	460b      	mov	r3, r1
 800ae34:	80fb      	strh	r3, [r7, #6]
 800ae36:	4613      	mov	r3, r2
 800ae38:	80bb      	strh	r3, [r7, #4]
 800ae3a:	88bb      	ldrh	r3, [r7, #4]
 800ae3c:	3301      	adds	r3, #1
 800ae3e:	085b      	lsrs	r3, r3, #1
 800ae40:	61bb      	str	r3, [r7, #24]
 800ae42:	68fb      	ldr	r3, [r7, #12]
 800ae44:	617b      	str	r3, [r7, #20]
 800ae46:	68bb      	ldr	r3, [r7, #8]
 800ae48:	61fb      	str	r3, [r7, #28]
 800ae4a:	88fa      	ldrh	r2, [r7, #6]
 800ae4c:	697b      	ldr	r3, [r7, #20]
 800ae4e:	4413      	add	r3, r2
 800ae50:	f503 6380 	add.w	r3, r3, #1024	; 0x400
 800ae54:	623b      	str	r3, [r7, #32]
 800ae56:	69bb      	ldr	r3, [r7, #24]
 800ae58:	627b      	str	r3, [r7, #36]	; 0x24
 800ae5a:	e01b      	b.n	800ae94 <USB_WritePMA+0x70>
 800ae5c:	69fb      	ldr	r3, [r7, #28]
 800ae5e:	781b      	ldrb	r3, [r3, #0]
 800ae60:	827b      	strh	r3, [r7, #18]
 800ae62:	69fb      	ldr	r3, [r7, #28]
 800ae64:	3301      	adds	r3, #1
 800ae66:	781b      	ldrb	r3, [r3, #0]
 800ae68:	021b      	lsls	r3, r3, #8
 800ae6a:	b21a      	sxth	r2, r3
 800ae6c:	f9b7 3012 	ldrsh.w	r3, [r7, #18]
 800ae70:	4313      	orrs	r3, r2
 800ae72:	b21b      	sxth	r3, r3
 800ae74:	827b      	strh	r3, [r7, #18]
 800ae76:	6a3b      	ldr	r3, [r7, #32]
 800ae78:	8a7a      	ldrh	r2, [r7, #18]
 800ae7a:	801a      	strh	r2, [r3, #0]
 800ae7c:	6a3b      	ldr	r3, [r7, #32]
 800ae7e:	3302      	adds	r3, #2
 800ae80:	623b      	str	r3, [r7, #32]
 800ae82:	69fb      	ldr	r3, [r7, #28]
 800ae84:	3301      	adds	r3, #1
 800ae86:	61fb      	str	r3, [r7, #28]
 800ae88:	69fb      	ldr	r3, [r7, #28]
 800ae8a:	3301      	adds	r3, #1
 800ae8c:	61fb      	str	r3, [r7, #28]
 800ae8e:	6a7b      	ldr	r3, [r7, #36]	; 0x24
 800ae90:	3b01      	subs	r3, #1
 800ae92:	627b      	str	r3, [r7, #36]	; 0x24
 800ae94:	6a7b      	ldr	r3, [r7, #36]	; 0x24
 800ae96:	2b00      	cmp	r3, #0
 800ae98:	d1e0      	bne.n	800ae5c <USB_WritePMA+0x38>
 800ae9a:	bf00      	nop
 800ae9c:	bf00      	nop
 800ae9e:	372c      	adds	r7, #44	; 0x2c
 800aea0:	46bd      	mov	sp, r7
 800aea2:	f85d 7b04 	ldr.w	r7, [sp], #4
 800aea6:	4770      	bx	lr

0800aea8 <USB_ReadPMA>:
 800aea8:	b480      	push	{r7}
 800aeaa:	b08b      	sub	sp, #44	; 0x2c
 800aeac:	af00      	add	r7, sp, #0
 800aeae:	60f8      	str	r0, [r7, #12]
 800aeb0:	60b9      	str	r1, [r7, #8]
 800aeb2:	4611      	mov	r1, r2
 800aeb4:	461a      	mov	r2, r3
 800aeb6:	460b      	mov	r3, r1
 800aeb8:	80fb      	strh	r3, [r7, #6]
 800aeba:	4613      	mov	r3, r2
 800aebc:	80bb      	strh	r3, [r7, #4]
 800aebe:	88bb      	ldrh	r3, [r7, #4]
 800aec0:	085b      	lsrs	r3, r3, #1
 800aec2:	b29b      	uxth	r3, r3
 800aec4:	61bb      	str	r3, [r7, #24]
 800aec6:	68fb      	ldr	r3, [r7, #12]
 800aec8:	617b      	str	r3, [r7, #20]
 800aeca:	68bb      	ldr	r3, [r7, #8]
 800aecc:	61fb      	str	r3, [r7, #28]
 800aece:	88fa      	ldrh	r2, [r7, #6]
 800aed0:	697b      	ldr	r3, [r7, #20]
 800aed2:	4413      	add	r3, r2
 800aed4:	f503 6380 	add.w	r3, r3, #1024	; 0x400
 800aed8:	623b      	str	r3, [r7, #32]
 800aeda:	69bb      	ldr	r3, [r7, #24]
 800aedc:	627b      	str	r3, [r7, #36]	; 0x24
 800aede:	e018      	b.n	800af12 <USB_ReadPMA+0x6a>
 800aee0:	6a3b      	ldr	r3, [r7, #32]
 800aee2:	881b      	ldrh	r3, [r3, #0]
 800aee4:	b29b      	uxth	r3, r3
 800aee6:	613b      	str	r3, [r7, #16]
 800aee8:	6a3b      	ldr	r3, [r7, #32]
 800aeea:	3302      	adds	r3, #2
 800aeec:	623b      	str	r3, [r7, #32]
 800aeee:	693b      	ldr	r3, [r7, #16]
 800aef0:	b2da      	uxtb	r2, r3
 800aef2:	69fb      	ldr	r3, [r7, #28]
 800aef4:	701a      	strb	r2, [r3, #0]
 800aef6:	69fb      	ldr	r3, [r7, #28]
 800aef8:	3301      	adds	r3, #1
 800aefa:	61fb      	str	r3, [r7, #28]
 800aefc:	693b      	ldr	r3, [r7, #16]
 800aefe:	0a1b      	lsrs	r3, r3, #8
 800af00:	b2da      	uxtb	r2, r3
 800af02:	69fb      	ldr	r3, [r7, #28]
 800af04:	701a      	strb	r2, [r3, #0]
 800af06:	69fb      	ldr	r3, [r7, #28]
 800af08:	3301      	adds	r3, #1
 800af0a:	61fb      	str	r3, [r7, #28]
 800af0c:	6a7b      	ldr	r3, [r7, #36]	; 0x24
 800af0e:	3b01      	subs	r3, #1
 800af10:	627b      	str	r3, [r7, #36]	; 0x24
 800af12:	6a7b      	ldr	r3, [r7, #36]	; 0x24
 800af14:	2b00      	cmp	r3, #0
 800af16:	d1e3      	bne.n	800aee0 <USB_ReadPMA+0x38>
 800af18:	88bb      	ldrh	r3, [r7, #4]
 800af1a:	f003 0301 	and.w	r3, r3, #1
 800af1e:	b29b      	uxth	r3, r3
 800af20:	2b00      	cmp	r3, #0
 800af22:	d007      	beq.n	800af34 <USB_ReadPMA+0x8c>
 800af24:	6a3b      	ldr	r3, [r7, #32]
 800af26:	881b      	ldrh	r3, [r3, #0]
 800af28:	b29b      	uxth	r3, r3
 800af2a:	613b      	str	r3, [r7, #16]
 800af2c:	693b      	ldr	r3, [r7, #16]
 800af2e:	b2da      	uxtb	r2, r3
 800af30:	69fb      	ldr	r3, [r7, #28]
 800af32:	701a      	strb	r2, [r3, #0]
 800af34:	bf00      	nop
 800af36:	372c      	adds	r7, #44	; 0x2c
 800af38:	46bd      	mov	sp, r7
 800af3a:	f85d 7b04 	ldr.w	r7, [sp], #4
 800af3e:	4770      	bx	lr

0800af40 <USBD_CDC_Init>:
 800af40:	b580      	push	{r7, lr}
 800af42:	b084      	sub	sp, #16
 800af44:	af00      	add	r7, sp, #0
 800af46:	6078      	str	r0, [r7, #4]
 800af48:	460b      	mov	r3, r1
 800af4a:	70fb      	strb	r3, [r7, #3]
 800af4c:	f44f 7007 	mov.w	r0, #540	; 0x21c
 800af50:	f002 f8a6 	bl	800d0a0 <USBD_static_malloc>
 800af54:	60f8      	str	r0, [r7, #12]
 800af56:	68fb      	ldr	r3, [r7, #12]
 800af58:	2b00      	cmp	r3, #0
 800af5a:	d105      	bne.n	800af68 <USBD_CDC_Init+0x28>
 800af5c:	687b      	ldr	r3, [r7, #4]
 800af5e:	2200      	movs	r2, #0
 800af60:	f8c3 22bc 	str.w	r2, [r3, #700]	; 0x2bc
 800af64:	2302      	movs	r3, #2
 800af66:	e066      	b.n	800b036 <USBD_CDC_Init+0xf6>
 800af68:	687b      	ldr	r3, [r7, #4]
 800af6a:	68fa      	ldr	r2, [r7, #12]
 800af6c:	f8c3 22bc 	str.w	r2, [r3, #700]	; 0x2bc
 800af70:	687b      	ldr	r3, [r7, #4]
 800af72:	7c1b      	ldrb	r3, [r3, #16]
 800af74:	2b00      	cmp	r3, #0
 800af76:	d119      	bne.n	800afac <USBD_CDC_Init+0x6c>
 800af78:	f44f 7300 	mov.w	r3, #512	; 0x200
 800af7c:	2202      	movs	r2, #2
 800af7e:	2181      	movs	r1, #129	; 0x81
 800af80:	6878      	ldr	r0, [r7, #4]
 800af82:	f001 ff34 	bl	800cdee <USBD_LL_OpenEP>
 800af86:	687b      	ldr	r3, [r7, #4]
 800af88:	2201      	movs	r2, #1
 800af8a:	871a      	strh	r2, [r3, #56]	; 0x38
 800af8c:	f44f 7300 	mov.w	r3, #512	; 0x200
 800af90:	2202      	movs	r2, #2
 800af92:	2101      	movs	r1, #1
 800af94:	6878      	ldr	r0, [r7, #4]
 800af96:	f001 ff2a 	bl	800cdee <USBD_LL_OpenEP>
 800af9a:	687b      	ldr	r3, [r7, #4]
 800af9c:	2201      	movs	r2, #1
 800af9e:	f8a3 2178 	strh.w	r2, [r3, #376]	; 0x178
 800afa2:	687b      	ldr	r3, [r7, #4]
 800afa4:	2210      	movs	r2, #16
 800afa6:	f8a3 204e 	strh.w	r2, [r3, #78]	; 0x4e
 800afaa:	e016      	b.n	800afda <USBD_CDC_Init+0x9a>
 800afac:	2340      	movs	r3, #64	; 0x40
 800afae:	2202      	movs	r2, #2
 800afb0:	2181      	movs	r1, #129	; 0x81
 800afb2:	6878      	ldr	r0, [r7, #4]
 800afb4:	f001 ff1b 	bl	800cdee <USBD_LL_OpenEP>
 800afb8:	687b      	ldr	r3, [r7, #4]
 800afba:	2201      	movs	r2, #1
 800afbc:	871a      	strh	r2, [r3, #56]	; 0x38
 800afbe:	2340      	movs	r3, #64	; 0x40
 800afc0:	2202      	movs	r2, #2
 800afc2:	2101      	movs	r1, #1
 800afc4:	6878      	ldr	r0, [r7, #4]
 800afc6:	f001 ff12 	bl	800cdee <USBD_LL_OpenEP>
 800afca:	687b      	ldr	r3, [r7, #4]
 800afcc:	2201      	movs	r2, #1
 800afce:	f8a3 2178 	strh.w	r2, [r3, #376]	; 0x178
 800afd2:	687b      	ldr	r3, [r7, #4]
 800afd4:	2210      	movs	r2, #16
 800afd6:	f8a3 204e 	strh.w	r2, [r3, #78]	; 0x4e
 800afda:	2308      	movs	r3, #8
 800afdc:	2203      	movs	r2, #3
 800afde:	2182      	movs	r1, #130	; 0x82
 800afe0:	6878      	ldr	r0, [r7, #4]
 800afe2:	f001 ff04 	bl	800cdee <USBD_LL_OpenEP>
 800afe6:	687b      	ldr	r3, [r7, #4]
 800afe8:	2201      	movs	r2, #1
 800afea:	f8a3 204c 	strh.w	r2, [r3, #76]	; 0x4c
 800afee:	687b      	ldr	r3, [r7, #4]
 800aff0:	f8d3 32c0 	ldr.w	r3, [r3, #704]	; 0x2c0
 800aff4:	681b      	ldr	r3, [r3, #0]
 800aff6:	4798      	blx	r3
 800aff8:	68fb      	ldr	r3, [r7, #12]
 800affa:	2200      	movs	r2, #0
 800affc:	f8c3 2214 	str.w	r2, [r3, #532]	; 0x214
 800b000:	68fb      	ldr	r3, [r7, #12]
 800b002:	2200      	movs	r2, #0
 800b004:	f8c3 2218 	str.w	r2, [r3, #536]	; 0x218
 800b008:	687b      	ldr	r3, [r7, #4]
 800b00a:	7c1b      	ldrb	r3, [r3, #16]
 800b00c:	2b00      	cmp	r3, #0
 800b00e:	d109      	bne.n	800b024 <USBD_CDC_Init+0xe4>
 800b010:	68fb      	ldr	r3, [r7, #12]
 800b012:	f8d3 2204 	ldr.w	r2, [r3, #516]	; 0x204
 800b016:	f44f 7300 	mov.w	r3, #512	; 0x200
 800b01a:	2101      	movs	r1, #1
 800b01c:	6878      	ldr	r0, [r7, #4]
 800b01e:	f001 ffd5 	bl	800cfcc <USBD_LL_PrepareReceive>
 800b022:	e007      	b.n	800b034 <USBD_CDC_Init+0xf4>
 800b024:	68fb      	ldr	r3, [r7, #12]
 800b026:	f8d3 2204 	ldr.w	r2, [r3, #516]	; 0x204
 800b02a:	2340      	movs	r3, #64	; 0x40
 800b02c:	2101      	movs	r1, #1
 800b02e:	6878      	ldr	r0, [r7, #4]
 800b030:	f001 ffcc 	bl	800cfcc <USBD_LL_PrepareReceive>
 800b034:	2300      	movs	r3, #0
 800b036:	4618      	mov	r0, r3
 800b038:	3710      	adds	r7, #16
 800b03a:	46bd      	mov	sp, r7
 800b03c:	bd80      	pop	{r7, pc}

0800b03e <USBD_CDC_DeInit>:
 800b03e:	b580      	push	{r7, lr}
 800b040:	b082      	sub	sp, #8
 800b042:	af00      	add	r7, sp, #0
 800b044:	6078      	str	r0, [r7, #4]
 800b046:	460b      	mov	r3, r1
 800b048:	70fb      	strb	r3, [r7, #3]
 800b04a:	2181      	movs	r1, #129	; 0x81
 800b04c:	6878      	ldr	r0, [r7, #4]
 800b04e:	f001 fef4 	bl	800ce3a <USBD_LL_CloseEP>
 800b052:	687b      	ldr	r3, [r7, #4]
 800b054:	2200      	movs	r2, #0
 800b056:	871a      	strh	r2, [r3, #56]	; 0x38
 800b058:	2101      	movs	r1, #1
 800b05a:	6878      	ldr	r0, [r7, #4]
 800b05c:	f001 feed 	bl	800ce3a <USBD_LL_CloseEP>
 800b060:	687b      	ldr	r3, [r7, #4]
 800b062:	2200      	movs	r2, #0
 800b064:	f8a3 2178 	strh.w	r2, [r3, #376]	; 0x178
 800b068:	2182      	movs	r1, #130	; 0x82
 800b06a:	6878      	ldr	r0, [r7, #4]
 800b06c:	f001 fee5 	bl	800ce3a <USBD_LL_CloseEP>
 800b070:	687b      	ldr	r3, [r7, #4]
 800b072:	2200      	movs	r2, #0
 800b074:	f8a3 204c 	strh.w	r2, [r3, #76]	; 0x4c
 800b078:	687b      	ldr	r3, [r7, #4]
 800b07a:	2200      	movs	r2, #0
 800b07c:	f8a3 204e 	strh.w	r2, [r3, #78]	; 0x4e
 800b080:	687b      	ldr	r3, [r7, #4]
 800b082:	f8d3 32bc 	ldr.w	r3, [r3, #700]	; 0x2bc
 800b086:	2b00      	cmp	r3, #0
 800b088:	d00e      	beq.n	800b0a8 <USBD_CDC_DeInit+0x6a>
 800b08a:	687b      	ldr	r3, [r7, #4]
 800b08c:	f8d3 32c0 	ldr.w	r3, [r3, #704]	; 0x2c0
 800b090:	685b      	ldr	r3, [r3, #4]
 800b092:	4798      	blx	r3
 800b094:	687b      	ldr	r3, [r7, #4]
 800b096:	f8d3 32bc 	ldr.w	r3, [r3, #700]	; 0x2bc
 800b09a:	4618      	mov	r0, r3
 800b09c:	f002 f80e 	bl	800d0bc <USBD_static_free>
 800b0a0:	687b      	ldr	r3, [r7, #4]
 800b0a2:	2200      	movs	r2, #0
 800b0a4:	f8c3 22bc 	str.w	r2, [r3, #700]	; 0x2bc
 800b0a8:	2300      	movs	r3, #0
 800b0aa:	4618      	mov	r0, r3
 800b0ac:	3708      	adds	r7, #8
 800b0ae:	46bd      	mov	sp, r7
 800b0b0:	bd80      	pop	{r7, pc}
	...

0800b0b4 <USBD_CDC_Setup>:
 800b0b4:	b580      	push	{r7, lr}
 800b0b6:	b086      	sub	sp, #24
 800b0b8:	af00      	add	r7, sp, #0
 800b0ba:	6078      	str	r0, [r7, #4]
 800b0bc:	6039      	str	r1, [r7, #0]
 800b0be:	687b      	ldr	r3, [r7, #4]
 800b0c0:	f8d3 32bc 	ldr.w	r3, [r3, #700]	; 0x2bc
 800b0c4:	613b      	str	r3, [r7, #16]
 800b0c6:	2300      	movs	r3, #0
 800b0c8:	737b      	strb	r3, [r7, #13]
 800b0ca:	2300      	movs	r3, #0
 800b0cc:	817b      	strh	r3, [r7, #10]
 800b0ce:	2300      	movs	r3, #0
 800b0d0:	75fb      	strb	r3, [r7, #23]
 800b0d2:	693b      	ldr	r3, [r7, #16]
 800b0d4:	2b00      	cmp	r3, #0
 800b0d6:	d101      	bne.n	800b0dc <USBD_CDC_Setup+0x28>
 800b0d8:	2303      	movs	r3, #3
 800b0da:	e0af      	b.n	800b23c <USBD_CDC_Setup+0x188>
 800b0dc:	683b      	ldr	r3, [r7, #0]
 800b0de:	781b      	ldrb	r3, [r3, #0]
 800b0e0:	f003 0360 	and.w	r3, r3, #96	; 0x60
 800b0e4:	2b00      	cmp	r3, #0
 800b0e6:	d03f      	beq.n	800b168 <USBD_CDC_Setup+0xb4>
 800b0e8:	2b20      	cmp	r3, #32
 800b0ea:	f040 809f 	bne.w	800b22c <USBD_CDC_Setup+0x178>
 800b0ee:	683b      	ldr	r3, [r7, #0]
 800b0f0:	88db      	ldrh	r3, [r3, #6]
 800b0f2:	2b00      	cmp	r3, #0
 800b0f4:	d02e      	beq.n	800b154 <USBD_CDC_Setup+0xa0>
 800b0f6:	683b      	ldr	r3, [r7, #0]
 800b0f8:	781b      	ldrb	r3, [r3, #0]
 800b0fa:	b25b      	sxtb	r3, r3
 800b0fc:	2b00      	cmp	r3, #0
 800b0fe:	da16      	bge.n	800b12e <USBD_CDC_Setup+0x7a>
 800b100:	687b      	ldr	r3, [r7, #4]
 800b102:	f8d3 32c0 	ldr.w	r3, [r3, #704]	; 0x2c0
 800b106:	689b      	ldr	r3, [r3, #8]
 800b108:	683a      	ldr	r2, [r7, #0]
 800b10a:	7850      	ldrb	r0, [r2, #1]
 800b10c:	6939      	ldr	r1, [r7, #16]
 800b10e:	683a      	ldr	r2, [r7, #0]
 800b110:	88d2      	ldrh	r2, [r2, #6]
 800b112:	4798      	blx	r3
 800b114:	683b      	ldr	r3, [r7, #0]
 800b116:	88db      	ldrh	r3, [r3, #6]
 800b118:	2b07      	cmp	r3, #7
 800b11a:	bf28      	it	cs
 800b11c:	2307      	movcs	r3, #7
 800b11e:	81fb      	strh	r3, [r7, #14]
 800b120:	693b      	ldr	r3, [r7, #16]
 800b122:	89fa      	ldrh	r2, [r7, #14]
 800b124:	4619      	mov	r1, r3
 800b126:	6878      	ldr	r0, [r7, #4]
 800b128:	f001 fa9f 	bl	800c66a <USBD_CtlSendData>
 800b12c:	e085      	b.n	800b23a <USBD_CDC_Setup+0x186>
 800b12e:	683b      	ldr	r3, [r7, #0]
 800b130:	785a      	ldrb	r2, [r3, #1]
 800b132:	693b      	ldr	r3, [r7, #16]
 800b134:	f883 2200 	strb.w	r2, [r3, #512]	; 0x200
 800b138:	683b      	ldr	r3, [r7, #0]
 800b13a:	88db      	ldrh	r3, [r3, #6]
 800b13c:	b2da      	uxtb	r2, r3
 800b13e:	693b      	ldr	r3, [r7, #16]
 800b140:	f883 2201 	strb.w	r2, [r3, #513]	; 0x201
 800b144:	6939      	ldr	r1, [r7, #16]
 800b146:	683b      	ldr	r3, [r7, #0]
 800b148:	88db      	ldrh	r3, [r3, #6]
 800b14a:	461a      	mov	r2, r3
 800b14c:	6878      	ldr	r0, [r7, #4]
 800b14e:	f001 fab8 	bl	800c6c2 <USBD_CtlPrepareRx>
 800b152:	e072      	b.n	800b23a <USBD_CDC_Setup+0x186>
 800b154:	687b      	ldr	r3, [r7, #4]
 800b156:	f8d3 32c0 	ldr.w	r3, [r3, #704]	; 0x2c0
 800b15a:	689b      	ldr	r3, [r3, #8]
 800b15c:	683a      	ldr	r2, [r7, #0]
 800b15e:	7850      	ldrb	r0, [r2, #1]
 800b160:	2200      	movs	r2, #0
 800b162:	6839      	ldr	r1, [r7, #0]
 800b164:	4798      	blx	r3
 800b166:	e068      	b.n	800b23a <USBD_CDC_Setup+0x186>
 800b168:	683b      	ldr	r3, [r7, #0]
 800b16a:	785b      	ldrb	r3, [r3, #1]
 800b16c:	2b0b      	cmp	r3, #11
 800b16e:	d852      	bhi.n	800b216 <USBD_CDC_Setup+0x162>
 800b170:	a201      	add	r2, pc, #4	; (adr r2, 800b178 <USBD_CDC_Setup+0xc4>)
 800b172:	f852 f023 	ldr.w	pc, [r2, r3, lsl #2]
 800b176:	bf00      	nop
 800b178:	0800b1a9 	.word	0x0800b1a9
 800b17c:	0800b225 	.word	0x0800b225
 800b180:	0800b217 	.word	0x0800b217
 800b184:	0800b217 	.word	0x0800b217
 800b188:	0800b217 	.word	0x0800b217
 800b18c:	0800b217 	.word	0x0800b217
 800b190:	0800b217 	.word	0x0800b217
 800b194:	0800b217 	.word	0x0800b217
 800b198:	0800b217 	.word	0x0800b217
 800b19c:	0800b217 	.word	0x0800b217
 800b1a0:	0800b1d3 	.word	0x0800b1d3
 800b1a4:	0800b1fd 	.word	0x0800b1fd
 800b1a8:	687b      	ldr	r3, [r7, #4]
 800b1aa:	f893 329c 	ldrb.w	r3, [r3, #668]	; 0x29c
 800b1ae:	b2db      	uxtb	r3, r3
 800b1b0:	2b03      	cmp	r3, #3
 800b1b2:	d107      	bne.n	800b1c4 <USBD_CDC_Setup+0x110>
 800b1b4:	f107 030a 	add.w	r3, r7, #10
 800b1b8:	2202      	movs	r2, #2
 800b1ba:	4619      	mov	r1, r3
 800b1bc:	6878      	ldr	r0, [r7, #4]
 800b1be:	f001 fa54 	bl	800c66a <USBD_CtlSendData>
 800b1c2:	e032      	b.n	800b22a <USBD_CDC_Setup+0x176>
 800b1c4:	6839      	ldr	r1, [r7, #0]
 800b1c6:	6878      	ldr	r0, [r7, #4]
 800b1c8:	f001 f9de 	bl	800c588 <USBD_CtlError>
 800b1cc:	2303      	movs	r3, #3
 800b1ce:	75fb      	strb	r3, [r7, #23]
 800b1d0:	e02b      	b.n	800b22a <USBD_CDC_Setup+0x176>
 800b1d2:	687b      	ldr	r3, [r7, #4]
 800b1d4:	f893 329c 	ldrb.w	r3, [r3, #668]	; 0x29c
 800b1d8:	b2db      	uxtb	r3, r3
 800b1da:	2b03      	cmp	r3, #3
 800b1dc:	d107      	bne.n	800b1ee <USBD_CDC_Setup+0x13a>
 800b1de:	f107 030d 	add.w	r3, r7, #13
 800b1e2:	2201      	movs	r2, #1
 800b1e4:	4619      	mov	r1, r3
 800b1e6:	6878      	ldr	r0, [r7, #4]
 800b1e8:	f001 fa3f 	bl	800c66a <USBD_CtlSendData>
 800b1ec:	e01d      	b.n	800b22a <USBD_CDC_Setup+0x176>
 800b1ee:	6839      	ldr	r1, [r7, #0]
 800b1f0:	6878      	ldr	r0, [r7, #4]
 800b1f2:	f001 f9c9 	bl	800c588 <USBD_CtlError>
 800b1f6:	2303      	movs	r3, #3
 800b1f8:	75fb      	strb	r3, [r7, #23]
 800b1fa:	e016      	b.n	800b22a <USBD_CDC_Setup+0x176>
 800b1fc:	687b      	ldr	r3, [r7, #4]
 800b1fe:	f893 329c 	ldrb.w	r3, [r3, #668]	; 0x29c
 800b202:	b2db      	uxtb	r3, r3
 800b204:	2b03      	cmp	r3, #3
 800b206:	d00f      	beq.n	800b228 <USBD_CDC_Setup+0x174>
 800b208:	6839      	ldr	r1, [r7, #0]
 800b20a:	6878      	ldr	r0, [r7, #4]
 800b20c:	f001 f9bc 	bl	800c588 <USBD_CtlError>
 800b210:	2303      	movs	r3, #3
 800b212:	75fb      	strb	r3, [r7, #23]
 800b214:	e008      	b.n	800b228 <USBD_CDC_Setup+0x174>
 800b216:	6839      	ldr	r1, [r7, #0]
 800b218:	6878      	ldr	r0, [r7, #4]
 800b21a:	f001 f9b5 	bl	800c588 <USBD_CtlError>
 800b21e:	2303      	movs	r3, #3
 800b220:	75fb      	strb	r3, [r7, #23]
 800b222:	e002      	b.n	800b22a <USBD_CDC_Setup+0x176>
 800b224:	bf00      	nop
 800b226:	e008      	b.n	800b23a <USBD_CDC_Setup+0x186>
 800b228:	bf00      	nop
 800b22a:	e006      	b.n	800b23a <USBD_CDC_Setup+0x186>
 800b22c:	6839      	ldr	r1, [r7, #0]
 800b22e:	6878      	ldr	r0, [r7, #4]
 800b230:	f001 f9aa 	bl	800c588 <USBD_CtlError>
 800b234:	2303      	movs	r3, #3
 800b236:	75fb      	strb	r3, [r7, #23]
 800b238:	bf00      	nop
 800b23a:	7dfb      	ldrb	r3, [r7, #23]
 800b23c:	4618      	mov	r0, r3
 800b23e:	3718      	adds	r7, #24
 800b240:	46bd      	mov	sp, r7
 800b242:	bd80      	pop	{r7, pc}

0800b244 <USBD_CDC_DataIn>:
 800b244:	b580      	push	{r7, lr}
 800b246:	b084      	sub	sp, #16
 800b248:	af00      	add	r7, sp, #0
 800b24a:	6078      	str	r0, [r7, #4]
 800b24c:	460b      	mov	r3, r1
 800b24e:	70fb      	strb	r3, [r7, #3]
 800b250:	687b      	ldr	r3, [r7, #4]
 800b252:	f8d3 32c4 	ldr.w	r3, [r3, #708]	; 0x2c4
 800b256:	60fb      	str	r3, [r7, #12]
 800b258:	687b      	ldr	r3, [r7, #4]
 800b25a:	f8d3 32bc 	ldr.w	r3, [r3, #700]	; 0x2bc
 800b25e:	2b00      	cmp	r3, #0
 800b260:	d101      	bne.n	800b266 <USBD_CDC_DataIn+0x22>
 800b262:	2303      	movs	r3, #3
 800b264:	e04f      	b.n	800b306 <USBD_CDC_DataIn+0xc2>
 800b266:	687b      	ldr	r3, [r7, #4]
 800b268:	f8d3 32bc 	ldr.w	r3, [r3, #700]	; 0x2bc
 800b26c:	60bb      	str	r3, [r7, #8]
 800b26e:	78fa      	ldrb	r2, [r7, #3]
 800b270:	6879      	ldr	r1, [r7, #4]
 800b272:	4613      	mov	r3, r2
 800b274:	009b      	lsls	r3, r3, #2
 800b276:	4413      	add	r3, r2
 800b278:	009b      	lsls	r3, r3, #2
 800b27a:	440b      	add	r3, r1
 800b27c:	3318      	adds	r3, #24
 800b27e:	681b      	ldr	r3, [r3, #0]
 800b280:	2b00      	cmp	r3, #0
 800b282:	d029      	beq.n	800b2d8 <USBD_CDC_DataIn+0x94>
 800b284:	78fa      	ldrb	r2, [r7, #3]
 800b286:	6879      	ldr	r1, [r7, #4]
 800b288:	4613      	mov	r3, r2
 800b28a:	009b      	lsls	r3, r3, #2
 800b28c:	4413      	add	r3, r2
 800b28e:	009b      	lsls	r3, r3, #2
 800b290:	440b      	add	r3, r1
 800b292:	3318      	adds	r3, #24
 800b294:	681a      	ldr	r2, [r3, #0]
 800b296:	78f9      	ldrb	r1, [r7, #3]
 800b298:	68f8      	ldr	r0, [r7, #12]
 800b29a:	460b      	mov	r3, r1
 800b29c:	009b      	lsls	r3, r3, #2
 800b29e:	440b      	add	r3, r1
 800b2a0:	00db      	lsls	r3, r3, #3
 800b2a2:	4403      	add	r3, r0
 800b2a4:	3320      	adds	r3, #32
 800b2a6:	681b      	ldr	r3, [r3, #0]
 800b2a8:	fbb2 f1f3 	udiv	r1, r2, r3
 800b2ac:	fb01 f303 	mul.w	r3, r1, r3
 800b2b0:	1ad3      	subs	r3, r2, r3
 800b2b2:	2b00      	cmp	r3, #0
 800b2b4:	d110      	bne.n	800b2d8 <USBD_CDC_DataIn+0x94>
 800b2b6:	78fa      	ldrb	r2, [r7, #3]
 800b2b8:	6879      	ldr	r1, [r7, #4]
 800b2ba:	4613      	mov	r3, r2
 800b2bc:	009b      	lsls	r3, r3, #2
 800b2be:	4413      	add	r3, r2
 800b2c0:	009b      	lsls	r3, r3, #2
 800b2c2:	440b      	add	r3, r1
 800b2c4:	3318      	adds	r3, #24
 800b2c6:	2200      	movs	r2, #0
 800b2c8:	601a      	str	r2, [r3, #0]
 800b2ca:	78f9      	ldrb	r1, [r7, #3]
 800b2cc:	2300      	movs	r3, #0
 800b2ce:	2200      	movs	r2, #0
 800b2d0:	6878      	ldr	r0, [r7, #4]
 800b2d2:	f001 fe5a 	bl	800cf8a <USBD_LL_Transmit>
 800b2d6:	e015      	b.n	800b304 <USBD_CDC_DataIn+0xc0>
 800b2d8:	68bb      	ldr	r3, [r7, #8]
 800b2da:	2200      	movs	r2, #0
 800b2dc:	f8c3 2214 	str.w	r2, [r3, #532]	; 0x214
 800b2e0:	687b      	ldr	r3, [r7, #4]
 800b2e2:	f8d3 32c0 	ldr.w	r3, [r3, #704]	; 0x2c0
 800b2e6:	691b      	ldr	r3, [r3, #16]
 800b2e8:	2b00      	cmp	r3, #0
 800b2ea:	d00b      	beq.n	800b304 <USBD_CDC_DataIn+0xc0>
 800b2ec:	687b      	ldr	r3, [r7, #4]
 800b2ee:	f8d3 32c0 	ldr.w	r3, [r3, #704]	; 0x2c0
 800b2f2:	691b      	ldr	r3, [r3, #16]
 800b2f4:	68ba      	ldr	r2, [r7, #8]
 800b2f6:	f8d2 0208 	ldr.w	r0, [r2, #520]	; 0x208
 800b2fa:	68ba      	ldr	r2, [r7, #8]
 800b2fc:	f502 7104 	add.w	r1, r2, #528	; 0x210
 800b300:	78fa      	ldrb	r2, [r7, #3]
 800b302:	4798      	blx	r3
 800b304:	2300      	movs	r3, #0
 800b306:	4618      	mov	r0, r3
 800b308:	3710      	adds	r7, #16
 800b30a:	46bd      	mov	sp, r7
 800b30c:	bd80      	pop	{r7, pc}

0800b30e <USBD_CDC_DataOut>:
 800b30e:	b580      	push	{r7, lr}
 800b310:	b084      	sub	sp, #16
 800b312:	af00      	add	r7, sp, #0
 800b314:	6078      	str	r0, [r7, #4]
 800b316:	460b      	mov	r3, r1
 800b318:	70fb      	strb	r3, [r7, #3]
 800b31a:	687b      	ldr	r3, [r7, #4]
 800b31c:	f8d3 32bc 	ldr.w	r3, [r3, #700]	; 0x2bc
 800b320:	60fb      	str	r3, [r7, #12]
 800b322:	687b      	ldr	r3, [r7, #4]
 800b324:	f8d3 32bc 	ldr.w	r3, [r3, #700]	; 0x2bc
 800b328:	2b00      	cmp	r3, #0
 800b32a:	d101      	bne.n	800b330 <USBD_CDC_DataOut+0x22>
 800b32c:	2303      	movs	r3, #3
 800b32e:	e015      	b.n	800b35c <USBD_CDC_DataOut+0x4e>
 800b330:	78fb      	ldrb	r3, [r7, #3]
 800b332:	4619      	mov	r1, r3
 800b334:	6878      	ldr	r0, [r7, #4]
 800b336:	f001 fe6a 	bl	800d00e <USBD_LL_GetRxDataSize>
 800b33a:	4602      	mov	r2, r0
 800b33c:	68fb      	ldr	r3, [r7, #12]
 800b33e:	f8c3 220c 	str.w	r2, [r3, #524]	; 0x20c
 800b342:	687b      	ldr	r3, [r7, #4]
 800b344:	f8d3 32c0 	ldr.w	r3, [r3, #704]	; 0x2c0
 800b348:	68db      	ldr	r3, [r3, #12]
 800b34a:	68fa      	ldr	r2, [r7, #12]
 800b34c:	f8d2 0204 	ldr.w	r0, [r2, #516]	; 0x204
 800b350:	68fa      	ldr	r2, [r7, #12]
 800b352:	f502 7203 	add.w	r2, r2, #524	; 0x20c
 800b356:	4611      	mov	r1, r2
 800b358:	4798      	blx	r3
 800b35a:	2300      	movs	r3, #0
 800b35c:	4618      	mov	r0, r3
 800b35e:	3710      	adds	r7, #16
 800b360:	46bd      	mov	sp, r7
 800b362:	bd80      	pop	{r7, pc}

0800b364 <USBD_CDC_EP0_RxReady>:
 800b364:	b580      	push	{r7, lr}
 800b366:	b084      	sub	sp, #16
 800b368:	af00      	add	r7, sp, #0
 800b36a:	6078      	str	r0, [r7, #4]
 800b36c:	687b      	ldr	r3, [r7, #4]
 800b36e:	f8d3 32bc 	ldr.w	r3, [r3, #700]	; 0x2bc
 800b372:	60fb      	str	r3, [r7, #12]
 800b374:	68fb      	ldr	r3, [r7, #12]
 800b376:	2b00      	cmp	r3, #0
 800b378:	d101      	bne.n	800b37e <USBD_CDC_EP0_RxReady+0x1a>
 800b37a:	2303      	movs	r3, #3
 800b37c:	e01b      	b.n	800b3b6 <USBD_CDC_EP0_RxReady+0x52>
 800b37e:	687b      	ldr	r3, [r7, #4]
 800b380:	f8d3 32c0 	ldr.w	r3, [r3, #704]	; 0x2c0
 800b384:	2b00      	cmp	r3, #0
 800b386:	d015      	beq.n	800b3b4 <USBD_CDC_EP0_RxReady+0x50>
 800b388:	68fb      	ldr	r3, [r7, #12]
 800b38a:	f893 3200 	ldrb.w	r3, [r3, #512]	; 0x200
 800b38e:	2bff      	cmp	r3, #255	; 0xff
 800b390:	d010      	beq.n	800b3b4 <USBD_CDC_EP0_RxReady+0x50>
 800b392:	687b      	ldr	r3, [r7, #4]
 800b394:	f8d3 32c0 	ldr.w	r3, [r3, #704]	; 0x2c0
 800b398:	689b      	ldr	r3, [r3, #8]
 800b39a:	68fa      	ldr	r2, [r7, #12]
 800b39c:	f892 0200 	ldrb.w	r0, [r2, #512]	; 0x200
 800b3a0:	68f9      	ldr	r1, [r7, #12]
 800b3a2:	68fa      	ldr	r2, [r7, #12]
 800b3a4:	f892 2201 	ldrb.w	r2, [r2, #513]	; 0x201
 800b3a8:	b292      	uxth	r2, r2
 800b3aa:	4798      	blx	r3
 800b3ac:	68fb      	ldr	r3, [r7, #12]
 800b3ae:	22ff      	movs	r2, #255	; 0xff
 800b3b0:	f883 2200 	strb.w	r2, [r3, #512]	; 0x200
 800b3b4:	2300      	movs	r3, #0
 800b3b6:	4618      	mov	r0, r3
 800b3b8:	3710      	adds	r7, #16
 800b3ba:	46bd      	mov	sp, r7
 800b3bc:	bd80      	pop	{r7, pc}
	...

0800b3c0 <USBD_CDC_GetFSCfgDesc>:
 800b3c0:	b480      	push	{r7}
 800b3c2:	b083      	sub	sp, #12
 800b3c4:	af00      	add	r7, sp, #0
 800b3c6:	6078      	str	r0, [r7, #4]
 800b3c8:	687b      	ldr	r3, [r7, #4]
 800b3ca:	2243      	movs	r2, #67	; 0x43
 800b3cc:	801a      	strh	r2, [r3, #0]
 800b3ce:	4b03      	ldr	r3, [pc, #12]	; (800b3dc <USBD_CDC_GetFSCfgDesc+0x1c>)
 800b3d0:	4618      	mov	r0, r3
 800b3d2:	370c      	adds	r7, #12
 800b3d4:	46bd      	mov	sp, r7
 800b3d6:	f85d 7b04 	ldr.w	r7, [sp], #4
 800b3da:	4770      	bx	lr
 800b3dc:	200000bc 	.word	0x200000bc

0800b3e0 <USBD_CDC_GetHSCfgDesc>:
 800b3e0:	b480      	push	{r7}
 800b3e2:	b083      	sub	sp, #12
 800b3e4:	af00      	add	r7, sp, #0
 800b3e6:	6078      	str	r0, [r7, #4]
 800b3e8:	687b      	ldr	r3, [r7, #4]
 800b3ea:	2243      	movs	r2, #67	; 0x43
 800b3ec:	801a      	strh	r2, [r3, #0]
 800b3ee:	4b03      	ldr	r3, [pc, #12]	; (800b3fc <USBD_CDC_GetHSCfgDesc+0x1c>)
 800b3f0:	4618      	mov	r0, r3
 800b3f2:	370c      	adds	r7, #12
 800b3f4:	46bd      	mov	sp, r7
 800b3f6:	f85d 7b04 	ldr.w	r7, [sp], #4
 800b3fa:	4770      	bx	lr
 800b3fc:	20000078 	.word	0x20000078

0800b400 <USBD_CDC_GetOtherSpeedCfgDesc>:
 800b400:	b480      	push	{r7}
 800b402:	b083      	sub	sp, #12
 800b404:	af00      	add	r7, sp, #0
 800b406:	6078      	str	r0, [r7, #4]
 800b408:	687b      	ldr	r3, [r7, #4]
 800b40a:	2243      	movs	r2, #67	; 0x43
 800b40c:	801a      	strh	r2, [r3, #0]
 800b40e:	4b03      	ldr	r3, [pc, #12]	; (800b41c <USBD_CDC_GetOtherSpeedCfgDesc+0x1c>)
 800b410:	4618      	mov	r0, r3
 800b412:	370c      	adds	r7, #12
 800b414:	46bd      	mov	sp, r7
 800b416:	f85d 7b04 	ldr.w	r7, [sp], #4
 800b41a:	4770      	bx	lr
 800b41c:	20000100 	.word	0x20000100

0800b420 <USBD_CDC_GetDeviceQualifierDescriptor>:
 800b420:	b480      	push	{r7}
 800b422:	b083      	sub	sp, #12
 800b424:	af00      	add	r7, sp, #0
 800b426:	6078      	str	r0, [r7, #4]
 800b428:	687b      	ldr	r3, [r7, #4]
 800b42a:	220a      	movs	r2, #10
 800b42c:	801a      	strh	r2, [r3, #0]
 800b42e:	4b03      	ldr	r3, [pc, #12]	; (800b43c <USBD_CDC_GetDeviceQualifierDescriptor+0x1c>)
 800b430:	4618      	mov	r0, r3
 800b432:	370c      	adds	r7, #12
 800b434:	46bd      	mov	sp, r7
 800b436:	f85d 7b04 	ldr.w	r7, [sp], #4
 800b43a:	4770      	bx	lr
 800b43c:	20000034 	.word	0x20000034

0800b440 <USBD_CDC_RegisterInterface>:
 800b440:	b480      	push	{r7}
 800b442:	b083      	sub	sp, #12
 800b444:	af00      	add	r7, sp, #0
 800b446:	6078      	str	r0, [r7, #4]
 800b448:	6039      	str	r1, [r7, #0]
 800b44a:	683b      	ldr	r3, [r7, #0]
 800b44c:	2b00      	cmp	r3, #0
 800b44e:	d101      	bne.n	800b454 <USBD_CDC_RegisterInterface+0x14>
 800b450:	2303      	movs	r3, #3
 800b452:	e004      	b.n	800b45e <USBD_CDC_RegisterInterface+0x1e>
 800b454:	687b      	ldr	r3, [r7, #4]
 800b456:	683a      	ldr	r2, [r7, #0]
 800b458:	f8c3 22c0 	str.w	r2, [r3, #704]	; 0x2c0
 800b45c:	2300      	movs	r3, #0
 800b45e:	4618      	mov	r0, r3
 800b460:	370c      	adds	r7, #12
 800b462:	46bd      	mov	sp, r7
 800b464:	f85d 7b04 	ldr.w	r7, [sp], #4
 800b468:	4770      	bx	lr

0800b46a <USBD_CDC_SetTxBuffer>:
 800b46a:	b480      	push	{r7}
 800b46c:	b087      	sub	sp, #28
 800b46e:	af00      	add	r7, sp, #0
 800b470:	60f8      	str	r0, [r7, #12]
 800b472:	60b9      	str	r1, [r7, #8]
 800b474:	607a      	str	r2, [r7, #4]
 800b476:	68fb      	ldr	r3, [r7, #12]
 800b478:	f8d3 32bc 	ldr.w	r3, [r3, #700]	; 0x2bc
 800b47c:	617b      	str	r3, [r7, #20]
 800b47e:	697b      	ldr	r3, [r7, #20]
 800b480:	2b00      	cmp	r3, #0
 800b482:	d101      	bne.n	800b488 <USBD_CDC_SetTxBuffer+0x1e>
 800b484:	2303      	movs	r3, #3
 800b486:	e008      	b.n	800b49a <USBD_CDC_SetTxBuffer+0x30>
 800b488:	697b      	ldr	r3, [r7, #20]
 800b48a:	68ba      	ldr	r2, [r7, #8]
 800b48c:	f8c3 2208 	str.w	r2, [r3, #520]	; 0x208
 800b490:	697b      	ldr	r3, [r7, #20]
 800b492:	687a      	ldr	r2, [r7, #4]
 800b494:	f8c3 2210 	str.w	r2, [r3, #528]	; 0x210
 800b498:	2300      	movs	r3, #0
 800b49a:	4618      	mov	r0, r3
 800b49c:	371c      	adds	r7, #28
 800b49e:	46bd      	mov	sp, r7
 800b4a0:	f85d 7b04 	ldr.w	r7, [sp], #4
 800b4a4:	4770      	bx	lr

0800b4a6 <USBD_CDC_SetRxBuffer>:
 800b4a6:	b480      	push	{r7}
 800b4a8:	b085      	sub	sp, #20
 800b4aa:	af00      	add	r7, sp, #0
 800b4ac:	6078      	str	r0, [r7, #4]
 800b4ae:	6039      	str	r1, [r7, #0]
 800b4b0:	687b      	ldr	r3, [r7, #4]
 800b4b2:	f8d3 32bc 	ldr.w	r3, [r3, #700]	; 0x2bc
 800b4b6:	60fb      	str	r3, [r7, #12]
 800b4b8:	68fb      	ldr	r3, [r7, #12]
 800b4ba:	2b00      	cmp	r3, #0
 800b4bc:	d101      	bne.n	800b4c2 <USBD_CDC_SetRxBuffer+0x1c>
 800b4be:	2303      	movs	r3, #3
 800b4c0:	e004      	b.n	800b4cc <USBD_CDC_SetRxBuffer+0x26>
 800b4c2:	68fb      	ldr	r3, [r7, #12]
 800b4c4:	683a      	ldr	r2, [r7, #0]
 800b4c6:	f8c3 2204 	str.w	r2, [r3, #516]	; 0x204
 800b4ca:	2300      	movs	r3, #0
 800b4cc:	4618      	mov	r0, r3
 800b4ce:	3714      	adds	r7, #20
 800b4d0:	46bd      	mov	sp, r7
 800b4d2:	f85d 7b04 	ldr.w	r7, [sp], #4
 800b4d6:	4770      	bx	lr

0800b4d8 <USBD_CDC_ReceivePacket>:
 800b4d8:	b580      	push	{r7, lr}
 800b4da:	b084      	sub	sp, #16
 800b4dc:	af00      	add	r7, sp, #0
 800b4de:	6078      	str	r0, [r7, #4]
 800b4e0:	687b      	ldr	r3, [r7, #4]
 800b4e2:	f8d3 32bc 	ldr.w	r3, [r3, #700]	; 0x2bc
 800b4e6:	60fb      	str	r3, [r7, #12]
 800b4e8:	687b      	ldr	r3, [r7, #4]
 800b4ea:	f8d3 32bc 	ldr.w	r3, [r3, #700]	; 0x2bc
 800b4ee:	2b00      	cmp	r3, #0
 800b4f0:	d101      	bne.n	800b4f6 <USBD_CDC_ReceivePacket+0x1e>
 800b4f2:	2303      	movs	r3, #3
 800b4f4:	e016      	b.n	800b524 <USBD_CDC_ReceivePacket+0x4c>
 800b4f6:	687b      	ldr	r3, [r7, #4]
 800b4f8:	7c1b      	ldrb	r3, [r3, #16]
 800b4fa:	2b00      	cmp	r3, #0
 800b4fc:	d109      	bne.n	800b512 <USBD_CDC_ReceivePacket+0x3a>
 800b4fe:	68fb      	ldr	r3, [r7, #12]
 800b500:	f8d3 2204 	ldr.w	r2, [r3, #516]	; 0x204
 800b504:	f44f 7300 	mov.w	r3, #512	; 0x200
 800b508:	2101      	movs	r1, #1
 800b50a:	6878      	ldr	r0, [r7, #4]
 800b50c:	f001 fd5e 	bl	800cfcc <USBD_LL_PrepareReceive>
 800b510:	e007      	b.n	800b522 <USBD_CDC_ReceivePacket+0x4a>
 800b512:	68fb      	ldr	r3, [r7, #12]
 800b514:	f8d3 2204 	ldr.w	r2, [r3, #516]	; 0x204
 800b518:	2340      	movs	r3, #64	; 0x40
 800b51a:	2101      	movs	r1, #1
 800b51c:	6878      	ldr	r0, [r7, #4]
 800b51e:	f001 fd55 	bl	800cfcc <USBD_LL_PrepareReceive>
 800b522:	2300      	movs	r3, #0
 800b524:	4618      	mov	r0, r3
 800b526:	3710      	adds	r7, #16
 800b528:	46bd      	mov	sp, r7
 800b52a:	bd80      	pop	{r7, pc}

0800b52c <USBD_Init>:
 800b52c:	b580      	push	{r7, lr}
 800b52e:	b086      	sub	sp, #24
 800b530:	af00      	add	r7, sp, #0
 800b532:	60f8      	str	r0, [r7, #12]
 800b534:	60b9      	str	r1, [r7, #8]
 800b536:	4613      	mov	r3, r2
 800b538:	71fb      	strb	r3, [r7, #7]
 800b53a:	68fb      	ldr	r3, [r7, #12]
 800b53c:	2b00      	cmp	r3, #0
 800b53e:	d101      	bne.n	800b544 <USBD_Init+0x18>
 800b540:	2303      	movs	r3, #3
 800b542:	e01f      	b.n	800b584 <USBD_Init+0x58>
 800b544:	68fb      	ldr	r3, [r7, #12]
 800b546:	2200      	movs	r2, #0
 800b548:	f8c3 22b8 	str.w	r2, [r3, #696]	; 0x2b8
 800b54c:	68fb      	ldr	r3, [r7, #12]
 800b54e:	2200      	movs	r2, #0
 800b550:	f8c3 22c0 	str.w	r2, [r3, #704]	; 0x2c0
 800b554:	68fb      	ldr	r3, [r7, #12]
 800b556:	2200      	movs	r2, #0
 800b558:	f8c3 22cc 	str.w	r2, [r3, #716]	; 0x2cc
 800b55c:	68bb      	ldr	r3, [r7, #8]
 800b55e:	2b00      	cmp	r3, #0
 800b560:	d003      	beq.n	800b56a <USBD_Init+0x3e>
 800b562:	68fb      	ldr	r3, [r7, #12]
 800b564:	68ba      	ldr	r2, [r7, #8]
 800b566:	f8c3 22b4 	str.w	r2, [r3, #692]	; 0x2b4
 800b56a:	68fb      	ldr	r3, [r7, #12]
 800b56c:	2201      	movs	r2, #1
 800b56e:	f883 229c 	strb.w	r2, [r3, #668]	; 0x29c
 800b572:	68fb      	ldr	r3, [r7, #12]
 800b574:	79fa      	ldrb	r2, [r7, #7]
 800b576:	701a      	strb	r2, [r3, #0]
 800b578:	68f8      	ldr	r0, [r7, #12]
 800b57a:	f001 fbbd 	bl	800ccf8 <USBD_LL_Init>
 800b57e:	4603      	mov	r3, r0
 800b580:	75fb      	strb	r3, [r7, #23]
 800b582:	7dfb      	ldrb	r3, [r7, #23]
 800b584:	4618      	mov	r0, r3
 800b586:	3718      	adds	r7, #24
 800b588:	46bd      	mov	sp, r7
 800b58a:	bd80      	pop	{r7, pc}

0800b58c <USBD_RegisterClass>:
 800b58c:	b580      	push	{r7, lr}
 800b58e:	b084      	sub	sp, #16
 800b590:	af00      	add	r7, sp, #0
 800b592:	6078      	str	r0, [r7, #4]
 800b594:	6039      	str	r1, [r7, #0]
 800b596:	2300      	movs	r3, #0
 800b598:	81fb      	strh	r3, [r7, #14]
 800b59a:	683b      	ldr	r3, [r7, #0]
 800b59c:	2b00      	cmp	r3, #0
 800b59e:	d101      	bne.n	800b5a4 <USBD_RegisterClass+0x18>
 800b5a0:	2303      	movs	r3, #3
 800b5a2:	e016      	b.n	800b5d2 <USBD_RegisterClass+0x46>
 800b5a4:	687b      	ldr	r3, [r7, #4]
 800b5a6:	683a      	ldr	r2, [r7, #0]
 800b5a8:	f8c3 22b8 	str.w	r2, [r3, #696]	; 0x2b8
 800b5ac:	687b      	ldr	r3, [r7, #4]
 800b5ae:	f8d3 32b8 	ldr.w	r3, [r3, #696]	; 0x2b8
 800b5b2:	6adb      	ldr	r3, [r3, #44]	; 0x2c
 800b5b4:	2b00      	cmp	r3, #0
 800b5b6:	d00b      	beq.n	800b5d0 <USBD_RegisterClass+0x44>
 800b5b8:	687b      	ldr	r3, [r7, #4]
 800b5ba:	f8d3 32b8 	ldr.w	r3, [r3, #696]	; 0x2b8
 800b5be:	6adb      	ldr	r3, [r3, #44]	; 0x2c
 800b5c0:	f107 020e 	add.w	r2, r7, #14
 800b5c4:	4610      	mov	r0, r2
 800b5c6:	4798      	blx	r3
 800b5c8:	4602      	mov	r2, r0
 800b5ca:	687b      	ldr	r3, [r7, #4]
 800b5cc:	f8c3 22cc 	str.w	r2, [r3, #716]	; 0x2cc
 800b5d0:	2300      	movs	r3, #0
 800b5d2:	4618      	mov	r0, r3
 800b5d4:	3710      	adds	r7, #16
 800b5d6:	46bd      	mov	sp, r7
 800b5d8:	bd80      	pop	{r7, pc}

0800b5da <USBD_Start>:
 800b5da:	b580      	push	{r7, lr}
 800b5dc:	b082      	sub	sp, #8
 800b5de:	af00      	add	r7, sp, #0
 800b5e0:	6078      	str	r0, [r7, #4]
 800b5e2:	6878      	ldr	r0, [r7, #4]
 800b5e4:	f001 fbe8 	bl	800cdb8 <USBD_LL_Start>
 800b5e8:	4603      	mov	r3, r0
 800b5ea:	4618      	mov	r0, r3
 800b5ec:	3708      	adds	r7, #8
 800b5ee:	46bd      	mov	sp, r7
 800b5f0:	bd80      	pop	{r7, pc}

0800b5f2 <USBD_RunTestMode>:
 800b5f2:	b480      	push	{r7}
 800b5f4:	b083      	sub	sp, #12
 800b5f6:	af00      	add	r7, sp, #0
 800b5f8:	6078      	str	r0, [r7, #4]
 800b5fa:	2300      	movs	r3, #0
 800b5fc:	4618      	mov	r0, r3
 800b5fe:	370c      	adds	r7, #12
 800b600:	46bd      	mov	sp, r7
 800b602:	f85d 7b04 	ldr.w	r7, [sp], #4
 800b606:	4770      	bx	lr

0800b608 <USBD_SetClassConfig>:
 800b608:	b580      	push	{r7, lr}
 800b60a:	b084      	sub	sp, #16
 800b60c:	af00      	add	r7, sp, #0
 800b60e:	6078      	str	r0, [r7, #4]
 800b610:	460b      	mov	r3, r1
 800b612:	70fb      	strb	r3, [r7, #3]
 800b614:	2303      	movs	r3, #3
 800b616:	73fb      	strb	r3, [r7, #15]
 800b618:	687b      	ldr	r3, [r7, #4]
 800b61a:	f8d3 32b8 	ldr.w	r3, [r3, #696]	; 0x2b8
 800b61e:	2b00      	cmp	r3, #0
 800b620:	d009      	beq.n	800b636 <USBD_SetClassConfig+0x2e>
 800b622:	687b      	ldr	r3, [r7, #4]
 800b624:	f8d3 32b8 	ldr.w	r3, [r3, #696]	; 0x2b8
 800b628:	681b      	ldr	r3, [r3, #0]
 800b62a:	78fa      	ldrb	r2, [r7, #3]
 800b62c:	4611      	mov	r1, r2
 800b62e:	6878      	ldr	r0, [r7, #4]
 800b630:	4798      	blx	r3
 800b632:	4603      	mov	r3, r0
 800b634:	73fb      	strb	r3, [r7, #15]
 800b636:	7bfb      	ldrb	r3, [r7, #15]
 800b638:	4618      	mov	r0, r3
 800b63a:	3710      	adds	r7, #16
 800b63c:	46bd      	mov	sp, r7
 800b63e:	bd80      	pop	{r7, pc}

0800b640 <USBD_ClrClassConfig>:
 800b640:	b580      	push	{r7, lr}
 800b642:	b082      	sub	sp, #8
 800b644:	af00      	add	r7, sp, #0
 800b646:	6078      	str	r0, [r7, #4]
 800b648:	460b      	mov	r3, r1
 800b64a:	70fb      	strb	r3, [r7, #3]
 800b64c:	687b      	ldr	r3, [r7, #4]
 800b64e:	f8d3 32b8 	ldr.w	r3, [r3, #696]	; 0x2b8
 800b652:	2b00      	cmp	r3, #0
 800b654:	d007      	beq.n	800b666 <USBD_ClrClassConfig+0x26>
 800b656:	687b      	ldr	r3, [r7, #4]
 800b658:	f8d3 32b8 	ldr.w	r3, [r3, #696]	; 0x2b8
 800b65c:	685b      	ldr	r3, [r3, #4]
 800b65e:	78fa      	ldrb	r2, [r7, #3]
 800b660:	4611      	mov	r1, r2
 800b662:	6878      	ldr	r0, [r7, #4]
 800b664:	4798      	blx	r3
 800b666:	2300      	movs	r3, #0
 800b668:	4618      	mov	r0, r3
 800b66a:	3708      	adds	r7, #8
 800b66c:	46bd      	mov	sp, r7
 800b66e:	bd80      	pop	{r7, pc}

0800b670 <USBD_LL_SetupStage>:
 800b670:	b580      	push	{r7, lr}
 800b672:	b084      	sub	sp, #16
 800b674:	af00      	add	r7, sp, #0
 800b676:	6078      	str	r0, [r7, #4]
 800b678:	6039      	str	r1, [r7, #0]
 800b67a:	687b      	ldr	r3, [r7, #4]
 800b67c:	f203 23aa 	addw	r3, r3, #682	; 0x2aa
 800b680:	6839      	ldr	r1, [r7, #0]
 800b682:	4618      	mov	r0, r3
 800b684:	f000 ff46 	bl	800c514 <USBD_ParseSetupRequest>
 800b688:	687b      	ldr	r3, [r7, #4]
 800b68a:	2201      	movs	r2, #1
 800b68c:	f8c3 2294 	str.w	r2, [r3, #660]	; 0x294
 800b690:	687b      	ldr	r3, [r7, #4]
 800b692:	f8b3 32b0 	ldrh.w	r3, [r3, #688]	; 0x2b0
 800b696:	461a      	mov	r2, r3
 800b698:	687b      	ldr	r3, [r7, #4]
 800b69a:	f8c3 2298 	str.w	r2, [r3, #664]	; 0x298
 800b69e:	687b      	ldr	r3, [r7, #4]
 800b6a0:	f893 32aa 	ldrb.w	r3, [r3, #682]	; 0x2aa
 800b6a4:	f003 031f 	and.w	r3, r3, #31
 800b6a8:	2b02      	cmp	r3, #2
 800b6aa:	d01a      	beq.n	800b6e2 <USBD_LL_SetupStage+0x72>
 800b6ac:	2b02      	cmp	r3, #2
 800b6ae:	d822      	bhi.n	800b6f6 <USBD_LL_SetupStage+0x86>
 800b6b0:	2b00      	cmp	r3, #0
 800b6b2:	d002      	beq.n	800b6ba <USBD_LL_SetupStage+0x4a>
 800b6b4:	2b01      	cmp	r3, #1
 800b6b6:	d00a      	beq.n	800b6ce <USBD_LL_SetupStage+0x5e>
 800b6b8:	e01d      	b.n	800b6f6 <USBD_LL_SetupStage+0x86>
 800b6ba:	687b      	ldr	r3, [r7, #4]
 800b6bc:	f203 23aa 	addw	r3, r3, #682	; 0x2aa
 800b6c0:	4619      	mov	r1, r3
 800b6c2:	6878      	ldr	r0, [r7, #4]
 800b6c4:	f000 f9ee 	bl	800baa4 <USBD_StdDevReq>
 800b6c8:	4603      	mov	r3, r0
 800b6ca:	73fb      	strb	r3, [r7, #15]
 800b6cc:	e020      	b.n	800b710 <USBD_LL_SetupStage+0xa0>
 800b6ce:	687b      	ldr	r3, [r7, #4]
 800b6d0:	f203 23aa 	addw	r3, r3, #682	; 0x2aa
 800b6d4:	4619      	mov	r1, r3
 800b6d6:	6878      	ldr	r0, [r7, #4]
 800b6d8:	f000 fa52 	bl	800bb80 <USBD_StdItfReq>
 800b6dc:	4603      	mov	r3, r0
 800b6de:	73fb      	strb	r3, [r7, #15]
 800b6e0:	e016      	b.n	800b710 <USBD_LL_SetupStage+0xa0>
 800b6e2:	687b      	ldr	r3, [r7, #4]
 800b6e4:	f203 23aa 	addw	r3, r3, #682	; 0x2aa
 800b6e8:	4619      	mov	r1, r3
 800b6ea:	6878      	ldr	r0, [r7, #4]
 800b6ec:	f000 fa91 	bl	800bc12 <USBD_StdEPReq>
 800b6f0:	4603      	mov	r3, r0
 800b6f2:	73fb      	strb	r3, [r7, #15]
 800b6f4:	e00c      	b.n	800b710 <USBD_LL_SetupStage+0xa0>
 800b6f6:	687b      	ldr	r3, [r7, #4]
 800b6f8:	f893 32aa 	ldrb.w	r3, [r3, #682]	; 0x2aa
 800b6fc:	f023 037f 	bic.w	r3, r3, #127	; 0x7f
 800b700:	b2db      	uxtb	r3, r3
 800b702:	4619      	mov	r1, r3
 800b704:	6878      	ldr	r0, [r7, #4]
 800b706:	f001 fbb7 	bl	800ce78 <USBD_LL_StallEP>
 800b70a:	4603      	mov	r3, r0
 800b70c:	73fb      	strb	r3, [r7, #15]
 800b70e:	bf00      	nop
 800b710:	7bfb      	ldrb	r3, [r7, #15]
 800b712:	4618      	mov	r0, r3
 800b714:	3710      	adds	r7, #16
 800b716:	46bd      	mov	sp, r7
 800b718:	bd80      	pop	{r7, pc}

0800b71a <USBD_LL_DataOutStage>:
 800b71a:	b580      	push	{r7, lr}
 800b71c:	b086      	sub	sp, #24
 800b71e:	af00      	add	r7, sp, #0
 800b720:	60f8      	str	r0, [r7, #12]
 800b722:	460b      	mov	r3, r1
 800b724:	607a      	str	r2, [r7, #4]
 800b726:	72fb      	strb	r3, [r7, #11]
 800b728:	7afb      	ldrb	r3, [r7, #11]
 800b72a:	2b00      	cmp	r3, #0
 800b72c:	d138      	bne.n	800b7a0 <USBD_LL_DataOutStage+0x86>
 800b72e:	68fb      	ldr	r3, [r7, #12]
 800b730:	f503 73aa 	add.w	r3, r3, #340	; 0x154
 800b734:	613b      	str	r3, [r7, #16]
 800b736:	68fb      	ldr	r3, [r7, #12]
 800b738:	f8d3 3294 	ldr.w	r3, [r3, #660]	; 0x294
 800b73c:	2b03      	cmp	r3, #3
 800b73e:	d14a      	bne.n	800b7d6 <USBD_LL_DataOutStage+0xbc>
 800b740:	693b      	ldr	r3, [r7, #16]
 800b742:	689a      	ldr	r2, [r3, #8]
 800b744:	693b      	ldr	r3, [r7, #16]
 800b746:	68db      	ldr	r3, [r3, #12]
 800b748:	429a      	cmp	r2, r3
 800b74a:	d913      	bls.n	800b774 <USBD_LL_DataOutStage+0x5a>
 800b74c:	693b      	ldr	r3, [r7, #16]
 800b74e:	689a      	ldr	r2, [r3, #8]
 800b750:	693b      	ldr	r3, [r7, #16]
 800b752:	68db      	ldr	r3, [r3, #12]
 800b754:	1ad2      	subs	r2, r2, r3
 800b756:	693b      	ldr	r3, [r7, #16]
 800b758:	609a      	str	r2, [r3, #8]
 800b75a:	693b      	ldr	r3, [r7, #16]
 800b75c:	68da      	ldr	r2, [r3, #12]
 800b75e:	693b      	ldr	r3, [r7, #16]
 800b760:	689b      	ldr	r3, [r3, #8]
 800b762:	4293      	cmp	r3, r2
 800b764:	bf28      	it	cs
 800b766:	4613      	movcs	r3, r2
 800b768:	461a      	mov	r2, r3
 800b76a:	6879      	ldr	r1, [r7, #4]
 800b76c:	68f8      	ldr	r0, [r7, #12]
 800b76e:	f000 ffc5 	bl	800c6fc <USBD_CtlContinueRx>
 800b772:	e030      	b.n	800b7d6 <USBD_LL_DataOutStage+0xbc>
 800b774:	68fb      	ldr	r3, [r7, #12]
 800b776:	f893 329c 	ldrb.w	r3, [r3, #668]	; 0x29c
 800b77a:	b2db      	uxtb	r3, r3
 800b77c:	2b03      	cmp	r3, #3
 800b77e:	d10b      	bne.n	800b798 <USBD_LL_DataOutStage+0x7e>
 800b780:	68fb      	ldr	r3, [r7, #12]
 800b782:	f8d3 32b8 	ldr.w	r3, [r3, #696]	; 0x2b8
 800b786:	691b      	ldr	r3, [r3, #16]
 800b788:	2b00      	cmp	r3, #0
 800b78a:	d005      	beq.n	800b798 <USBD_LL_DataOutStage+0x7e>
 800b78c:	68fb      	ldr	r3, [r7, #12]
 800b78e:	f8d3 32b8 	ldr.w	r3, [r3, #696]	; 0x2b8
 800b792:	691b      	ldr	r3, [r3, #16]
 800b794:	68f8      	ldr	r0, [r7, #12]
 800b796:	4798      	blx	r3
 800b798:	68f8      	ldr	r0, [r7, #12]
 800b79a:	f000 ffc0 	bl	800c71e <USBD_CtlSendStatus>
 800b79e:	e01a      	b.n	800b7d6 <USBD_LL_DataOutStage+0xbc>
 800b7a0:	68fb      	ldr	r3, [r7, #12]
 800b7a2:	f893 329c 	ldrb.w	r3, [r3, #668]	; 0x29c
 800b7a6:	b2db      	uxtb	r3, r3
 800b7a8:	2b03      	cmp	r3, #3
 800b7aa:	d114      	bne.n	800b7d6 <USBD_LL_DataOutStage+0xbc>
 800b7ac:	68fb      	ldr	r3, [r7, #12]
 800b7ae:	f8d3 32b8 	ldr.w	r3, [r3, #696]	; 0x2b8
 800b7b2:	699b      	ldr	r3, [r3, #24]
 800b7b4:	2b00      	cmp	r3, #0
 800b7b6:	d00e      	beq.n	800b7d6 <USBD_LL_DataOutStage+0xbc>
 800b7b8:	68fb      	ldr	r3, [r7, #12]
 800b7ba:	f8d3 32b8 	ldr.w	r3, [r3, #696]	; 0x2b8
 800b7be:	699b      	ldr	r3, [r3, #24]
 800b7c0:	7afa      	ldrb	r2, [r7, #11]
 800b7c2:	4611      	mov	r1, r2
 800b7c4:	68f8      	ldr	r0, [r7, #12]
 800b7c6:	4798      	blx	r3
 800b7c8:	4603      	mov	r3, r0
 800b7ca:	75fb      	strb	r3, [r7, #23]
 800b7cc:	7dfb      	ldrb	r3, [r7, #23]
 800b7ce:	2b00      	cmp	r3, #0
 800b7d0:	d001      	beq.n	800b7d6 <USBD_LL_DataOutStage+0xbc>
 800b7d2:	7dfb      	ldrb	r3, [r7, #23]
 800b7d4:	e000      	b.n	800b7d8 <USBD_LL_DataOutStage+0xbe>
 800b7d6:	2300      	movs	r3, #0
 800b7d8:	4618      	mov	r0, r3
 800b7da:	3718      	adds	r7, #24
 800b7dc:	46bd      	mov	sp, r7
 800b7de:	bd80      	pop	{r7, pc}

0800b7e0 <USBD_LL_DataInStage>:
 800b7e0:	b580      	push	{r7, lr}
 800b7e2:	b086      	sub	sp, #24
 800b7e4:	af00      	add	r7, sp, #0
 800b7e6:	60f8      	str	r0, [r7, #12]
 800b7e8:	460b      	mov	r3, r1
 800b7ea:	607a      	str	r2, [r7, #4]
 800b7ec:	72fb      	strb	r3, [r7, #11]
 800b7ee:	7afb      	ldrb	r3, [r7, #11]
 800b7f0:	2b00      	cmp	r3, #0
 800b7f2:	d16b      	bne.n	800b8cc <USBD_LL_DataInStage+0xec>
 800b7f4:	68fb      	ldr	r3, [r7, #12]
 800b7f6:	3314      	adds	r3, #20
 800b7f8:	613b      	str	r3, [r7, #16]
 800b7fa:	68fb      	ldr	r3, [r7, #12]
 800b7fc:	f8d3 3294 	ldr.w	r3, [r3, #660]	; 0x294
 800b800:	2b02      	cmp	r3, #2
 800b802:	d156      	bne.n	800b8b2 <USBD_LL_DataInStage+0xd2>
 800b804:	693b      	ldr	r3, [r7, #16]
 800b806:	689a      	ldr	r2, [r3, #8]
 800b808:	693b      	ldr	r3, [r7, #16]
 800b80a:	68db      	ldr	r3, [r3, #12]
 800b80c:	429a      	cmp	r2, r3
 800b80e:	d914      	bls.n	800b83a <USBD_LL_DataInStage+0x5a>
 800b810:	693b      	ldr	r3, [r7, #16]
 800b812:	689a      	ldr	r2, [r3, #8]
 800b814:	693b      	ldr	r3, [r7, #16]
 800b816:	68db      	ldr	r3, [r3, #12]
 800b818:	1ad2      	subs	r2, r2, r3
 800b81a:	693b      	ldr	r3, [r7, #16]
 800b81c:	609a      	str	r2, [r3, #8]
 800b81e:	693b      	ldr	r3, [r7, #16]
 800b820:	689b      	ldr	r3, [r3, #8]
 800b822:	461a      	mov	r2, r3
 800b824:	6879      	ldr	r1, [r7, #4]
 800b826:	68f8      	ldr	r0, [r7, #12]
 800b828:	f000 ff3a 	bl	800c6a0 <USBD_CtlContinueSendData>
 800b82c:	2300      	movs	r3, #0
 800b82e:	2200      	movs	r2, #0
 800b830:	2100      	movs	r1, #0
 800b832:	68f8      	ldr	r0, [r7, #12]
 800b834:	f001 fbca 	bl	800cfcc <USBD_LL_PrepareReceive>
 800b838:	e03b      	b.n	800b8b2 <USBD_LL_DataInStage+0xd2>
 800b83a:	693b      	ldr	r3, [r7, #16]
 800b83c:	68da      	ldr	r2, [r3, #12]
 800b83e:	693b      	ldr	r3, [r7, #16]
 800b840:	689b      	ldr	r3, [r3, #8]
 800b842:	429a      	cmp	r2, r3
 800b844:	d11c      	bne.n	800b880 <USBD_LL_DataInStage+0xa0>
 800b846:	693b      	ldr	r3, [r7, #16]
 800b848:	685a      	ldr	r2, [r3, #4]
 800b84a:	693b      	ldr	r3, [r7, #16]
 800b84c:	68db      	ldr	r3, [r3, #12]
 800b84e:	429a      	cmp	r2, r3
 800b850:	d316      	bcc.n	800b880 <USBD_LL_DataInStage+0xa0>
 800b852:	693b      	ldr	r3, [r7, #16]
 800b854:	685a      	ldr	r2, [r3, #4]
 800b856:	68fb      	ldr	r3, [r7, #12]
 800b858:	f8d3 3298 	ldr.w	r3, [r3, #664]	; 0x298
 800b85c:	429a      	cmp	r2, r3
 800b85e:	d20f      	bcs.n	800b880 <USBD_LL_DataInStage+0xa0>
 800b860:	2200      	movs	r2, #0
 800b862:	2100      	movs	r1, #0
 800b864:	68f8      	ldr	r0, [r7, #12]
 800b866:	f000 ff1b 	bl	800c6a0 <USBD_CtlContinueSendData>
 800b86a:	68fb      	ldr	r3, [r7, #12]
 800b86c:	2200      	movs	r2, #0
 800b86e:	f8c3 2298 	str.w	r2, [r3, #664]	; 0x298
 800b872:	2300      	movs	r3, #0
 800b874:	2200      	movs	r2, #0
 800b876:	2100      	movs	r1, #0
 800b878:	68f8      	ldr	r0, [r7, #12]
 800b87a:	f001 fba7 	bl	800cfcc <USBD_LL_PrepareReceive>
 800b87e:	e018      	b.n	800b8b2 <USBD_LL_DataInStage+0xd2>
 800b880:	68fb      	ldr	r3, [r7, #12]
 800b882:	f893 329c 	ldrb.w	r3, [r3, #668]	; 0x29c
 800b886:	b2db      	uxtb	r3, r3
 800b888:	2b03      	cmp	r3, #3
 800b88a:	d10b      	bne.n	800b8a4 <USBD_LL_DataInStage+0xc4>
 800b88c:	68fb      	ldr	r3, [r7, #12]
 800b88e:	f8d3 32b8 	ldr.w	r3, [r3, #696]	; 0x2b8
 800b892:	68db      	ldr	r3, [r3, #12]
 800b894:	2b00      	cmp	r3, #0
 800b896:	d005      	beq.n	800b8a4 <USBD_LL_DataInStage+0xc4>
 800b898:	68fb      	ldr	r3, [r7, #12]
 800b89a:	f8d3 32b8 	ldr.w	r3, [r3, #696]	; 0x2b8
 800b89e:	68db      	ldr	r3, [r3, #12]
 800b8a0:	68f8      	ldr	r0, [r7, #12]
 800b8a2:	4798      	blx	r3
 800b8a4:	2180      	movs	r1, #128	; 0x80
 800b8a6:	68f8      	ldr	r0, [r7, #12]
 800b8a8:	f001 fae6 	bl	800ce78 <USBD_LL_StallEP>
 800b8ac:	68f8      	ldr	r0, [r7, #12]
 800b8ae:	f000 ff49 	bl	800c744 <USBD_CtlReceiveStatus>
 800b8b2:	68fb      	ldr	r3, [r7, #12]
 800b8b4:	f893 32a0 	ldrb.w	r3, [r3, #672]	; 0x2a0
 800b8b8:	2b01      	cmp	r3, #1
 800b8ba:	d122      	bne.n	800b902 <USBD_LL_DataInStage+0x122>
 800b8bc:	68f8      	ldr	r0, [r7, #12]
 800b8be:	f7ff fe98 	bl	800b5f2 <USBD_RunTestMode>
 800b8c2:	68fb      	ldr	r3, [r7, #12]
 800b8c4:	2200      	movs	r2, #0
 800b8c6:	f883 22a0 	strb.w	r2, [r3, #672]	; 0x2a0
 800b8ca:	e01a      	b.n	800b902 <USBD_LL_DataInStage+0x122>
 800b8cc:	68fb      	ldr	r3, [r7, #12]
 800b8ce:	f893 329c 	ldrb.w	r3, [r3, #668]	; 0x29c
 800b8d2:	b2db      	uxtb	r3, r3
 800b8d4:	2b03      	cmp	r3, #3
 800b8d6:	d114      	bne.n	800b902 <USBD_LL_DataInStage+0x122>
 800b8d8:	68fb      	ldr	r3, [r7, #12]
 800b8da:	f8d3 32b8 	ldr.w	r3, [r3, #696]	; 0x2b8
 800b8de:	695b      	ldr	r3, [r3, #20]
 800b8e0:	2b00      	cmp	r3, #0
 800b8e2:	d00e      	beq.n	800b902 <USBD_LL_DataInStage+0x122>
 800b8e4:	68fb      	ldr	r3, [r7, #12]
 800b8e6:	f8d3 32b8 	ldr.w	r3, [r3, #696]	; 0x2b8
 800b8ea:	695b      	ldr	r3, [r3, #20]
 800b8ec:	7afa      	ldrb	r2, [r7, #11]
 800b8ee:	4611      	mov	r1, r2
 800b8f0:	68f8      	ldr	r0, [r7, #12]
 800b8f2:	4798      	blx	r3
 800b8f4:	4603      	mov	r3, r0
 800b8f6:	75fb      	strb	r3, [r7, #23]
 800b8f8:	7dfb      	ldrb	r3, [r7, #23]
 800b8fa:	2b00      	cmp	r3, #0
 800b8fc:	d001      	beq.n	800b902 <USBD_LL_DataInStage+0x122>
 800b8fe:	7dfb      	ldrb	r3, [r7, #23]
 800b900:	e000      	b.n	800b904 <USBD_LL_DataInStage+0x124>
 800b902:	2300      	movs	r3, #0
 800b904:	4618      	mov	r0, r3
 800b906:	3718      	adds	r7, #24
 800b908:	46bd      	mov	sp, r7
 800b90a:	bd80      	pop	{r7, pc}

0800b90c <USBD_LL_Reset>:
 800b90c:	b580      	push	{r7, lr}
 800b90e:	b082      	sub	sp, #8
 800b910:	af00      	add	r7, sp, #0
 800b912:	6078      	str	r0, [r7, #4]
 800b914:	687b      	ldr	r3, [r7, #4]
 800b916:	2201      	movs	r2, #1
 800b918:	f883 229c 	strb.w	r2, [r3, #668]	; 0x29c
 800b91c:	687b      	ldr	r3, [r7, #4]
 800b91e:	2200      	movs	r2, #0
 800b920:	f8c3 2294 	str.w	r2, [r3, #660]	; 0x294
 800b924:	687b      	ldr	r3, [r7, #4]
 800b926:	2200      	movs	r2, #0
 800b928:	605a      	str	r2, [r3, #4]
 800b92a:	687b      	ldr	r3, [r7, #4]
 800b92c:	2200      	movs	r2, #0
 800b92e:	f8c3 22a4 	str.w	r2, [r3, #676]	; 0x2a4
 800b932:	687b      	ldr	r3, [r7, #4]
 800b934:	f8d3 32b8 	ldr.w	r3, [r3, #696]	; 0x2b8
 800b938:	2b00      	cmp	r3, #0
 800b93a:	d101      	bne.n	800b940 <USBD_LL_Reset+0x34>
 800b93c:	2303      	movs	r3, #3
 800b93e:	e02f      	b.n	800b9a0 <USBD_LL_Reset+0x94>
 800b940:	687b      	ldr	r3, [r7, #4]
 800b942:	f8d3 32bc 	ldr.w	r3, [r3, #700]	; 0x2bc
 800b946:	2b00      	cmp	r3, #0
 800b948:	d00f      	beq.n	800b96a <USBD_LL_Reset+0x5e>
 800b94a:	687b      	ldr	r3, [r7, #4]
 800b94c:	f8d3 32b8 	ldr.w	r3, [r3, #696]	; 0x2b8
 800b950:	685b      	ldr	r3, [r3, #4]
 800b952:	2b00      	cmp	r3, #0
 800b954:	d009      	beq.n	800b96a <USBD_LL_Reset+0x5e>
 800b956:	687b      	ldr	r3, [r7, #4]
 800b958:	f8d3 32b8 	ldr.w	r3, [r3, #696]	; 0x2b8
 800b95c:	685b      	ldr	r3, [r3, #4]
 800b95e:	687a      	ldr	r2, [r7, #4]
 800b960:	6852      	ldr	r2, [r2, #4]
 800b962:	b2d2      	uxtb	r2, r2
 800b964:	4611      	mov	r1, r2
 800b966:	6878      	ldr	r0, [r7, #4]
 800b968:	4798      	blx	r3
 800b96a:	2340      	movs	r3, #64	; 0x40
 800b96c:	2200      	movs	r2, #0
 800b96e:	2100      	movs	r1, #0
 800b970:	6878      	ldr	r0, [r7, #4]
 800b972:	f001 fa3c 	bl	800cdee <USBD_LL_OpenEP>
 800b976:	687b      	ldr	r3, [r7, #4]
 800b978:	2201      	movs	r2, #1
 800b97a:	f8a3 2164 	strh.w	r2, [r3, #356]	; 0x164
 800b97e:	687b      	ldr	r3, [r7, #4]
 800b980:	2240      	movs	r2, #64	; 0x40
 800b982:	f8c3 2160 	str.w	r2, [r3, #352]	; 0x160
 800b986:	2340      	movs	r3, #64	; 0x40
 800b988:	2200      	movs	r2, #0
 800b98a:	2180      	movs	r1, #128	; 0x80
 800b98c:	6878      	ldr	r0, [r7, #4]
 800b98e:	f001 fa2e 	bl	800cdee <USBD_LL_OpenEP>
 800b992:	687b      	ldr	r3, [r7, #4]
 800b994:	2201      	movs	r2, #1
 800b996:	849a      	strh	r2, [r3, #36]	; 0x24
 800b998:	687b      	ldr	r3, [r7, #4]
 800b99a:	2240      	movs	r2, #64	; 0x40
 800b99c:	621a      	str	r2, [r3, #32]
 800b99e:	2300      	movs	r3, #0
 800b9a0:	4618      	mov	r0, r3
 800b9a2:	3708      	adds	r7, #8
 800b9a4:	46bd      	mov	sp, r7
 800b9a6:	bd80      	pop	{r7, pc}

0800b9a8 <USBD_LL_SetSpeed>:
 800b9a8:	b480      	push	{r7}
 800b9aa:	b083      	sub	sp, #12
 800b9ac:	af00      	add	r7, sp, #0
 800b9ae:	6078      	str	r0, [r7, #4]
 800b9b0:	460b      	mov	r3, r1
 800b9b2:	70fb      	strb	r3, [r7, #3]
 800b9b4:	687b      	ldr	r3, [r7, #4]
 800b9b6:	78fa      	ldrb	r2, [r7, #3]
 800b9b8:	741a      	strb	r2, [r3, #16]
 800b9ba:	2300      	movs	r3, #0
 800b9bc:	4618      	mov	r0, r3
 800b9be:	370c      	adds	r7, #12
 800b9c0:	46bd      	mov	sp, r7
 800b9c2:	f85d 7b04 	ldr.w	r7, [sp], #4
 800b9c6:	4770      	bx	lr

0800b9c8 <USBD_LL_Suspend>:
 800b9c8:	b480      	push	{r7}
 800b9ca:	b083      	sub	sp, #12
 800b9cc:	af00      	add	r7, sp, #0
 800b9ce:	6078      	str	r0, [r7, #4]
 800b9d0:	687b      	ldr	r3, [r7, #4]
 800b9d2:	f893 329c 	ldrb.w	r3, [r3, #668]	; 0x29c
 800b9d6:	b2da      	uxtb	r2, r3
 800b9d8:	687b      	ldr	r3, [r7, #4]
 800b9da:	f883 229d 	strb.w	r2, [r3, #669]	; 0x29d
 800b9de:	687b      	ldr	r3, [r7, #4]
 800b9e0:	2204      	movs	r2, #4
 800b9e2:	f883 229c 	strb.w	r2, [r3, #668]	; 0x29c
 800b9e6:	2300      	movs	r3, #0
 800b9e8:	4618      	mov	r0, r3
 800b9ea:	370c      	adds	r7, #12
 800b9ec:	46bd      	mov	sp, r7
 800b9ee:	f85d 7b04 	ldr.w	r7, [sp], #4
 800b9f2:	4770      	bx	lr

0800b9f4 <USBD_LL_Resume>:
 800b9f4:	b480      	push	{r7}
 800b9f6:	b083      	sub	sp, #12
 800b9f8:	af00      	add	r7, sp, #0
 800b9fa:	6078      	str	r0, [r7, #4]
 800b9fc:	687b      	ldr	r3, [r7, #4]
 800b9fe:	f893 329c 	ldrb.w	r3, [r3, #668]	; 0x29c
 800ba02:	b2db      	uxtb	r3, r3
 800ba04:	2b04      	cmp	r3, #4
 800ba06:	d106      	bne.n	800ba16 <USBD_LL_Resume+0x22>
 800ba08:	687b      	ldr	r3, [r7, #4]
 800ba0a:	f893 329d 	ldrb.w	r3, [r3, #669]	; 0x29d
 800ba0e:	b2da      	uxtb	r2, r3
 800ba10:	687b      	ldr	r3, [r7, #4]
 800ba12:	f883 229c 	strb.w	r2, [r3, #668]	; 0x29c
 800ba16:	2300      	movs	r3, #0
 800ba18:	4618      	mov	r0, r3
 800ba1a:	370c      	adds	r7, #12
 800ba1c:	46bd      	mov	sp, r7
 800ba1e:	f85d 7b04 	ldr.w	r7, [sp], #4
 800ba22:	4770      	bx	lr

0800ba24 <USBD_LL_SOF>:
 800ba24:	b580      	push	{r7, lr}
 800ba26:	b082      	sub	sp, #8
 800ba28:	af00      	add	r7, sp, #0
 800ba2a:	6078      	str	r0, [r7, #4]
 800ba2c:	687b      	ldr	r3, [r7, #4]
 800ba2e:	f8d3 32b8 	ldr.w	r3, [r3, #696]	; 0x2b8
 800ba32:	2b00      	cmp	r3, #0
 800ba34:	d101      	bne.n	800ba3a <USBD_LL_SOF+0x16>
 800ba36:	2303      	movs	r3, #3
 800ba38:	e012      	b.n	800ba60 <USBD_LL_SOF+0x3c>
 800ba3a:	687b      	ldr	r3, [r7, #4]
 800ba3c:	f893 329c 	ldrb.w	r3, [r3, #668]	; 0x29c
 800ba40:	b2db      	uxtb	r3, r3
 800ba42:	2b03      	cmp	r3, #3
 800ba44:	d10b      	bne.n	800ba5e <USBD_LL_SOF+0x3a>
 800ba46:	687b      	ldr	r3, [r7, #4]
 800ba48:	f8d3 32b8 	ldr.w	r3, [r3, #696]	; 0x2b8
 800ba4c:	69db      	ldr	r3, [r3, #28]
 800ba4e:	2b00      	cmp	r3, #0
 800ba50:	d005      	beq.n	800ba5e <USBD_LL_SOF+0x3a>
 800ba52:	687b      	ldr	r3, [r7, #4]
 800ba54:	f8d3 32b8 	ldr.w	r3, [r3, #696]	; 0x2b8
 800ba58:	69db      	ldr	r3, [r3, #28]
 800ba5a:	6878      	ldr	r0, [r7, #4]
 800ba5c:	4798      	blx	r3
 800ba5e:	2300      	movs	r3, #0
 800ba60:	4618      	mov	r0, r3
 800ba62:	3708      	adds	r7, #8
 800ba64:	46bd      	mov	sp, r7
 800ba66:	bd80      	pop	{r7, pc}

0800ba68 <SWAPBYTE>:
 800ba68:	b480      	push	{r7}
 800ba6a:	b087      	sub	sp, #28
 800ba6c:	af00      	add	r7, sp, #0
 800ba6e:	6078      	str	r0, [r7, #4]
 800ba70:	687b      	ldr	r3, [r7, #4]
 800ba72:	617b      	str	r3, [r7, #20]
 800ba74:	697b      	ldr	r3, [r7, #20]
 800ba76:	781b      	ldrb	r3, [r3, #0]
 800ba78:	827b      	strh	r3, [r7, #18]
 800ba7a:	697b      	ldr	r3, [r7, #20]
 800ba7c:	3301      	adds	r3, #1
 800ba7e:	617b      	str	r3, [r7, #20]
 800ba80:	697b      	ldr	r3, [r7, #20]
 800ba82:	781b      	ldrb	r3, [r3, #0]
 800ba84:	823b      	strh	r3, [r7, #16]
 800ba86:	8a3b      	ldrh	r3, [r7, #16]
 800ba88:	021b      	lsls	r3, r3, #8
 800ba8a:	b21a      	sxth	r2, r3
 800ba8c:	f9b7 3012 	ldrsh.w	r3, [r7, #18]
 800ba90:	4313      	orrs	r3, r2
 800ba92:	b21b      	sxth	r3, r3
 800ba94:	81fb      	strh	r3, [r7, #14]
 800ba96:	89fb      	ldrh	r3, [r7, #14]
 800ba98:	4618      	mov	r0, r3
 800ba9a:	371c      	adds	r7, #28
 800ba9c:	46bd      	mov	sp, r7
 800ba9e:	f85d 7b04 	ldr.w	r7, [sp], #4
 800baa2:	4770      	bx	lr

0800baa4 <USBD_StdDevReq>:
 800baa4:	b580      	push	{r7, lr}
 800baa6:	b084      	sub	sp, #16
 800baa8:	af00      	add	r7, sp, #0
 800baaa:	6078      	str	r0, [r7, #4]
 800baac:	6039      	str	r1, [r7, #0]
 800baae:	2300      	movs	r3, #0
 800bab0:	73fb      	strb	r3, [r7, #15]
 800bab2:	683b      	ldr	r3, [r7, #0]
 800bab4:	781b      	ldrb	r3, [r3, #0]
 800bab6:	f003 0360 	and.w	r3, r3, #96	; 0x60
 800baba:	2b40      	cmp	r3, #64	; 0x40
 800babc:	d005      	beq.n	800baca <USBD_StdDevReq+0x26>
 800babe:	2b40      	cmp	r3, #64	; 0x40
 800bac0:	d853      	bhi.n	800bb6a <USBD_StdDevReq+0xc6>
 800bac2:	2b00      	cmp	r3, #0
 800bac4:	d00b      	beq.n	800bade <USBD_StdDevReq+0x3a>
 800bac6:	2b20      	cmp	r3, #32
 800bac8:	d14f      	bne.n	800bb6a <USBD_StdDevReq+0xc6>
 800baca:	687b      	ldr	r3, [r7, #4]
 800bacc:	f8d3 32b8 	ldr.w	r3, [r3, #696]	; 0x2b8
 800bad0:	689b      	ldr	r3, [r3, #8]
 800bad2:	6839      	ldr	r1, [r7, #0]
 800bad4:	6878      	ldr	r0, [r7, #4]
 800bad6:	4798      	blx	r3
 800bad8:	4603      	mov	r3, r0
 800bada:	73fb      	strb	r3, [r7, #15]
 800badc:	e04a      	b.n	800bb74 <USBD_StdDevReq+0xd0>
 800bade:	683b      	ldr	r3, [r7, #0]
 800bae0:	785b      	ldrb	r3, [r3, #1]
 800bae2:	2b09      	cmp	r3, #9
 800bae4:	d83b      	bhi.n	800bb5e <USBD_StdDevReq+0xba>
 800bae6:	a201      	add	r2, pc, #4	; (adr r2, 800baec <USBD_StdDevReq+0x48>)
 800bae8:	f852 f023 	ldr.w	pc, [r2, r3, lsl #2]
 800baec:	0800bb41 	.word	0x0800bb41
 800baf0:	0800bb55 	.word	0x0800bb55
 800baf4:	0800bb5f 	.word	0x0800bb5f
 800baf8:	0800bb4b 	.word	0x0800bb4b
 800bafc:	0800bb5f 	.word	0x0800bb5f
 800bb00:	0800bb1f 	.word	0x0800bb1f
 800bb04:	0800bb15 	.word	0x0800bb15
 800bb08:	0800bb5f 	.word	0x0800bb5f
 800bb0c:	0800bb37 	.word	0x0800bb37
 800bb10:	0800bb29 	.word	0x0800bb29
 800bb14:	6839      	ldr	r1, [r7, #0]
 800bb16:	6878      	ldr	r0, [r7, #4]
 800bb18:	f000 f9de 	bl	800bed8 <USBD_GetDescriptor>
 800bb1c:	e024      	b.n	800bb68 <USBD_StdDevReq+0xc4>
 800bb1e:	6839      	ldr	r1, [r7, #0]
 800bb20:	6878      	ldr	r0, [r7, #4]
 800bb22:	f000 fb6d 	bl	800c200 <USBD_SetAddress>
 800bb26:	e01f      	b.n	800bb68 <USBD_StdDevReq+0xc4>
 800bb28:	6839      	ldr	r1, [r7, #0]
 800bb2a:	6878      	ldr	r0, [r7, #4]
 800bb2c:	f000 fbac 	bl	800c288 <USBD_SetConfig>
 800bb30:	4603      	mov	r3, r0
 800bb32:	73fb      	strb	r3, [r7, #15]
 800bb34:	e018      	b.n	800bb68 <USBD_StdDevReq+0xc4>
 800bb36:	6839      	ldr	r1, [r7, #0]
 800bb38:	6878      	ldr	r0, [r7, #4]
 800bb3a:	f000 fc4b 	bl	800c3d4 <USBD_GetConfig>
 800bb3e:	e013      	b.n	800bb68 <USBD_StdDevReq+0xc4>
 800bb40:	6839      	ldr	r1, [r7, #0]
 800bb42:	6878      	ldr	r0, [r7, #4]
 800bb44:	f000 fc7c 	bl	800c440 <USBD_GetStatus>
 800bb48:	e00e      	b.n	800bb68 <USBD_StdDevReq+0xc4>
 800bb4a:	6839      	ldr	r1, [r7, #0]
 800bb4c:	6878      	ldr	r0, [r7, #4]
 800bb4e:	f000 fcab 	bl	800c4a8 <USBD_SetFeature>
 800bb52:	e009      	b.n	800bb68 <USBD_StdDevReq+0xc4>
 800bb54:	6839      	ldr	r1, [r7, #0]
 800bb56:	6878      	ldr	r0, [r7, #4]
 800bb58:	f000 fcba 	bl	800c4d0 <USBD_ClrFeature>
 800bb5c:	e004      	b.n	800bb68 <USBD_StdDevReq+0xc4>
 800bb5e:	6839      	ldr	r1, [r7, #0]
 800bb60:	6878      	ldr	r0, [r7, #4]
 800bb62:	f000 fd11 	bl	800c588 <USBD_CtlError>
 800bb66:	bf00      	nop
 800bb68:	e004      	b.n	800bb74 <USBD_StdDevReq+0xd0>
 800bb6a:	6839      	ldr	r1, [r7, #0]
 800bb6c:	6878      	ldr	r0, [r7, #4]
 800bb6e:	f000 fd0b 	bl	800c588 <USBD_CtlError>
 800bb72:	bf00      	nop
 800bb74:	7bfb      	ldrb	r3, [r7, #15]
 800bb76:	4618      	mov	r0, r3
 800bb78:	3710      	adds	r7, #16
 800bb7a:	46bd      	mov	sp, r7
 800bb7c:	bd80      	pop	{r7, pc}
 800bb7e:	bf00      	nop

0800bb80 <USBD_StdItfReq>:
 800bb80:	b580      	push	{r7, lr}
 800bb82:	b084      	sub	sp, #16
 800bb84:	af00      	add	r7, sp, #0
 800bb86:	6078      	str	r0, [r7, #4]
 800bb88:	6039      	str	r1, [r7, #0]
 800bb8a:	2300      	movs	r3, #0
 800bb8c:	73fb      	strb	r3, [r7, #15]
 800bb8e:	683b      	ldr	r3, [r7, #0]
 800bb90:	781b      	ldrb	r3, [r3, #0]
 800bb92:	f003 0360 	and.w	r3, r3, #96	; 0x60
 800bb96:	2b40      	cmp	r3, #64	; 0x40
 800bb98:	d005      	beq.n	800bba6 <USBD_StdItfReq+0x26>
 800bb9a:	2b40      	cmp	r3, #64	; 0x40
 800bb9c:	d82f      	bhi.n	800bbfe <USBD_StdItfReq+0x7e>
 800bb9e:	2b00      	cmp	r3, #0
 800bba0:	d001      	beq.n	800bba6 <USBD_StdItfReq+0x26>
 800bba2:	2b20      	cmp	r3, #32
 800bba4:	d12b      	bne.n	800bbfe <USBD_StdItfReq+0x7e>
 800bba6:	687b      	ldr	r3, [r7, #4]
 800bba8:	f893 329c 	ldrb.w	r3, [r3, #668]	; 0x29c
 800bbac:	b2db      	uxtb	r3, r3
 800bbae:	3b01      	subs	r3, #1
 800bbb0:	2b02      	cmp	r3, #2
 800bbb2:	d81d      	bhi.n	800bbf0 <USBD_StdItfReq+0x70>
 800bbb4:	683b      	ldr	r3, [r7, #0]
 800bbb6:	889b      	ldrh	r3, [r3, #4]
 800bbb8:	b2db      	uxtb	r3, r3
 800bbba:	2b01      	cmp	r3, #1
 800bbbc:	d813      	bhi.n	800bbe6 <USBD_StdItfReq+0x66>
 800bbbe:	687b      	ldr	r3, [r7, #4]
 800bbc0:	f8d3 32b8 	ldr.w	r3, [r3, #696]	; 0x2b8
 800bbc4:	689b      	ldr	r3, [r3, #8]
 800bbc6:	6839      	ldr	r1, [r7, #0]
 800bbc8:	6878      	ldr	r0, [r7, #4]
 800bbca:	4798      	blx	r3
 800bbcc:	4603      	mov	r3, r0
 800bbce:	73fb      	strb	r3, [r7, #15]
 800bbd0:	683b      	ldr	r3, [r7, #0]
 800bbd2:	88db      	ldrh	r3, [r3, #6]
 800bbd4:	2b00      	cmp	r3, #0
 800bbd6:	d110      	bne.n	800bbfa <USBD_StdItfReq+0x7a>
 800bbd8:	7bfb      	ldrb	r3, [r7, #15]
 800bbda:	2b00      	cmp	r3, #0
 800bbdc:	d10d      	bne.n	800bbfa <USBD_StdItfReq+0x7a>
 800bbde:	6878      	ldr	r0, [r7, #4]
 800bbe0:	f000 fd9d 	bl	800c71e <USBD_CtlSendStatus>
 800bbe4:	e009      	b.n	800bbfa <USBD_StdItfReq+0x7a>
 800bbe6:	6839      	ldr	r1, [r7, #0]
 800bbe8:	6878      	ldr	r0, [r7, #4]
 800bbea:	f000 fccd 	bl	800c588 <USBD_CtlError>
 800bbee:	e004      	b.n	800bbfa <USBD_StdItfReq+0x7a>
 800bbf0:	6839      	ldr	r1, [r7, #0]
 800bbf2:	6878      	ldr	r0, [r7, #4]
 800bbf4:	f000 fcc8 	bl	800c588 <USBD_CtlError>
 800bbf8:	e000      	b.n	800bbfc <USBD_StdItfReq+0x7c>
 800bbfa:	bf00      	nop
 800bbfc:	e004      	b.n	800bc08 <USBD_StdItfReq+0x88>
 800bbfe:	6839      	ldr	r1, [r7, #0]
 800bc00:	6878      	ldr	r0, [r7, #4]
 800bc02:	f000 fcc1 	bl	800c588 <USBD_CtlError>
 800bc06:	bf00      	nop
 800bc08:	7bfb      	ldrb	r3, [r7, #15]
 800bc0a:	4618      	mov	r0, r3
 800bc0c:	3710      	adds	r7, #16
 800bc0e:	46bd      	mov	sp, r7
 800bc10:	bd80      	pop	{r7, pc}

0800bc12 <USBD_StdEPReq>:
 800bc12:	b580      	push	{r7, lr}
 800bc14:	b084      	sub	sp, #16
 800bc16:	af00      	add	r7, sp, #0
 800bc18:	6078      	str	r0, [r7, #4]
 800bc1a:	6039      	str	r1, [r7, #0]
 800bc1c:	2300      	movs	r3, #0
 800bc1e:	73fb      	strb	r3, [r7, #15]
 800bc20:	683b      	ldr	r3, [r7, #0]
 800bc22:	889b      	ldrh	r3, [r3, #4]
 800bc24:	73bb      	strb	r3, [r7, #14]
 800bc26:	683b      	ldr	r3, [r7, #0]
 800bc28:	781b      	ldrb	r3, [r3, #0]
 800bc2a:	f003 0360 	and.w	r3, r3, #96	; 0x60
 800bc2e:	2b40      	cmp	r3, #64	; 0x40
 800bc30:	d007      	beq.n	800bc42 <USBD_StdEPReq+0x30>
 800bc32:	2b40      	cmp	r3, #64	; 0x40
 800bc34:	f200 8145 	bhi.w	800bec2 <USBD_StdEPReq+0x2b0>
 800bc38:	2b00      	cmp	r3, #0
 800bc3a:	d00c      	beq.n	800bc56 <USBD_StdEPReq+0x44>
 800bc3c:	2b20      	cmp	r3, #32
 800bc3e:	f040 8140 	bne.w	800bec2 <USBD_StdEPReq+0x2b0>
 800bc42:	687b      	ldr	r3, [r7, #4]
 800bc44:	f8d3 32b8 	ldr.w	r3, [r3, #696]	; 0x2b8
 800bc48:	689b      	ldr	r3, [r3, #8]
 800bc4a:	6839      	ldr	r1, [r7, #0]
 800bc4c:	6878      	ldr	r0, [r7, #4]
 800bc4e:	4798      	blx	r3
 800bc50:	4603      	mov	r3, r0
 800bc52:	73fb      	strb	r3, [r7, #15]
 800bc54:	e13a      	b.n	800becc <USBD_StdEPReq+0x2ba>
 800bc56:	683b      	ldr	r3, [r7, #0]
 800bc58:	785b      	ldrb	r3, [r3, #1]
 800bc5a:	2b03      	cmp	r3, #3
 800bc5c:	d007      	beq.n	800bc6e <USBD_StdEPReq+0x5c>
 800bc5e:	2b03      	cmp	r3, #3
 800bc60:	f300 8129 	bgt.w	800beb6 <USBD_StdEPReq+0x2a4>
 800bc64:	2b00      	cmp	r3, #0
 800bc66:	d07f      	beq.n	800bd68 <USBD_StdEPReq+0x156>
 800bc68:	2b01      	cmp	r3, #1
 800bc6a:	d03c      	beq.n	800bce6 <USBD_StdEPReq+0xd4>
 800bc6c:	e123      	b.n	800beb6 <USBD_StdEPReq+0x2a4>
 800bc6e:	687b      	ldr	r3, [r7, #4]
 800bc70:	f893 329c 	ldrb.w	r3, [r3, #668]	; 0x29c
 800bc74:	b2db      	uxtb	r3, r3
 800bc76:	2b02      	cmp	r3, #2
 800bc78:	d002      	beq.n	800bc80 <USBD_StdEPReq+0x6e>
 800bc7a:	2b03      	cmp	r3, #3
 800bc7c:	d016      	beq.n	800bcac <USBD_StdEPReq+0x9a>
 800bc7e:	e02c      	b.n	800bcda <USBD_StdEPReq+0xc8>
 800bc80:	7bbb      	ldrb	r3, [r7, #14]
 800bc82:	2b00      	cmp	r3, #0
 800bc84:	d00d      	beq.n	800bca2 <USBD_StdEPReq+0x90>
 800bc86:	7bbb      	ldrb	r3, [r7, #14]
 800bc88:	2b80      	cmp	r3, #128	; 0x80
 800bc8a:	d00a      	beq.n	800bca2 <USBD_StdEPReq+0x90>
 800bc8c:	7bbb      	ldrb	r3, [r7, #14]
 800bc8e:	4619      	mov	r1, r3
 800bc90:	6878      	ldr	r0, [r7, #4]
 800bc92:	f001 f8f1 	bl	800ce78 <USBD_LL_StallEP>
 800bc96:	2180      	movs	r1, #128	; 0x80
 800bc98:	6878      	ldr	r0, [r7, #4]
 800bc9a:	f001 f8ed 	bl	800ce78 <USBD_LL_StallEP>
 800bc9e:	bf00      	nop
 800bca0:	e020      	b.n	800bce4 <USBD_StdEPReq+0xd2>
 800bca2:	6839      	ldr	r1, [r7, #0]
 800bca4:	6878      	ldr	r0, [r7, #4]
 800bca6:	f000 fc6f 	bl	800c588 <USBD_CtlError>
 800bcaa:	e01b      	b.n	800bce4 <USBD_StdEPReq+0xd2>
 800bcac:	683b      	ldr	r3, [r7, #0]
 800bcae:	885b      	ldrh	r3, [r3, #2]
 800bcb0:	2b00      	cmp	r3, #0
 800bcb2:	d10e      	bne.n	800bcd2 <USBD_StdEPReq+0xc0>
 800bcb4:	7bbb      	ldrb	r3, [r7, #14]
 800bcb6:	2b00      	cmp	r3, #0
 800bcb8:	d00b      	beq.n	800bcd2 <USBD_StdEPReq+0xc0>
 800bcba:	7bbb      	ldrb	r3, [r7, #14]
 800bcbc:	2b80      	cmp	r3, #128	; 0x80
 800bcbe:	d008      	beq.n	800bcd2 <USBD_StdEPReq+0xc0>
 800bcc0:	683b      	ldr	r3, [r7, #0]
 800bcc2:	88db      	ldrh	r3, [r3, #6]
 800bcc4:	2b00      	cmp	r3, #0
 800bcc6:	d104      	bne.n	800bcd2 <USBD_StdEPReq+0xc0>
 800bcc8:	7bbb      	ldrb	r3, [r7, #14]
 800bcca:	4619      	mov	r1, r3
 800bccc:	6878      	ldr	r0, [r7, #4]
 800bcce:	f001 f8d3 	bl	800ce78 <USBD_LL_StallEP>
 800bcd2:	6878      	ldr	r0, [r7, #4]
 800bcd4:	f000 fd23 	bl	800c71e <USBD_CtlSendStatus>
 800bcd8:	e004      	b.n	800bce4 <USBD_StdEPReq+0xd2>
 800bcda:	6839      	ldr	r1, [r7, #0]
 800bcdc:	6878      	ldr	r0, [r7, #4]
 800bcde:	f000 fc53 	bl	800c588 <USBD_CtlError>
 800bce2:	bf00      	nop
 800bce4:	e0ec      	b.n	800bec0 <USBD_StdEPReq+0x2ae>
 800bce6:	687b      	ldr	r3, [r7, #4]
 800bce8:	f893 329c 	ldrb.w	r3, [r3, #668]	; 0x29c
 800bcec:	b2db      	uxtb	r3, r3
 800bcee:	2b02      	cmp	r3, #2
 800bcf0:	d002      	beq.n	800bcf8 <USBD_StdEPReq+0xe6>
 800bcf2:	2b03      	cmp	r3, #3
 800bcf4:	d016      	beq.n	800bd24 <USBD_StdEPReq+0x112>
 800bcf6:	e030      	b.n	800bd5a <USBD_StdEPReq+0x148>
 800bcf8:	7bbb      	ldrb	r3, [r7, #14]
 800bcfa:	2b00      	cmp	r3, #0
 800bcfc:	d00d      	beq.n	800bd1a <USBD_StdEPReq+0x108>
 800bcfe:	7bbb      	ldrb	r3, [r7, #14]
 800bd00:	2b80      	cmp	r3, #128	; 0x80
 800bd02:	d00a      	beq.n	800bd1a <USBD_StdEPReq+0x108>
 800bd04:	7bbb      	ldrb	r3, [r7, #14]
 800bd06:	4619      	mov	r1, r3
 800bd08:	6878      	ldr	r0, [r7, #4]
 800bd0a:	f001 f8b5 	bl	800ce78 <USBD_LL_StallEP>
 800bd0e:	2180      	movs	r1, #128	; 0x80
 800bd10:	6878      	ldr	r0, [r7, #4]
 800bd12:	f001 f8b1 	bl	800ce78 <USBD_LL_StallEP>
 800bd16:	bf00      	nop
 800bd18:	e025      	b.n	800bd66 <USBD_StdEPReq+0x154>
 800bd1a:	6839      	ldr	r1, [r7, #0]
 800bd1c:	6878      	ldr	r0, [r7, #4]
 800bd1e:	f000 fc33 	bl	800c588 <USBD_CtlError>
 800bd22:	e020      	b.n	800bd66 <USBD_StdEPReq+0x154>
 800bd24:	683b      	ldr	r3, [r7, #0]
 800bd26:	885b      	ldrh	r3, [r3, #2]
 800bd28:	2b00      	cmp	r3, #0
 800bd2a:	d11b      	bne.n	800bd64 <USBD_StdEPReq+0x152>
 800bd2c:	7bbb      	ldrb	r3, [r7, #14]
 800bd2e:	f003 037f 	and.w	r3, r3, #127	; 0x7f
 800bd32:	2b00      	cmp	r3, #0
 800bd34:	d004      	beq.n	800bd40 <USBD_StdEPReq+0x12e>
 800bd36:	7bbb      	ldrb	r3, [r7, #14]
 800bd38:	4619      	mov	r1, r3
 800bd3a:	6878      	ldr	r0, [r7, #4]
 800bd3c:	f001 f8bb 	bl	800ceb6 <USBD_LL_ClearStallEP>
 800bd40:	6878      	ldr	r0, [r7, #4]
 800bd42:	f000 fcec 	bl	800c71e <USBD_CtlSendStatus>
 800bd46:	687b      	ldr	r3, [r7, #4]
 800bd48:	f8d3 32b8 	ldr.w	r3, [r3, #696]	; 0x2b8
 800bd4c:	689b      	ldr	r3, [r3, #8]
 800bd4e:	6839      	ldr	r1, [r7, #0]
 800bd50:	6878      	ldr	r0, [r7, #4]
 800bd52:	4798      	blx	r3
 800bd54:	4603      	mov	r3, r0
 800bd56:	73fb      	strb	r3, [r7, #15]
 800bd58:	e004      	b.n	800bd64 <USBD_StdEPReq+0x152>
 800bd5a:	6839      	ldr	r1, [r7, #0]
 800bd5c:	6878      	ldr	r0, [r7, #4]
 800bd5e:	f000 fc13 	bl	800c588 <USBD_CtlError>
 800bd62:	e000      	b.n	800bd66 <USBD_StdEPReq+0x154>
 800bd64:	bf00      	nop
 800bd66:	e0ab      	b.n	800bec0 <USBD_StdEPReq+0x2ae>
 800bd68:	687b      	ldr	r3, [r7, #4]
 800bd6a:	f893 329c 	ldrb.w	r3, [r3, #668]	; 0x29c
 800bd6e:	b2db      	uxtb	r3, r3
 800bd70:	2b02      	cmp	r3, #2
 800bd72:	d002      	beq.n	800bd7a <USBD_StdEPReq+0x168>
 800bd74:	2b03      	cmp	r3, #3
 800bd76:	d032      	beq.n	800bdde <USBD_StdEPReq+0x1cc>
 800bd78:	e097      	b.n	800beaa <USBD_StdEPReq+0x298>
 800bd7a:	7bbb      	ldrb	r3, [r7, #14]
 800bd7c:	2b00      	cmp	r3, #0
 800bd7e:	d007      	beq.n	800bd90 <USBD_StdEPReq+0x17e>
 800bd80:	7bbb      	ldrb	r3, [r7, #14]
 800bd82:	2b80      	cmp	r3, #128	; 0x80
 800bd84:	d004      	beq.n	800bd90 <USBD_StdEPReq+0x17e>
 800bd86:	6839      	ldr	r1, [r7, #0]
 800bd88:	6878      	ldr	r0, [r7, #4]
 800bd8a:	f000 fbfd 	bl	800c588 <USBD_CtlError>
 800bd8e:	e091      	b.n	800beb4 <USBD_StdEPReq+0x2a2>
 800bd90:	f997 300e 	ldrsb.w	r3, [r7, #14]
 800bd94:	2b00      	cmp	r3, #0
 800bd96:	da0b      	bge.n	800bdb0 <USBD_StdEPReq+0x19e>
 800bd98:	7bbb      	ldrb	r3, [r7, #14]
 800bd9a:	f003 027f 	and.w	r2, r3, #127	; 0x7f
 800bd9e:	4613      	mov	r3, r2
 800bda0:	009b      	lsls	r3, r3, #2
 800bda2:	4413      	add	r3, r2
 800bda4:	009b      	lsls	r3, r3, #2
 800bda6:	3310      	adds	r3, #16
 800bda8:	687a      	ldr	r2, [r7, #4]
 800bdaa:	4413      	add	r3, r2
 800bdac:	3304      	adds	r3, #4
 800bdae:	e00b      	b.n	800bdc8 <USBD_StdEPReq+0x1b6>
 800bdb0:	7bbb      	ldrb	r3, [r7, #14]
 800bdb2:	f003 027f 	and.w	r2, r3, #127	; 0x7f
 800bdb6:	4613      	mov	r3, r2
 800bdb8:	009b      	lsls	r3, r3, #2
 800bdba:	4413      	add	r3, r2
 800bdbc:	009b      	lsls	r3, r3, #2
 800bdbe:	f503 73a8 	add.w	r3, r3, #336	; 0x150
 800bdc2:	687a      	ldr	r2, [r7, #4]
 800bdc4:	4413      	add	r3, r2
 800bdc6:	3304      	adds	r3, #4
 800bdc8:	60bb      	str	r3, [r7, #8]
 800bdca:	68bb      	ldr	r3, [r7, #8]
 800bdcc:	2200      	movs	r2, #0
 800bdce:	601a      	str	r2, [r3, #0]
 800bdd0:	68bb      	ldr	r3, [r7, #8]
 800bdd2:	2202      	movs	r2, #2
 800bdd4:	4619      	mov	r1, r3
 800bdd6:	6878      	ldr	r0, [r7, #4]
 800bdd8:	f000 fc47 	bl	800c66a <USBD_CtlSendData>
 800bddc:	e06a      	b.n	800beb4 <USBD_StdEPReq+0x2a2>
 800bdde:	f997 300e 	ldrsb.w	r3, [r7, #14]
 800bde2:	2b00      	cmp	r3, #0
 800bde4:	da11      	bge.n	800be0a <USBD_StdEPReq+0x1f8>
 800bde6:	7bbb      	ldrb	r3, [r7, #14]
 800bde8:	f003 020f 	and.w	r2, r3, #15
 800bdec:	6879      	ldr	r1, [r7, #4]
 800bdee:	4613      	mov	r3, r2
 800bdf0:	009b      	lsls	r3, r3, #2
 800bdf2:	4413      	add	r3, r2
 800bdf4:	009b      	lsls	r3, r3, #2
 800bdf6:	440b      	add	r3, r1
 800bdf8:	3324      	adds	r3, #36	; 0x24
 800bdfa:	881b      	ldrh	r3, [r3, #0]
 800bdfc:	2b00      	cmp	r3, #0
 800bdfe:	d117      	bne.n	800be30 <USBD_StdEPReq+0x21e>
 800be00:	6839      	ldr	r1, [r7, #0]
 800be02:	6878      	ldr	r0, [r7, #4]
 800be04:	f000 fbc0 	bl	800c588 <USBD_CtlError>
 800be08:	e054      	b.n	800beb4 <USBD_StdEPReq+0x2a2>
 800be0a:	7bbb      	ldrb	r3, [r7, #14]
 800be0c:	f003 020f 	and.w	r2, r3, #15
 800be10:	6879      	ldr	r1, [r7, #4]
 800be12:	4613      	mov	r3, r2
 800be14:	009b      	lsls	r3, r3, #2
 800be16:	4413      	add	r3, r2
 800be18:	009b      	lsls	r3, r3, #2
 800be1a:	440b      	add	r3, r1
 800be1c:	f503 73b2 	add.w	r3, r3, #356	; 0x164
 800be20:	881b      	ldrh	r3, [r3, #0]
 800be22:	2b00      	cmp	r3, #0
 800be24:	d104      	bne.n	800be30 <USBD_StdEPReq+0x21e>
 800be26:	6839      	ldr	r1, [r7, #0]
 800be28:	6878      	ldr	r0, [r7, #4]
 800be2a:	f000 fbad 	bl	800c588 <USBD_CtlError>
 800be2e:	e041      	b.n	800beb4 <USBD_StdEPReq+0x2a2>
 800be30:	f997 300e 	ldrsb.w	r3, [r7, #14]
 800be34:	2b00      	cmp	r3, #0
 800be36:	da0b      	bge.n	800be50 <USBD_StdEPReq+0x23e>
 800be38:	7bbb      	ldrb	r3, [r7, #14]
 800be3a:	f003 027f 	and.w	r2, r3, #127	; 0x7f
 800be3e:	4613      	mov	r3, r2
 800be40:	009b      	lsls	r3, r3, #2
 800be42:	4413      	add	r3, r2
 800be44:	009b      	lsls	r3, r3, #2
 800be46:	3310      	adds	r3, #16
 800be48:	687a      	ldr	r2, [r7, #4]
 800be4a:	4413      	add	r3, r2
 800be4c:	3304      	adds	r3, #4
 800be4e:	e00b      	b.n	800be68 <USBD_StdEPReq+0x256>
 800be50:	7bbb      	ldrb	r3, [r7, #14]
 800be52:	f003 027f 	and.w	r2, r3, #127	; 0x7f
 800be56:	4613      	mov	r3, r2
 800be58:	009b      	lsls	r3, r3, #2
 800be5a:	4413      	add	r3, r2
 800be5c:	009b      	lsls	r3, r3, #2
 800be5e:	f503 73a8 	add.w	r3, r3, #336	; 0x150
 800be62:	687a      	ldr	r2, [r7, #4]
 800be64:	4413      	add	r3, r2
 800be66:	3304      	adds	r3, #4
 800be68:	60bb      	str	r3, [r7, #8]
 800be6a:	7bbb      	ldrb	r3, [r7, #14]
 800be6c:	2b00      	cmp	r3, #0
 800be6e:	d002      	beq.n	800be76 <USBD_StdEPReq+0x264>
 800be70:	7bbb      	ldrb	r3, [r7, #14]
 800be72:	2b80      	cmp	r3, #128	; 0x80
 800be74:	d103      	bne.n	800be7e <USBD_StdEPReq+0x26c>
 800be76:	68bb      	ldr	r3, [r7, #8]
 800be78:	2200      	movs	r2, #0
 800be7a:	601a      	str	r2, [r3, #0]
 800be7c:	e00e      	b.n	800be9c <USBD_StdEPReq+0x28a>
 800be7e:	7bbb      	ldrb	r3, [r7, #14]
 800be80:	4619      	mov	r1, r3
 800be82:	6878      	ldr	r0, [r7, #4]
 800be84:	f001 f836 	bl	800cef4 <USBD_LL_IsStallEP>
 800be88:	4603      	mov	r3, r0
 800be8a:	2b00      	cmp	r3, #0
 800be8c:	d003      	beq.n	800be96 <USBD_StdEPReq+0x284>
 800be8e:	68bb      	ldr	r3, [r7, #8]
 800be90:	2201      	movs	r2, #1
 800be92:	601a      	str	r2, [r3, #0]
 800be94:	e002      	b.n	800be9c <USBD_StdEPReq+0x28a>
 800be96:	68bb      	ldr	r3, [r7, #8]
 800be98:	2200      	movs	r2, #0
 800be9a:	601a      	str	r2, [r3, #0]
 800be9c:	68bb      	ldr	r3, [r7, #8]
 800be9e:	2202      	movs	r2, #2
 800bea0:	4619      	mov	r1, r3
 800bea2:	6878      	ldr	r0, [r7, #4]
 800bea4:	f000 fbe1 	bl	800c66a <USBD_CtlSendData>
 800bea8:	e004      	b.n	800beb4 <USBD_StdEPReq+0x2a2>
 800beaa:	6839      	ldr	r1, [r7, #0]
 800beac:	6878      	ldr	r0, [r7, #4]
 800beae:	f000 fb6b 	bl	800c588 <USBD_CtlError>
 800beb2:	bf00      	nop
 800beb4:	e004      	b.n	800bec0 <USBD_StdEPReq+0x2ae>
 800beb6:	6839      	ldr	r1, [r7, #0]
 800beb8:	6878      	ldr	r0, [r7, #4]
 800beba:	f000 fb65 	bl	800c588 <USBD_CtlError>
 800bebe:	bf00      	nop
 800bec0:	e004      	b.n	800becc <USBD_StdEPReq+0x2ba>
 800bec2:	6839      	ldr	r1, [r7, #0]
 800bec4:	6878      	ldr	r0, [r7, #4]
 800bec6:	f000 fb5f 	bl	800c588 <USBD_CtlError>
 800beca:	bf00      	nop
 800becc:	7bfb      	ldrb	r3, [r7, #15]
 800bece:	4618      	mov	r0, r3
 800bed0:	3710      	adds	r7, #16
 800bed2:	46bd      	mov	sp, r7
 800bed4:	bd80      	pop	{r7, pc}
	...

0800bed8 <USBD_GetDescriptor>:
 800bed8:	b580      	push	{r7, lr}
 800beda:	b084      	sub	sp, #16
 800bedc:	af00      	add	r7, sp, #0
 800bede:	6078      	str	r0, [r7, #4]
 800bee0:	6039      	str	r1, [r7, #0]
 800bee2:	2300      	movs	r3, #0
 800bee4:	813b      	strh	r3, [r7, #8]
 800bee6:	2300      	movs	r3, #0
 800bee8:	60fb      	str	r3, [r7, #12]
 800beea:	2300      	movs	r3, #0
 800beec:	72fb      	strb	r3, [r7, #11]
 800beee:	683b      	ldr	r3, [r7, #0]
 800bef0:	885b      	ldrh	r3, [r3, #2]
 800bef2:	0a1b      	lsrs	r3, r3, #8
 800bef4:	b29b      	uxth	r3, r3
 800bef6:	3b01      	subs	r3, #1
 800bef8:	2b0e      	cmp	r3, #14
 800befa:	f200 8152 	bhi.w	800c1a2 <USBD_GetDescriptor+0x2ca>
 800befe:	a201      	add	r2, pc, #4	; (adr r2, 800bf04 <USBD_GetDescriptor+0x2c>)
 800bf00:	f852 f023 	ldr.w	pc, [r2, r3, lsl #2]
 800bf04:	0800bf75 	.word	0x0800bf75
 800bf08:	0800bf8d 	.word	0x0800bf8d
 800bf0c:	0800bfcd 	.word	0x0800bfcd
 800bf10:	0800c1a3 	.word	0x0800c1a3
 800bf14:	0800c1a3 	.word	0x0800c1a3
 800bf18:	0800c143 	.word	0x0800c143
 800bf1c:	0800c16f 	.word	0x0800c16f
 800bf20:	0800c1a3 	.word	0x0800c1a3
 800bf24:	0800c1a3 	.word	0x0800c1a3
 800bf28:	0800c1a3 	.word	0x0800c1a3
 800bf2c:	0800c1a3 	.word	0x0800c1a3
 800bf30:	0800c1a3 	.word	0x0800c1a3
 800bf34:	0800c1a3 	.word	0x0800c1a3
 800bf38:	0800c1a3 	.word	0x0800c1a3
 800bf3c:	0800bf41 	.word	0x0800bf41
 800bf40:	687b      	ldr	r3, [r7, #4]
 800bf42:	f8d3 32b4 	ldr.w	r3, [r3, #692]	; 0x2b4
 800bf46:	69db      	ldr	r3, [r3, #28]
 800bf48:	2b00      	cmp	r3, #0
 800bf4a:	d00b      	beq.n	800bf64 <USBD_GetDescriptor+0x8c>
 800bf4c:	687b      	ldr	r3, [r7, #4]
 800bf4e:	f8d3 32b4 	ldr.w	r3, [r3, #692]	; 0x2b4
 800bf52:	69db      	ldr	r3, [r3, #28]
 800bf54:	687a      	ldr	r2, [r7, #4]
 800bf56:	7c12      	ldrb	r2, [r2, #16]
 800bf58:	f107 0108 	add.w	r1, r7, #8
 800bf5c:	4610      	mov	r0, r2
 800bf5e:	4798      	blx	r3
 800bf60:	60f8      	str	r0, [r7, #12]
 800bf62:	e126      	b.n	800c1b2 <USBD_GetDescriptor+0x2da>
 800bf64:	6839      	ldr	r1, [r7, #0]
 800bf66:	6878      	ldr	r0, [r7, #4]
 800bf68:	f000 fb0e 	bl	800c588 <USBD_CtlError>
 800bf6c:	7afb      	ldrb	r3, [r7, #11]
 800bf6e:	3301      	adds	r3, #1
 800bf70:	72fb      	strb	r3, [r7, #11]
 800bf72:	e11e      	b.n	800c1b2 <USBD_GetDescriptor+0x2da>
 800bf74:	687b      	ldr	r3, [r7, #4]
 800bf76:	f8d3 32b4 	ldr.w	r3, [r3, #692]	; 0x2b4
 800bf7a:	681b      	ldr	r3, [r3, #0]
 800bf7c:	687a      	ldr	r2, [r7, #4]
 800bf7e:	7c12      	ldrb	r2, [r2, #16]
 800bf80:	f107 0108 	add.w	r1, r7, #8
 800bf84:	4610      	mov	r0, r2
 800bf86:	4798      	blx	r3
 800bf88:	60f8      	str	r0, [r7, #12]
 800bf8a:	e112      	b.n	800c1b2 <USBD_GetDescriptor+0x2da>
 800bf8c:	687b      	ldr	r3, [r7, #4]
 800bf8e:	7c1b      	ldrb	r3, [r3, #16]
 800bf90:	2b00      	cmp	r3, #0
 800bf92:	d10d      	bne.n	800bfb0 <USBD_GetDescriptor+0xd8>
 800bf94:	687b      	ldr	r3, [r7, #4]
 800bf96:	f8d3 32b8 	ldr.w	r3, [r3, #696]	; 0x2b8
 800bf9a:	6a9b      	ldr	r3, [r3, #40]	; 0x28
 800bf9c:	f107 0208 	add.w	r2, r7, #8
 800bfa0:	4610      	mov	r0, r2
 800bfa2:	4798      	blx	r3
 800bfa4:	60f8      	str	r0, [r7, #12]
 800bfa6:	68fb      	ldr	r3, [r7, #12]
 800bfa8:	3301      	adds	r3, #1
 800bfaa:	2202      	movs	r2, #2
 800bfac:	701a      	strb	r2, [r3, #0]
 800bfae:	e100      	b.n	800c1b2 <USBD_GetDescriptor+0x2da>
 800bfb0:	687b      	ldr	r3, [r7, #4]
 800bfb2:	f8d3 32b8 	ldr.w	r3, [r3, #696]	; 0x2b8
 800bfb6:	6adb      	ldr	r3, [r3, #44]	; 0x2c
 800bfb8:	f107 0208 	add.w	r2, r7, #8
 800bfbc:	4610      	mov	r0, r2
 800bfbe:	4798      	blx	r3
 800bfc0:	60f8      	str	r0, [r7, #12]
 800bfc2:	68fb      	ldr	r3, [r7, #12]
 800bfc4:	3301      	adds	r3, #1
 800bfc6:	2202      	movs	r2, #2
 800bfc8:	701a      	strb	r2, [r3, #0]
 800bfca:	e0f2      	b.n	800c1b2 <USBD_GetDescriptor+0x2da>
 800bfcc:	683b      	ldr	r3, [r7, #0]
 800bfce:	885b      	ldrh	r3, [r3, #2]
 800bfd0:	b2db      	uxtb	r3, r3
 800bfd2:	2b05      	cmp	r3, #5
 800bfd4:	f200 80ac 	bhi.w	800c130 <USBD_GetDescriptor+0x258>
 800bfd8:	a201      	add	r2, pc, #4	; (adr r2, 800bfe0 <USBD_GetDescriptor+0x108>)
 800bfda:	f852 f023 	ldr.w	pc, [r2, r3, lsl #2]
 800bfde:	bf00      	nop
 800bfe0:	0800bff9 	.word	0x0800bff9
 800bfe4:	0800c02d 	.word	0x0800c02d
 800bfe8:	0800c061 	.word	0x0800c061
 800bfec:	0800c095 	.word	0x0800c095
 800bff0:	0800c0c9 	.word	0x0800c0c9
 800bff4:	0800c0fd 	.word	0x0800c0fd
 800bff8:	687b      	ldr	r3, [r7, #4]
 800bffa:	f8d3 32b4 	ldr.w	r3, [r3, #692]	; 0x2b4
 800bffe:	685b      	ldr	r3, [r3, #4]
 800c000:	2b00      	cmp	r3, #0
 800c002:	d00b      	beq.n	800c01c <USBD_GetDescriptor+0x144>
 800c004:	687b      	ldr	r3, [r7, #4]
 800c006:	f8d3 32b4 	ldr.w	r3, [r3, #692]	; 0x2b4
 800c00a:	685b      	ldr	r3, [r3, #4]
 800c00c:	687a      	ldr	r2, [r7, #4]
 800c00e:	7c12      	ldrb	r2, [r2, #16]
 800c010:	f107 0108 	add.w	r1, r7, #8
 800c014:	4610      	mov	r0, r2
 800c016:	4798      	blx	r3
 800c018:	60f8      	str	r0, [r7, #12]
 800c01a:	e091      	b.n	800c140 <USBD_GetDescriptor+0x268>
 800c01c:	6839      	ldr	r1, [r7, #0]
 800c01e:	6878      	ldr	r0, [r7, #4]
 800c020:	f000 fab2 	bl	800c588 <USBD_CtlError>
 800c024:	7afb      	ldrb	r3, [r7, #11]
 800c026:	3301      	adds	r3, #1
 800c028:	72fb      	strb	r3, [r7, #11]
 800c02a:	e089      	b.n	800c140 <USBD_GetDescriptor+0x268>
 800c02c:	687b      	ldr	r3, [r7, #4]
 800c02e:	f8d3 32b4 	ldr.w	r3, [r3, #692]	; 0x2b4
 800c032:	689b      	ldr	r3, [r3, #8]
 800c034:	2b00      	cmp	r3, #0
 800c036:	d00b      	beq.n	800c050 <USBD_GetDescriptor+0x178>
 800c038:	687b      	ldr	r3, [r7, #4]
 800c03a:	f8d3 32b4 	ldr.w	r3, [r3, #692]	; 0x2b4
 800c03e:	689b      	ldr	r3, [r3, #8]
 800c040:	687a      	ldr	r2, [r7, #4]
 800c042:	7c12      	ldrb	r2, [r2, #16]
 800c044:	f107 0108 	add.w	r1, r7, #8
 800c048:	4610      	mov	r0, r2
 800c04a:	4798      	blx	r3
 800c04c:	60f8      	str	r0, [r7, #12]
 800c04e:	e077      	b.n	800c140 <USBD_GetDescriptor+0x268>
 800c050:	6839      	ldr	r1, [r7, #0]
 800c052:	6878      	ldr	r0, [r7, #4]
 800c054:	f000 fa98 	bl	800c588 <USBD_CtlError>
 800c058:	7afb      	ldrb	r3, [r7, #11]
 800c05a:	3301      	adds	r3, #1
 800c05c:	72fb      	strb	r3, [r7, #11]
 800c05e:	e06f      	b.n	800c140 <USBD_GetDescriptor+0x268>
 800c060:	687b      	ldr	r3, [r7, #4]
 800c062:	f8d3 32b4 	ldr.w	r3, [r3, #692]	; 0x2b4
 800c066:	68db      	ldr	r3, [r3, #12]
 800c068:	2b00      	cmp	r3, #0
 800c06a:	d00b      	beq.n	800c084 <USBD_GetDescriptor+0x1ac>
 800c06c:	687b      	ldr	r3, [r7, #4]
 800c06e:	f8d3 32b4 	ldr.w	r3, [r3, #692]	; 0x2b4
 800c072:	68db      	ldr	r3, [r3, #12]
 800c074:	687a      	ldr	r2, [r7, #4]
 800c076:	7c12      	ldrb	r2, [r2, #16]
 800c078:	f107 0108 	add.w	r1, r7, #8
 800c07c:	4610      	mov	r0, r2
 800c07e:	4798      	blx	r3
 800c080:	60f8      	str	r0, [r7, #12]
 800c082:	e05d      	b.n	800c140 <USBD_GetDescriptor+0x268>
 800c084:	6839      	ldr	r1, [r7, #0]
 800c086:	6878      	ldr	r0, [r7, #4]
 800c088:	f000 fa7e 	bl	800c588 <USBD_CtlError>
 800c08c:	7afb      	ldrb	r3, [r7, #11]
 800c08e:	3301      	adds	r3, #1
 800c090:	72fb      	strb	r3, [r7, #11]
 800c092:	e055      	b.n	800c140 <USBD_GetDescriptor+0x268>
 800c094:	687b      	ldr	r3, [r7, #4]
 800c096:	f8d3 32b4 	ldr.w	r3, [r3, #692]	; 0x2b4
 800c09a:	691b      	ldr	r3, [r3, #16]
 800c09c:	2b00      	cmp	r3, #0
 800c09e:	d00b      	beq.n	800c0b8 <USBD_GetDescriptor+0x1e0>
 800c0a0:	687b      	ldr	r3, [r7, #4]
 800c0a2:	f8d3 32b4 	ldr.w	r3, [r3, #692]	; 0x2b4
 800c0a6:	691b      	ldr	r3, [r3, #16]
 800c0a8:	687a      	ldr	r2, [r7, #4]
 800c0aa:	7c12      	ldrb	r2, [r2, #16]
 800c0ac:	f107 0108 	add.w	r1, r7, #8
 800c0b0:	4610      	mov	r0, r2
 800c0b2:	4798      	blx	r3
 800c0b4:	60f8      	str	r0, [r7, #12]
 800c0b6:	e043      	b.n	800c140 <USBD_GetDescriptor+0x268>
 800c0b8:	6839      	ldr	r1, [r7, #0]
 800c0ba:	6878      	ldr	r0, [r7, #4]
 800c0bc:	f000 fa64 	bl	800c588 <USBD_CtlError>
 800c0c0:	7afb      	ldrb	r3, [r7, #11]
 800c0c2:	3301      	adds	r3, #1
 800c0c4:	72fb      	strb	r3, [r7, #11]
 800c0c6:	e03b      	b.n	800c140 <USBD_GetDescriptor+0x268>
 800c0c8:	687b      	ldr	r3, [r7, #4]
 800c0ca:	f8d3 32b4 	ldr.w	r3, [r3, #692]	; 0x2b4
 800c0ce:	695b      	ldr	r3, [r3, #20]
 800c0d0:	2b00      	cmp	r3, #0
 800c0d2:	d00b      	beq.n	800c0ec <USBD_GetDescriptor+0x214>
 800c0d4:	687b      	ldr	r3, [r7, #4]
 800c0d6:	f8d3 32b4 	ldr.w	r3, [r3, #692]	; 0x2b4
 800c0da:	695b      	ldr	r3, [r3, #20]
 800c0dc:	687a      	ldr	r2, [r7, #4]
 800c0de:	7c12      	ldrb	r2, [r2, #16]
 800c0e0:	f107 0108 	add.w	r1, r7, #8
 800c0e4:	4610      	mov	r0, r2
 800c0e6:	4798      	blx	r3
 800c0e8:	60f8      	str	r0, [r7, #12]
 800c0ea:	e029      	b.n	800c140 <USBD_GetDescriptor+0x268>
 800c0ec:	6839      	ldr	r1, [r7, #0]
 800c0ee:	6878      	ldr	r0, [r7, #4]
 800c0f0:	f000 fa4a 	bl	800c588 <USBD_CtlError>
 800c0f4:	7afb      	ldrb	r3, [r7, #11]
 800c0f6:	3301      	adds	r3, #1
 800c0f8:	72fb      	strb	r3, [r7, #11]
 800c0fa:	e021      	b.n	800c140 <USBD_GetDescriptor+0x268>
 800c0fc:	687b      	ldr	r3, [r7, #4]
 800c0fe:	f8d3 32b4 	ldr.w	r3, [r3, #692]	; 0x2b4
 800c102:	699b      	ldr	r3, [r3, #24]
 800c104:	2b00      	cmp	r3, #0
 800c106:	d00b      	beq.n	800c120 <USBD_GetDescriptor+0x248>
 800c108:	687b      	ldr	r3, [r7, #4]
 800c10a:	f8d3 32b4 	ldr.w	r3, [r3, #692]	; 0x2b4
 800c10e:	699b      	ldr	r3, [r3, #24]
 800c110:	687a      	ldr	r2, [r7, #4]
 800c112:	7c12      	ldrb	r2, [r2, #16]
 800c114:	f107 0108 	add.w	r1, r7, #8
 800c118:	4610      	mov	r0, r2
 800c11a:	4798      	blx	r3
 800c11c:	60f8      	str	r0, [r7, #12]
 800c11e:	e00f      	b.n	800c140 <USBD_GetDescriptor+0x268>
 800c120:	6839      	ldr	r1, [r7, #0]
 800c122:	6878      	ldr	r0, [r7, #4]
 800c124:	f000 fa30 	bl	800c588 <USBD_CtlError>
 800c128:	7afb      	ldrb	r3, [r7, #11]
 800c12a:	3301      	adds	r3, #1
 800c12c:	72fb      	strb	r3, [r7, #11]
 800c12e:	e007      	b.n	800c140 <USBD_GetDescriptor+0x268>
 800c130:	6839      	ldr	r1, [r7, #0]
 800c132:	6878      	ldr	r0, [r7, #4]
 800c134:	f000 fa28 	bl	800c588 <USBD_CtlError>
 800c138:	7afb      	ldrb	r3, [r7, #11]
 800c13a:	3301      	adds	r3, #1
 800c13c:	72fb      	strb	r3, [r7, #11]
 800c13e:	bf00      	nop
 800c140:	e037      	b.n	800c1b2 <USBD_GetDescriptor+0x2da>
 800c142:	687b      	ldr	r3, [r7, #4]
 800c144:	7c1b      	ldrb	r3, [r3, #16]
 800c146:	2b00      	cmp	r3, #0
 800c148:	d109      	bne.n	800c15e <USBD_GetDescriptor+0x286>
 800c14a:	687b      	ldr	r3, [r7, #4]
 800c14c:	f8d3 32b8 	ldr.w	r3, [r3, #696]	; 0x2b8
 800c150:	6b5b      	ldr	r3, [r3, #52]	; 0x34
 800c152:	f107 0208 	add.w	r2, r7, #8
 800c156:	4610      	mov	r0, r2
 800c158:	4798      	blx	r3
 800c15a:	60f8      	str	r0, [r7, #12]
 800c15c:	e029      	b.n	800c1b2 <USBD_GetDescriptor+0x2da>
 800c15e:	6839      	ldr	r1, [r7, #0]
 800c160:	6878      	ldr	r0, [r7, #4]
 800c162:	f000 fa11 	bl	800c588 <USBD_CtlError>
 800c166:	7afb      	ldrb	r3, [r7, #11]
 800c168:	3301      	adds	r3, #1
 800c16a:	72fb      	strb	r3, [r7, #11]
 800c16c:	e021      	b.n	800c1b2 <USBD_GetDescriptor+0x2da>
 800c16e:	687b      	ldr	r3, [r7, #4]
 800c170:	7c1b      	ldrb	r3, [r3, #16]
 800c172:	2b00      	cmp	r3, #0
 800c174:	d10d      	bne.n	800c192 <USBD_GetDescriptor+0x2ba>
 800c176:	687b      	ldr	r3, [r7, #4]
 800c178:	f8d3 32b8 	ldr.w	r3, [r3, #696]	; 0x2b8
 800c17c:	6b1b      	ldr	r3, [r3, #48]	; 0x30
 800c17e:	f107 0208 	add.w	r2, r7, #8
 800c182:	4610      	mov	r0, r2
 800c184:	4798      	blx	r3
 800c186:	60f8      	str	r0, [r7, #12]
 800c188:	68fb      	ldr	r3, [r7, #12]
 800c18a:	3301      	adds	r3, #1
 800c18c:	2207      	movs	r2, #7
 800c18e:	701a      	strb	r2, [r3, #0]
 800c190:	e00f      	b.n	800c1b2 <USBD_GetDescriptor+0x2da>
 800c192:	6839      	ldr	r1, [r7, #0]
 800c194:	6878      	ldr	r0, [r7, #4]
 800c196:	f000 f9f7 	bl	800c588 <USBD_CtlError>
 800c19a:	7afb      	ldrb	r3, [r7, #11]
 800c19c:	3301      	adds	r3, #1
 800c19e:	72fb      	strb	r3, [r7, #11]
 800c1a0:	e007      	b.n	800c1b2 <USBD_GetDescriptor+0x2da>
 800c1a2:	6839      	ldr	r1, [r7, #0]
 800c1a4:	6878      	ldr	r0, [r7, #4]
 800c1a6:	f000 f9ef 	bl	800c588 <USBD_CtlError>
 800c1aa:	7afb      	ldrb	r3, [r7, #11]
 800c1ac:	3301      	adds	r3, #1
 800c1ae:	72fb      	strb	r3, [r7, #11]
 800c1b0:	bf00      	nop
 800c1b2:	7afb      	ldrb	r3, [r7, #11]
 800c1b4:	2b00      	cmp	r3, #0
 800c1b6:	d11e      	bne.n	800c1f6 <USBD_GetDescriptor+0x31e>
 800c1b8:	683b      	ldr	r3, [r7, #0]
 800c1ba:	88db      	ldrh	r3, [r3, #6]
 800c1bc:	2b00      	cmp	r3, #0
 800c1be:	d016      	beq.n	800c1ee <USBD_GetDescriptor+0x316>
 800c1c0:	893b      	ldrh	r3, [r7, #8]
 800c1c2:	2b00      	cmp	r3, #0
 800c1c4:	d00e      	beq.n	800c1e4 <USBD_GetDescriptor+0x30c>
 800c1c6:	683b      	ldr	r3, [r7, #0]
 800c1c8:	88da      	ldrh	r2, [r3, #6]
 800c1ca:	893b      	ldrh	r3, [r7, #8]
 800c1cc:	4293      	cmp	r3, r2
 800c1ce:	bf28      	it	cs
 800c1d0:	4613      	movcs	r3, r2
 800c1d2:	b29b      	uxth	r3, r3
 800c1d4:	813b      	strh	r3, [r7, #8]
 800c1d6:	893b      	ldrh	r3, [r7, #8]
 800c1d8:	461a      	mov	r2, r3
 800c1da:	68f9      	ldr	r1, [r7, #12]
 800c1dc:	6878      	ldr	r0, [r7, #4]
 800c1de:	f000 fa44 	bl	800c66a <USBD_CtlSendData>
 800c1e2:	e009      	b.n	800c1f8 <USBD_GetDescriptor+0x320>
 800c1e4:	6839      	ldr	r1, [r7, #0]
 800c1e6:	6878      	ldr	r0, [r7, #4]
 800c1e8:	f000 f9ce 	bl	800c588 <USBD_CtlError>
 800c1ec:	e004      	b.n	800c1f8 <USBD_GetDescriptor+0x320>
 800c1ee:	6878      	ldr	r0, [r7, #4]
 800c1f0:	f000 fa95 	bl	800c71e <USBD_CtlSendStatus>
 800c1f4:	e000      	b.n	800c1f8 <USBD_GetDescriptor+0x320>
 800c1f6:	bf00      	nop
 800c1f8:	3710      	adds	r7, #16
 800c1fa:	46bd      	mov	sp, r7
 800c1fc:	bd80      	pop	{r7, pc}
 800c1fe:	bf00      	nop

0800c200 <USBD_SetAddress>:
 800c200:	b580      	push	{r7, lr}
 800c202:	b084      	sub	sp, #16
 800c204:	af00      	add	r7, sp, #0
 800c206:	6078      	str	r0, [r7, #4]
 800c208:	6039      	str	r1, [r7, #0]
 800c20a:	683b      	ldr	r3, [r7, #0]
 800c20c:	889b      	ldrh	r3, [r3, #4]
 800c20e:	2b00      	cmp	r3, #0
 800c210:	d131      	bne.n	800c276 <USBD_SetAddress+0x76>
 800c212:	683b      	ldr	r3, [r7, #0]
 800c214:	88db      	ldrh	r3, [r3, #6]
 800c216:	2b00      	cmp	r3, #0
 800c218:	d12d      	bne.n	800c276 <USBD_SetAddress+0x76>
 800c21a:	683b      	ldr	r3, [r7, #0]
 800c21c:	885b      	ldrh	r3, [r3, #2]
 800c21e:	2b7f      	cmp	r3, #127	; 0x7f
 800c220:	d829      	bhi.n	800c276 <USBD_SetAddress+0x76>
 800c222:	683b      	ldr	r3, [r7, #0]
 800c224:	885b      	ldrh	r3, [r3, #2]
 800c226:	b2db      	uxtb	r3, r3
 800c228:	f003 037f 	and.w	r3, r3, #127	; 0x7f
 800c22c:	73fb      	strb	r3, [r7, #15]
 800c22e:	687b      	ldr	r3, [r7, #4]
 800c230:	f893 329c 	ldrb.w	r3, [r3, #668]	; 0x29c
 800c234:	b2db      	uxtb	r3, r3
 800c236:	2b03      	cmp	r3, #3
 800c238:	d104      	bne.n	800c244 <USBD_SetAddress+0x44>
 800c23a:	6839      	ldr	r1, [r7, #0]
 800c23c:	6878      	ldr	r0, [r7, #4]
 800c23e:	f000 f9a3 	bl	800c588 <USBD_CtlError>
 800c242:	e01d      	b.n	800c280 <USBD_SetAddress+0x80>
 800c244:	687b      	ldr	r3, [r7, #4]
 800c246:	7bfa      	ldrb	r2, [r7, #15]
 800c248:	f883 229e 	strb.w	r2, [r3, #670]	; 0x29e
 800c24c:	7bfb      	ldrb	r3, [r7, #15]
 800c24e:	4619      	mov	r1, r3
 800c250:	6878      	ldr	r0, [r7, #4]
 800c252:	f000 fe7b 	bl	800cf4c <USBD_LL_SetUSBAddress>
 800c256:	6878      	ldr	r0, [r7, #4]
 800c258:	f000 fa61 	bl	800c71e <USBD_CtlSendStatus>
 800c25c:	7bfb      	ldrb	r3, [r7, #15]
 800c25e:	2b00      	cmp	r3, #0
 800c260:	d004      	beq.n	800c26c <USBD_SetAddress+0x6c>
 800c262:	687b      	ldr	r3, [r7, #4]
 800c264:	2202      	movs	r2, #2
 800c266:	f883 229c 	strb.w	r2, [r3, #668]	; 0x29c
 800c26a:	e009      	b.n	800c280 <USBD_SetAddress+0x80>
 800c26c:	687b      	ldr	r3, [r7, #4]
 800c26e:	2201      	movs	r2, #1
 800c270:	f883 229c 	strb.w	r2, [r3, #668]	; 0x29c
 800c274:	e004      	b.n	800c280 <USBD_SetAddress+0x80>
 800c276:	6839      	ldr	r1, [r7, #0]
 800c278:	6878      	ldr	r0, [r7, #4]
 800c27a:	f000 f985 	bl	800c588 <USBD_CtlError>
 800c27e:	bf00      	nop
 800c280:	bf00      	nop
 800c282:	3710      	adds	r7, #16
 800c284:	46bd      	mov	sp, r7
 800c286:	bd80      	pop	{r7, pc}

0800c288 <USBD_SetConfig>:
 800c288:	b580      	push	{r7, lr}
 800c28a:	b084      	sub	sp, #16
 800c28c:	af00      	add	r7, sp, #0
 800c28e:	6078      	str	r0, [r7, #4]
 800c290:	6039      	str	r1, [r7, #0]
 800c292:	2300      	movs	r3, #0
 800c294:	73fb      	strb	r3, [r7, #15]
 800c296:	683b      	ldr	r3, [r7, #0]
 800c298:	885b      	ldrh	r3, [r3, #2]
 800c29a:	b2da      	uxtb	r2, r3
 800c29c:	4b4c      	ldr	r3, [pc, #304]	; (800c3d0 <USBD_SetConfig+0x148>)
 800c29e:	701a      	strb	r2, [r3, #0]
 800c2a0:	4b4b      	ldr	r3, [pc, #300]	; (800c3d0 <USBD_SetConfig+0x148>)
 800c2a2:	781b      	ldrb	r3, [r3, #0]
 800c2a4:	2b01      	cmp	r3, #1
 800c2a6:	d905      	bls.n	800c2b4 <USBD_SetConfig+0x2c>
 800c2a8:	6839      	ldr	r1, [r7, #0]
 800c2aa:	6878      	ldr	r0, [r7, #4]
 800c2ac:	f000 f96c 	bl	800c588 <USBD_CtlError>
 800c2b0:	2303      	movs	r3, #3
 800c2b2:	e088      	b.n	800c3c6 <USBD_SetConfig+0x13e>
 800c2b4:	687b      	ldr	r3, [r7, #4]
 800c2b6:	f893 329c 	ldrb.w	r3, [r3, #668]	; 0x29c
 800c2ba:	b2db      	uxtb	r3, r3
 800c2bc:	2b02      	cmp	r3, #2
 800c2be:	d002      	beq.n	800c2c6 <USBD_SetConfig+0x3e>
 800c2c0:	2b03      	cmp	r3, #3
 800c2c2:	d025      	beq.n	800c310 <USBD_SetConfig+0x88>
 800c2c4:	e071      	b.n	800c3aa <USBD_SetConfig+0x122>
 800c2c6:	4b42      	ldr	r3, [pc, #264]	; (800c3d0 <USBD_SetConfig+0x148>)
 800c2c8:	781b      	ldrb	r3, [r3, #0]
 800c2ca:	2b00      	cmp	r3, #0
 800c2cc:	d01c      	beq.n	800c308 <USBD_SetConfig+0x80>
 800c2ce:	4b40      	ldr	r3, [pc, #256]	; (800c3d0 <USBD_SetConfig+0x148>)
 800c2d0:	781b      	ldrb	r3, [r3, #0]
 800c2d2:	461a      	mov	r2, r3
 800c2d4:	687b      	ldr	r3, [r7, #4]
 800c2d6:	605a      	str	r2, [r3, #4]
 800c2d8:	4b3d      	ldr	r3, [pc, #244]	; (800c3d0 <USBD_SetConfig+0x148>)
 800c2da:	781b      	ldrb	r3, [r3, #0]
 800c2dc:	4619      	mov	r1, r3
 800c2de:	6878      	ldr	r0, [r7, #4]
 800c2e0:	f7ff f992 	bl	800b608 <USBD_SetClassConfig>
 800c2e4:	4603      	mov	r3, r0
 800c2e6:	73fb      	strb	r3, [r7, #15]
 800c2e8:	7bfb      	ldrb	r3, [r7, #15]
 800c2ea:	2b00      	cmp	r3, #0
 800c2ec:	d004      	beq.n	800c2f8 <USBD_SetConfig+0x70>
 800c2ee:	6839      	ldr	r1, [r7, #0]
 800c2f0:	6878      	ldr	r0, [r7, #4]
 800c2f2:	f000 f949 	bl	800c588 <USBD_CtlError>
 800c2f6:	e065      	b.n	800c3c4 <USBD_SetConfig+0x13c>
 800c2f8:	6878      	ldr	r0, [r7, #4]
 800c2fa:	f000 fa10 	bl	800c71e <USBD_CtlSendStatus>
 800c2fe:	687b      	ldr	r3, [r7, #4]
 800c300:	2203      	movs	r2, #3
 800c302:	f883 229c 	strb.w	r2, [r3, #668]	; 0x29c
 800c306:	e05d      	b.n	800c3c4 <USBD_SetConfig+0x13c>
 800c308:	6878      	ldr	r0, [r7, #4]
 800c30a:	f000 fa08 	bl	800c71e <USBD_CtlSendStatus>
 800c30e:	e059      	b.n	800c3c4 <USBD_SetConfig+0x13c>
 800c310:	4b2f      	ldr	r3, [pc, #188]	; (800c3d0 <USBD_SetConfig+0x148>)
 800c312:	781b      	ldrb	r3, [r3, #0]
 800c314:	2b00      	cmp	r3, #0
 800c316:	d112      	bne.n	800c33e <USBD_SetConfig+0xb6>
 800c318:	687b      	ldr	r3, [r7, #4]
 800c31a:	2202      	movs	r2, #2
 800c31c:	f883 229c 	strb.w	r2, [r3, #668]	; 0x29c
 800c320:	4b2b      	ldr	r3, [pc, #172]	; (800c3d0 <USBD_SetConfig+0x148>)
 800c322:	781b      	ldrb	r3, [r3, #0]
 800c324:	461a      	mov	r2, r3
 800c326:	687b      	ldr	r3, [r7, #4]
 800c328:	605a      	str	r2, [r3, #4]
 800c32a:	4b29      	ldr	r3, [pc, #164]	; (800c3d0 <USBD_SetConfig+0x148>)
 800c32c:	781b      	ldrb	r3, [r3, #0]
 800c32e:	4619      	mov	r1, r3
 800c330:	6878      	ldr	r0, [r7, #4]
 800c332:	f7ff f985 	bl	800b640 <USBD_ClrClassConfig>
 800c336:	6878      	ldr	r0, [r7, #4]
 800c338:	f000 f9f1 	bl	800c71e <USBD_CtlSendStatus>
 800c33c:	e042      	b.n	800c3c4 <USBD_SetConfig+0x13c>
 800c33e:	4b24      	ldr	r3, [pc, #144]	; (800c3d0 <USBD_SetConfig+0x148>)
 800c340:	781b      	ldrb	r3, [r3, #0]
 800c342:	461a      	mov	r2, r3
 800c344:	687b      	ldr	r3, [r7, #4]
 800c346:	685b      	ldr	r3, [r3, #4]
 800c348:	429a      	cmp	r2, r3
 800c34a:	d02a      	beq.n	800c3a2 <USBD_SetConfig+0x11a>
 800c34c:	687b      	ldr	r3, [r7, #4]
 800c34e:	685b      	ldr	r3, [r3, #4]
 800c350:	b2db      	uxtb	r3, r3
 800c352:	4619      	mov	r1, r3
 800c354:	6878      	ldr	r0, [r7, #4]
 800c356:	f7ff f973 	bl	800b640 <USBD_ClrClassConfig>
 800c35a:	4b1d      	ldr	r3, [pc, #116]	; (800c3d0 <USBD_SetConfig+0x148>)
 800c35c:	781b      	ldrb	r3, [r3, #0]
 800c35e:	461a      	mov	r2, r3
 800c360:	687b      	ldr	r3, [r7, #4]
 800c362:	605a      	str	r2, [r3, #4]
 800c364:	4b1a      	ldr	r3, [pc, #104]	; (800c3d0 <USBD_SetConfig+0x148>)
 800c366:	781b      	ldrb	r3, [r3, #0]
 800c368:	4619      	mov	r1, r3
 800c36a:	6878      	ldr	r0, [r7, #4]
 800c36c:	f7ff f94c 	bl	800b608 <USBD_SetClassConfig>
 800c370:	4603      	mov	r3, r0
 800c372:	73fb      	strb	r3, [r7, #15]
 800c374:	7bfb      	ldrb	r3, [r7, #15]
 800c376:	2b00      	cmp	r3, #0
 800c378:	d00f      	beq.n	800c39a <USBD_SetConfig+0x112>
 800c37a:	6839      	ldr	r1, [r7, #0]
 800c37c:	6878      	ldr	r0, [r7, #4]
 800c37e:	f000 f903 	bl	800c588 <USBD_CtlError>
 800c382:	687b      	ldr	r3, [r7, #4]
 800c384:	685b      	ldr	r3, [r3, #4]
 800c386:	b2db      	uxtb	r3, r3
 800c388:	4619      	mov	r1, r3
 800c38a:	6878      	ldr	r0, [r7, #4]
 800c38c:	f7ff f958 	bl	800b640 <USBD_ClrClassConfig>
 800c390:	687b      	ldr	r3, [r7, #4]
 800c392:	2202      	movs	r2, #2
 800c394:	f883 229c 	strb.w	r2, [r3, #668]	; 0x29c
 800c398:	e014      	b.n	800c3c4 <USBD_SetConfig+0x13c>
 800c39a:	6878      	ldr	r0, [r7, #4]
 800c39c:	f000 f9bf 	bl	800c71e <USBD_CtlSendStatus>
 800c3a0:	e010      	b.n	800c3c4 <USBD_SetConfig+0x13c>
 800c3a2:	6878      	ldr	r0, [r7, #4]
 800c3a4:	f000 f9bb 	bl	800c71e <USBD_CtlSendStatus>
 800c3a8:	e00c      	b.n	800c3c4 <USBD_SetConfig+0x13c>
 800c3aa:	6839      	ldr	r1, [r7, #0]
 800c3ac:	6878      	ldr	r0, [r7, #4]
 800c3ae:	f000 f8eb 	bl	800c588 <USBD_CtlError>
 800c3b2:	4b07      	ldr	r3, [pc, #28]	; (800c3d0 <USBD_SetConfig+0x148>)
 800c3b4:	781b      	ldrb	r3, [r3, #0]
 800c3b6:	4619      	mov	r1, r3
 800c3b8:	6878      	ldr	r0, [r7, #4]
 800c3ba:	f7ff f941 	bl	800b640 <USBD_ClrClassConfig>
 800c3be:	2303      	movs	r3, #3
 800c3c0:	73fb      	strb	r3, [r7, #15]
 800c3c2:	bf00      	nop
 800c3c4:	7bfb      	ldrb	r3, [r7, #15]
 800c3c6:	4618      	mov	r0, r3
 800c3c8:	3710      	adds	r7, #16
 800c3ca:	46bd      	mov	sp, r7
 800c3cc:	bd80      	pop	{r7, pc}
 800c3ce:	bf00      	nop
 800c3d0:	2000052c 	.word	0x2000052c

0800c3d4 <USBD_GetConfig>:
 800c3d4:	b580      	push	{r7, lr}
 800c3d6:	b082      	sub	sp, #8
 800c3d8:	af00      	add	r7, sp, #0
 800c3da:	6078      	str	r0, [r7, #4]
 800c3dc:	6039      	str	r1, [r7, #0]
 800c3de:	683b      	ldr	r3, [r7, #0]
 800c3e0:	88db      	ldrh	r3, [r3, #6]
 800c3e2:	2b01      	cmp	r3, #1
 800c3e4:	d004      	beq.n	800c3f0 <USBD_GetConfig+0x1c>
 800c3e6:	6839      	ldr	r1, [r7, #0]
 800c3e8:	6878      	ldr	r0, [r7, #4]
 800c3ea:	f000 f8cd 	bl	800c588 <USBD_CtlError>
 800c3ee:	e023      	b.n	800c438 <USBD_GetConfig+0x64>
 800c3f0:	687b      	ldr	r3, [r7, #4]
 800c3f2:	f893 329c 	ldrb.w	r3, [r3, #668]	; 0x29c
 800c3f6:	b2db      	uxtb	r3, r3
 800c3f8:	2b02      	cmp	r3, #2
 800c3fa:	dc02      	bgt.n	800c402 <USBD_GetConfig+0x2e>
 800c3fc:	2b00      	cmp	r3, #0
 800c3fe:	dc03      	bgt.n	800c408 <USBD_GetConfig+0x34>
 800c400:	e015      	b.n	800c42e <USBD_GetConfig+0x5a>
 800c402:	2b03      	cmp	r3, #3
 800c404:	d00b      	beq.n	800c41e <USBD_GetConfig+0x4a>
 800c406:	e012      	b.n	800c42e <USBD_GetConfig+0x5a>
 800c408:	687b      	ldr	r3, [r7, #4]
 800c40a:	2200      	movs	r2, #0
 800c40c:	609a      	str	r2, [r3, #8]
 800c40e:	687b      	ldr	r3, [r7, #4]
 800c410:	3308      	adds	r3, #8
 800c412:	2201      	movs	r2, #1
 800c414:	4619      	mov	r1, r3
 800c416:	6878      	ldr	r0, [r7, #4]
 800c418:	f000 f927 	bl	800c66a <USBD_CtlSendData>
 800c41c:	e00c      	b.n	800c438 <USBD_GetConfig+0x64>
 800c41e:	687b      	ldr	r3, [r7, #4]
 800c420:	3304      	adds	r3, #4
 800c422:	2201      	movs	r2, #1
 800c424:	4619      	mov	r1, r3
 800c426:	6878      	ldr	r0, [r7, #4]
 800c428:	f000 f91f 	bl	800c66a <USBD_CtlSendData>
 800c42c:	e004      	b.n	800c438 <USBD_GetConfig+0x64>
 800c42e:	6839      	ldr	r1, [r7, #0]
 800c430:	6878      	ldr	r0, [r7, #4]
 800c432:	f000 f8a9 	bl	800c588 <USBD_CtlError>
 800c436:	bf00      	nop
 800c438:	bf00      	nop
 800c43a:	3708      	adds	r7, #8
 800c43c:	46bd      	mov	sp, r7
 800c43e:	bd80      	pop	{r7, pc}

0800c440 <USBD_GetStatus>:
 800c440:	b580      	push	{r7, lr}
 800c442:	b082      	sub	sp, #8
 800c444:	af00      	add	r7, sp, #0
 800c446:	6078      	str	r0, [r7, #4]
 800c448:	6039      	str	r1, [r7, #0]
 800c44a:	687b      	ldr	r3, [r7, #4]
 800c44c:	f893 329c 	ldrb.w	r3, [r3, #668]	; 0x29c
 800c450:	b2db      	uxtb	r3, r3
 800c452:	3b01      	subs	r3, #1
 800c454:	2b02      	cmp	r3, #2
 800c456:	d81e      	bhi.n	800c496 <USBD_GetStatus+0x56>
 800c458:	683b      	ldr	r3, [r7, #0]
 800c45a:	88db      	ldrh	r3, [r3, #6]
 800c45c:	2b02      	cmp	r3, #2
 800c45e:	d004      	beq.n	800c46a <USBD_GetStatus+0x2a>
 800c460:	6839      	ldr	r1, [r7, #0]
 800c462:	6878      	ldr	r0, [r7, #4]
 800c464:	f000 f890 	bl	800c588 <USBD_CtlError>
 800c468:	e01a      	b.n	800c4a0 <USBD_GetStatus+0x60>
 800c46a:	687b      	ldr	r3, [r7, #4]
 800c46c:	2201      	movs	r2, #1
 800c46e:	60da      	str	r2, [r3, #12]
 800c470:	687b      	ldr	r3, [r7, #4]
 800c472:	f8d3 32a4 	ldr.w	r3, [r3, #676]	; 0x2a4
 800c476:	2b00      	cmp	r3, #0
 800c478:	d005      	beq.n	800c486 <USBD_GetStatus+0x46>
 800c47a:	687b      	ldr	r3, [r7, #4]
 800c47c:	68db      	ldr	r3, [r3, #12]
 800c47e:	f043 0202 	orr.w	r2, r3, #2
 800c482:	687b      	ldr	r3, [r7, #4]
 800c484:	60da      	str	r2, [r3, #12]
 800c486:	687b      	ldr	r3, [r7, #4]
 800c488:	330c      	adds	r3, #12
 800c48a:	2202      	movs	r2, #2
 800c48c:	4619      	mov	r1, r3
 800c48e:	6878      	ldr	r0, [r7, #4]
 800c490:	f000 f8eb 	bl	800c66a <USBD_CtlSendData>
 800c494:	e004      	b.n	800c4a0 <USBD_GetStatus+0x60>
 800c496:	6839      	ldr	r1, [r7, #0]
 800c498:	6878      	ldr	r0, [r7, #4]
 800c49a:	f000 f875 	bl	800c588 <USBD_CtlError>
 800c49e:	bf00      	nop
 800c4a0:	bf00      	nop
 800c4a2:	3708      	adds	r7, #8
 800c4a4:	46bd      	mov	sp, r7
 800c4a6:	bd80      	pop	{r7, pc}

0800c4a8 <USBD_SetFeature>:
 800c4a8:	b580      	push	{r7, lr}
 800c4aa:	b082      	sub	sp, #8
 800c4ac:	af00      	add	r7, sp, #0
 800c4ae:	6078      	str	r0, [r7, #4]
 800c4b0:	6039      	str	r1, [r7, #0]
 800c4b2:	683b      	ldr	r3, [r7, #0]
 800c4b4:	885b      	ldrh	r3, [r3, #2]
 800c4b6:	2b01      	cmp	r3, #1
 800c4b8:	d106      	bne.n	800c4c8 <USBD_SetFeature+0x20>
 800c4ba:	687b      	ldr	r3, [r7, #4]
 800c4bc:	2201      	movs	r2, #1
 800c4be:	f8c3 22a4 	str.w	r2, [r3, #676]	; 0x2a4
 800c4c2:	6878      	ldr	r0, [r7, #4]
 800c4c4:	f000 f92b 	bl	800c71e <USBD_CtlSendStatus>
 800c4c8:	bf00      	nop
 800c4ca:	3708      	adds	r7, #8
 800c4cc:	46bd      	mov	sp, r7
 800c4ce:	bd80      	pop	{r7, pc}

0800c4d0 <USBD_ClrFeature>:
 800c4d0:	b580      	push	{r7, lr}
 800c4d2:	b082      	sub	sp, #8
 800c4d4:	af00      	add	r7, sp, #0
 800c4d6:	6078      	str	r0, [r7, #4]
 800c4d8:	6039      	str	r1, [r7, #0]
 800c4da:	687b      	ldr	r3, [r7, #4]
 800c4dc:	f893 329c 	ldrb.w	r3, [r3, #668]	; 0x29c
 800c4e0:	b2db      	uxtb	r3, r3
 800c4e2:	3b01      	subs	r3, #1
 800c4e4:	2b02      	cmp	r3, #2
 800c4e6:	d80b      	bhi.n	800c500 <USBD_ClrFeature+0x30>
 800c4e8:	683b      	ldr	r3, [r7, #0]
 800c4ea:	885b      	ldrh	r3, [r3, #2]
 800c4ec:	2b01      	cmp	r3, #1
 800c4ee:	d10c      	bne.n	800c50a <USBD_ClrFeature+0x3a>
 800c4f0:	687b      	ldr	r3, [r7, #4]
 800c4f2:	2200      	movs	r2, #0
 800c4f4:	f8c3 22a4 	str.w	r2, [r3, #676]	; 0x2a4
 800c4f8:	6878      	ldr	r0, [r7, #4]
 800c4fa:	f000 f910 	bl	800c71e <USBD_CtlSendStatus>
 800c4fe:	e004      	b.n	800c50a <USBD_ClrFeature+0x3a>
 800c500:	6839      	ldr	r1, [r7, #0]
 800c502:	6878      	ldr	r0, [r7, #4]
 800c504:	f000 f840 	bl	800c588 <USBD_CtlError>
 800c508:	e000      	b.n	800c50c <USBD_ClrFeature+0x3c>
 800c50a:	bf00      	nop
 800c50c:	bf00      	nop
 800c50e:	3708      	adds	r7, #8
 800c510:	46bd      	mov	sp, r7
 800c512:	bd80      	pop	{r7, pc}

0800c514 <USBD_ParseSetupRequest>:
 800c514:	b580      	push	{r7, lr}
 800c516:	b084      	sub	sp, #16
 800c518:	af00      	add	r7, sp, #0
 800c51a:	6078      	str	r0, [r7, #4]
 800c51c:	6039      	str	r1, [r7, #0]
 800c51e:	683b      	ldr	r3, [r7, #0]
 800c520:	60fb      	str	r3, [r7, #12]
 800c522:	68fb      	ldr	r3, [r7, #12]
 800c524:	781a      	ldrb	r2, [r3, #0]
 800c526:	687b      	ldr	r3, [r7, #4]
 800c528:	701a      	strb	r2, [r3, #0]
 800c52a:	68fb      	ldr	r3, [r7, #12]
 800c52c:	3301      	adds	r3, #1
 800c52e:	60fb      	str	r3, [r7, #12]
 800c530:	68fb      	ldr	r3, [r7, #12]
 800c532:	781a      	ldrb	r2, [r3, #0]
 800c534:	687b      	ldr	r3, [r7, #4]
 800c536:	705a      	strb	r2, [r3, #1]
 800c538:	68fb      	ldr	r3, [r7, #12]
 800c53a:	3301      	adds	r3, #1
 800c53c:	60fb      	str	r3, [r7, #12]
 800c53e:	68f8      	ldr	r0, [r7, #12]
 800c540:	f7ff fa92 	bl	800ba68 <SWAPBYTE>
 800c544:	4603      	mov	r3, r0
 800c546:	461a      	mov	r2, r3
 800c548:	687b      	ldr	r3, [r7, #4]
 800c54a:	805a      	strh	r2, [r3, #2]
 800c54c:	68fb      	ldr	r3, [r7, #12]
 800c54e:	3301      	adds	r3, #1
 800c550:	60fb      	str	r3, [r7, #12]
 800c552:	68fb      	ldr	r3, [r7, #12]
 800c554:	3301      	adds	r3, #1
 800c556:	60fb      	str	r3, [r7, #12]
 800c558:	68f8      	ldr	r0, [r7, #12]
 800c55a:	f7ff fa85 	bl	800ba68 <SWAPBYTE>
 800c55e:	4603      	mov	r3, r0
 800c560:	461a      	mov	r2, r3
 800c562:	687b      	ldr	r3, [r7, #4]
 800c564:	809a      	strh	r2, [r3, #4]
 800c566:	68fb      	ldr	r3, [r7, #12]
 800c568:	3301      	adds	r3, #1
 800c56a:	60fb      	str	r3, [r7, #12]
 800c56c:	68fb      	ldr	r3, [r7, #12]
 800c56e:	3301      	adds	r3, #1
 800c570:	60fb      	str	r3, [r7, #12]
 800c572:	68f8      	ldr	r0, [r7, #12]
 800c574:	f7ff fa78 	bl	800ba68 <SWAPBYTE>
 800c578:	4603      	mov	r3, r0
 800c57a:	461a      	mov	r2, r3
 800c57c:	687b      	ldr	r3, [r7, #4]
 800c57e:	80da      	strh	r2, [r3, #6]
 800c580:	bf00      	nop
 800c582:	3710      	adds	r7, #16
 800c584:	46bd      	mov	sp, r7
 800c586:	bd80      	pop	{r7, pc}

0800c588 <USBD_CtlError>:
 800c588:	b580      	push	{r7, lr}
 800c58a:	b082      	sub	sp, #8
 800c58c:	af00      	add	r7, sp, #0
 800c58e:	6078      	str	r0, [r7, #4]
 800c590:	6039      	str	r1, [r7, #0]
 800c592:	2180      	movs	r1, #128	; 0x80
 800c594:	6878      	ldr	r0, [r7, #4]
 800c596:	f000 fc6f 	bl	800ce78 <USBD_LL_StallEP>
 800c59a:	2100      	movs	r1, #0
 800c59c:	6878      	ldr	r0, [r7, #4]
 800c59e:	f000 fc6b 	bl	800ce78 <USBD_LL_StallEP>
 800c5a2:	bf00      	nop
 800c5a4:	3708      	adds	r7, #8
 800c5a6:	46bd      	mov	sp, r7
 800c5a8:	bd80      	pop	{r7, pc}

0800c5aa <USBD_GetString>:
 800c5aa:	b580      	push	{r7, lr}
 800c5ac:	b086      	sub	sp, #24
 800c5ae:	af00      	add	r7, sp, #0
 800c5b0:	60f8      	str	r0, [r7, #12]
 800c5b2:	60b9      	str	r1, [r7, #8]
 800c5b4:	607a      	str	r2, [r7, #4]
 800c5b6:	2300      	movs	r3, #0
 800c5b8:	75fb      	strb	r3, [r7, #23]
 800c5ba:	68fb      	ldr	r3, [r7, #12]
 800c5bc:	2b00      	cmp	r3, #0
 800c5be:	d036      	beq.n	800c62e <USBD_GetString+0x84>
 800c5c0:	68fb      	ldr	r3, [r7, #12]
 800c5c2:	613b      	str	r3, [r7, #16]
 800c5c4:	6938      	ldr	r0, [r7, #16]
 800c5c6:	f000 f836 	bl	800c636 <USBD_GetLen>
 800c5ca:	4603      	mov	r3, r0
 800c5cc:	3301      	adds	r3, #1
 800c5ce:	b29b      	uxth	r3, r3
 800c5d0:	005b      	lsls	r3, r3, #1
 800c5d2:	b29a      	uxth	r2, r3
 800c5d4:	687b      	ldr	r3, [r7, #4]
 800c5d6:	801a      	strh	r2, [r3, #0]
 800c5d8:	7dfb      	ldrb	r3, [r7, #23]
 800c5da:	68ba      	ldr	r2, [r7, #8]
 800c5dc:	4413      	add	r3, r2
 800c5de:	687a      	ldr	r2, [r7, #4]
 800c5e0:	7812      	ldrb	r2, [r2, #0]
 800c5e2:	701a      	strb	r2, [r3, #0]
 800c5e4:	7dfb      	ldrb	r3, [r7, #23]
 800c5e6:	3301      	adds	r3, #1
 800c5e8:	75fb      	strb	r3, [r7, #23]
 800c5ea:	7dfb      	ldrb	r3, [r7, #23]
 800c5ec:	68ba      	ldr	r2, [r7, #8]
 800c5ee:	4413      	add	r3, r2
 800c5f0:	2203      	movs	r2, #3
 800c5f2:	701a      	strb	r2, [r3, #0]
 800c5f4:	7dfb      	ldrb	r3, [r7, #23]
 800c5f6:	3301      	adds	r3, #1
 800c5f8:	75fb      	strb	r3, [r7, #23]
 800c5fa:	e013      	b.n	800c624 <USBD_GetString+0x7a>
 800c5fc:	7dfb      	ldrb	r3, [r7, #23]
 800c5fe:	68ba      	ldr	r2, [r7, #8]
 800c600:	4413      	add	r3, r2
 800c602:	693a      	ldr	r2, [r7, #16]
 800c604:	7812      	ldrb	r2, [r2, #0]
 800c606:	701a      	strb	r2, [r3, #0]
 800c608:	693b      	ldr	r3, [r7, #16]
 800c60a:	3301      	adds	r3, #1
 800c60c:	613b      	str	r3, [r7, #16]
 800c60e:	7dfb      	ldrb	r3, [r7, #23]
 800c610:	3301      	adds	r3, #1
 800c612:	75fb      	strb	r3, [r7, #23]
 800c614:	7dfb      	ldrb	r3, [r7, #23]
 800c616:	68ba      	ldr	r2, [r7, #8]
 800c618:	4413      	add	r3, r2
 800c61a:	2200      	movs	r2, #0
 800c61c:	701a      	strb	r2, [r3, #0]
 800c61e:	7dfb      	ldrb	r3, [r7, #23]
 800c620:	3301      	adds	r3, #1
 800c622:	75fb      	strb	r3, [r7, #23]
 800c624:	693b      	ldr	r3, [r7, #16]
 800c626:	781b      	ldrb	r3, [r3, #0]
 800c628:	2b00      	cmp	r3, #0
 800c62a:	d1e7      	bne.n	800c5fc <USBD_GetString+0x52>
 800c62c:	e000      	b.n	800c630 <USBD_GetString+0x86>
 800c62e:	bf00      	nop
 800c630:	3718      	adds	r7, #24
 800c632:	46bd      	mov	sp, r7
 800c634:	bd80      	pop	{r7, pc}

0800c636 <USBD_GetLen>:
 800c636:	b480      	push	{r7}
 800c638:	b085      	sub	sp, #20
 800c63a:	af00      	add	r7, sp, #0
 800c63c:	6078      	str	r0, [r7, #4]
 800c63e:	2300      	movs	r3, #0
 800c640:	73fb      	strb	r3, [r7, #15]
 800c642:	687b      	ldr	r3, [r7, #4]
 800c644:	60bb      	str	r3, [r7, #8]
 800c646:	e005      	b.n	800c654 <USBD_GetLen+0x1e>
 800c648:	7bfb      	ldrb	r3, [r7, #15]
 800c64a:	3301      	adds	r3, #1
 800c64c:	73fb      	strb	r3, [r7, #15]
 800c64e:	68bb      	ldr	r3, [r7, #8]
 800c650:	3301      	adds	r3, #1
 800c652:	60bb      	str	r3, [r7, #8]
 800c654:	68bb      	ldr	r3, [r7, #8]
 800c656:	781b      	ldrb	r3, [r3, #0]
 800c658:	2b00      	cmp	r3, #0
 800c65a:	d1f5      	bne.n	800c648 <USBD_GetLen+0x12>
 800c65c:	7bfb      	ldrb	r3, [r7, #15]
 800c65e:	4618      	mov	r0, r3
 800c660:	3714      	adds	r7, #20
 800c662:	46bd      	mov	sp, r7
 800c664:	f85d 7b04 	ldr.w	r7, [sp], #4
 800c668:	4770      	bx	lr

0800c66a <USBD_CtlSendData>:
 800c66a:	b580      	push	{r7, lr}
 800c66c:	b084      	sub	sp, #16
 800c66e:	af00      	add	r7, sp, #0
 800c670:	60f8      	str	r0, [r7, #12]
 800c672:	60b9      	str	r1, [r7, #8]
 800c674:	607a      	str	r2, [r7, #4]
 800c676:	68fb      	ldr	r3, [r7, #12]
 800c678:	2202      	movs	r2, #2
 800c67a:	f8c3 2294 	str.w	r2, [r3, #660]	; 0x294
 800c67e:	68fb      	ldr	r3, [r7, #12]
 800c680:	687a      	ldr	r2, [r7, #4]
 800c682:	619a      	str	r2, [r3, #24]
 800c684:	68fb      	ldr	r3, [r7, #12]
 800c686:	687a      	ldr	r2, [r7, #4]
 800c688:	61da      	str	r2, [r3, #28]
 800c68a:	687b      	ldr	r3, [r7, #4]
 800c68c:	68ba      	ldr	r2, [r7, #8]
 800c68e:	2100      	movs	r1, #0
 800c690:	68f8      	ldr	r0, [r7, #12]
 800c692:	f000 fc7a 	bl	800cf8a <USBD_LL_Transmit>
 800c696:	2300      	movs	r3, #0
 800c698:	4618      	mov	r0, r3
 800c69a:	3710      	adds	r7, #16
 800c69c:	46bd      	mov	sp, r7
 800c69e:	bd80      	pop	{r7, pc}

0800c6a0 <USBD_CtlContinueSendData>:
 800c6a0:	b580      	push	{r7, lr}
 800c6a2:	b084      	sub	sp, #16
 800c6a4:	af00      	add	r7, sp, #0
 800c6a6:	60f8      	str	r0, [r7, #12]
 800c6a8:	60b9      	str	r1, [r7, #8]
 800c6aa:	607a      	str	r2, [r7, #4]
 800c6ac:	687b      	ldr	r3, [r7, #4]
 800c6ae:	68ba      	ldr	r2, [r7, #8]
 800c6b0:	2100      	movs	r1, #0
 800c6b2:	68f8      	ldr	r0, [r7, #12]
 800c6b4:	f000 fc69 	bl	800cf8a <USBD_LL_Transmit>
 800c6b8:	2300      	movs	r3, #0
 800c6ba:	4618      	mov	r0, r3
 800c6bc:	3710      	adds	r7, #16
 800c6be:	46bd      	mov	sp, r7
 800c6c0:	bd80      	pop	{r7, pc}

0800c6c2 <USBD_CtlPrepareRx>:
 800c6c2:	b580      	push	{r7, lr}
 800c6c4:	b084      	sub	sp, #16
 800c6c6:	af00      	add	r7, sp, #0
 800c6c8:	60f8      	str	r0, [r7, #12]
 800c6ca:	60b9      	str	r1, [r7, #8]
 800c6cc:	607a      	str	r2, [r7, #4]
 800c6ce:	68fb      	ldr	r3, [r7, #12]
 800c6d0:	2203      	movs	r2, #3
 800c6d2:	f8c3 2294 	str.w	r2, [r3, #660]	; 0x294
 800c6d6:	68fb      	ldr	r3, [r7, #12]
 800c6d8:	687a      	ldr	r2, [r7, #4]
 800c6da:	f8c3 2158 	str.w	r2, [r3, #344]	; 0x158
 800c6de:	68fb      	ldr	r3, [r7, #12]
 800c6e0:	687a      	ldr	r2, [r7, #4]
 800c6e2:	f8c3 215c 	str.w	r2, [r3, #348]	; 0x15c
 800c6e6:	687b      	ldr	r3, [r7, #4]
 800c6e8:	68ba      	ldr	r2, [r7, #8]
 800c6ea:	2100      	movs	r1, #0
 800c6ec:	68f8      	ldr	r0, [r7, #12]
 800c6ee:	f000 fc6d 	bl	800cfcc <USBD_LL_PrepareReceive>
 800c6f2:	2300      	movs	r3, #0
 800c6f4:	4618      	mov	r0, r3
 800c6f6:	3710      	adds	r7, #16
 800c6f8:	46bd      	mov	sp, r7
 800c6fa:	bd80      	pop	{r7, pc}

0800c6fc <USBD_CtlContinueRx>:
 800c6fc:	b580      	push	{r7, lr}
 800c6fe:	b084      	sub	sp, #16
 800c700:	af00      	add	r7, sp, #0
 800c702:	60f8      	str	r0, [r7, #12]
 800c704:	60b9      	str	r1, [r7, #8]
 800c706:	607a      	str	r2, [r7, #4]
 800c708:	687b      	ldr	r3, [r7, #4]
 800c70a:	68ba      	ldr	r2, [r7, #8]
 800c70c:	2100      	movs	r1, #0
 800c70e:	68f8      	ldr	r0, [r7, #12]
 800c710:	f000 fc5c 	bl	800cfcc <USBD_LL_PrepareReceive>
 800c714:	2300      	movs	r3, #0
 800c716:	4618      	mov	r0, r3
 800c718:	3710      	adds	r7, #16
 800c71a:	46bd      	mov	sp, r7
 800c71c:	bd80      	pop	{r7, pc}

0800c71e <USBD_CtlSendStatus>:
 800c71e:	b580      	push	{r7, lr}
 800c720:	b082      	sub	sp, #8
 800c722:	af00      	add	r7, sp, #0
 800c724:	6078      	str	r0, [r7, #4]
 800c726:	687b      	ldr	r3, [r7, #4]
 800c728:	2204      	movs	r2, #4
 800c72a:	f8c3 2294 	str.w	r2, [r3, #660]	; 0x294
 800c72e:	2300      	movs	r3, #0
 800c730:	2200      	movs	r2, #0
 800c732:	2100      	movs	r1, #0
 800c734:	6878      	ldr	r0, [r7, #4]
 800c736:	f000 fc28 	bl	800cf8a <USBD_LL_Transmit>
 800c73a:	2300      	movs	r3, #0
 800c73c:	4618      	mov	r0, r3
 800c73e:	3708      	adds	r7, #8
 800c740:	46bd      	mov	sp, r7
 800c742:	bd80      	pop	{r7, pc}

0800c744 <USBD_CtlReceiveStatus>:
 800c744:	b580      	push	{r7, lr}
 800c746:	b082      	sub	sp, #8
 800c748:	af00      	add	r7, sp, #0
 800c74a:	6078      	str	r0, [r7, #4]
 800c74c:	687b      	ldr	r3, [r7, #4]
 800c74e:	2205      	movs	r2, #5
 800c750:	f8c3 2294 	str.w	r2, [r3, #660]	; 0x294
 800c754:	2300      	movs	r3, #0
 800c756:	2200      	movs	r2, #0
 800c758:	2100      	movs	r1, #0
 800c75a:	6878      	ldr	r0, [r7, #4]
 800c75c:	f000 fc36 	bl	800cfcc <USBD_LL_PrepareReceive>
 800c760:	2300      	movs	r3, #0
 800c762:	4618      	mov	r0, r3
 800c764:	3708      	adds	r7, #8
 800c766:	46bd      	mov	sp, r7
 800c768:	bd80      	pop	{r7, pc}
	...

0800c76c <MX_USB_Device_Init>:
 800c76c:	b580      	push	{r7, lr}
 800c76e:	af00      	add	r7, sp, #0
 800c770:	2200      	movs	r2, #0
 800c772:	4912      	ldr	r1, [pc, #72]	; (800c7bc <MX_USB_Device_Init+0x50>)
 800c774:	4812      	ldr	r0, [pc, #72]	; (800c7c0 <MX_USB_Device_Init+0x54>)
 800c776:	f7fe fed9 	bl	800b52c <USBD_Init>
 800c77a:	4603      	mov	r3, r0
 800c77c:	2b00      	cmp	r3, #0
 800c77e:	d001      	beq.n	800c784 <MX_USB_Device_Init+0x18>
 800c780:	f7f5 fb8e 	bl	8001ea0 <Error_Handler>
 800c784:	490f      	ldr	r1, [pc, #60]	; (800c7c4 <MX_USB_Device_Init+0x58>)
 800c786:	480e      	ldr	r0, [pc, #56]	; (800c7c0 <MX_USB_Device_Init+0x54>)
 800c788:	f7fe ff00 	bl	800b58c <USBD_RegisterClass>
 800c78c:	4603      	mov	r3, r0
 800c78e:	2b00      	cmp	r3, #0
 800c790:	d001      	beq.n	800c796 <MX_USB_Device_Init+0x2a>
 800c792:	f7f5 fb85 	bl	8001ea0 <Error_Handler>
 800c796:	490c      	ldr	r1, [pc, #48]	; (800c7c8 <MX_USB_Device_Init+0x5c>)
 800c798:	4809      	ldr	r0, [pc, #36]	; (800c7c0 <MX_USB_Device_Init+0x54>)
 800c79a:	f7fe fe51 	bl	800b440 <USBD_CDC_RegisterInterface>
 800c79e:	4603      	mov	r3, r0
 800c7a0:	2b00      	cmp	r3, #0
 800c7a2:	d001      	beq.n	800c7a8 <MX_USB_Device_Init+0x3c>
 800c7a4:	f7f5 fb7c 	bl	8001ea0 <Error_Handler>
 800c7a8:	4805      	ldr	r0, [pc, #20]	; (800c7c0 <MX_USB_Device_Init+0x54>)
 800c7aa:	f7fe ff16 	bl	800b5da <USBD_Start>
 800c7ae:	4603      	mov	r3, r0
 800c7b0:	2b00      	cmp	r3, #0
 800c7b2:	d001      	beq.n	800c7b8 <MX_USB_Device_Init+0x4c>
 800c7b4:	f7f5 fb74 	bl	8001ea0 <Error_Handler>
 800c7b8:	bf00      	nop
 800c7ba:	bd80      	pop	{r7, pc}
 800c7bc:	20000158 	.word	0x20000158
 800c7c0:	20000530 	.word	0x20000530
 800c7c4:	20000040 	.word	0x20000040
 800c7c8:	20000144 	.word	0x20000144

0800c7cc <CDC_Init_FS>:
 800c7cc:	b580      	push	{r7, lr}
 800c7ce:	af00      	add	r7, sp, #0
 800c7d0:	2200      	movs	r2, #0
 800c7d2:	4905      	ldr	r1, [pc, #20]	; (800c7e8 <CDC_Init_FS+0x1c>)
 800c7d4:	4805      	ldr	r0, [pc, #20]	; (800c7ec <CDC_Init_FS+0x20>)
 800c7d6:	f7fe fe48 	bl	800b46a <USBD_CDC_SetTxBuffer>
 800c7da:	4905      	ldr	r1, [pc, #20]	; (800c7f0 <CDC_Init_FS+0x24>)
 800c7dc:	4803      	ldr	r0, [pc, #12]	; (800c7ec <CDC_Init_FS+0x20>)
 800c7de:	f7fe fe62 	bl	800b4a6 <USBD_CDC_SetRxBuffer>
 800c7e2:	2300      	movs	r3, #0
 800c7e4:	4618      	mov	r0, r3
 800c7e6:	bd80      	pop	{r7, pc}
 800c7e8:	20000be8 	.word	0x20000be8
 800c7ec:	20000530 	.word	0x20000530
 800c7f0:	20000800 	.word	0x20000800

0800c7f4 <CDC_DeInit_FS>:
 800c7f4:	b480      	push	{r7}
 800c7f6:	af00      	add	r7, sp, #0
 800c7f8:	2300      	movs	r3, #0
 800c7fa:	4618      	mov	r0, r3
 800c7fc:	46bd      	mov	sp, r7
 800c7fe:	f85d 7b04 	ldr.w	r7, [sp], #4
 800c802:	4770      	bx	lr

0800c804 <CDC_Control_FS>:
 800c804:	b480      	push	{r7}
 800c806:	b083      	sub	sp, #12
 800c808:	af00      	add	r7, sp, #0
 800c80a:	4603      	mov	r3, r0
 800c80c:	6039      	str	r1, [r7, #0]
 800c80e:	71fb      	strb	r3, [r7, #7]
 800c810:	4613      	mov	r3, r2
 800c812:	80bb      	strh	r3, [r7, #4]
 800c814:	79fb      	ldrb	r3, [r7, #7]
 800c816:	2b23      	cmp	r3, #35	; 0x23
 800c818:	d84a      	bhi.n	800c8b0 <CDC_Control_FS+0xac>
 800c81a:	a201      	add	r2, pc, #4	; (adr r2, 800c820 <CDC_Control_FS+0x1c>)
 800c81c:	f852 f023 	ldr.w	pc, [r2, r3, lsl #2]
 800c820:	0800c8b1 	.word	0x0800c8b1
 800c824:	0800c8b1 	.word	0x0800c8b1
 800c828:	0800c8b1 	.word	0x0800c8b1
 800c82c:	0800c8b1 	.word	0x0800c8b1
 800c830:	0800c8b1 	.word	0x0800c8b1
 800c834:	0800c8b1 	.word	0x0800c8b1
 800c838:	0800c8b1 	.word	0x0800c8b1
 800c83c:	0800c8b1 	.word	0x0800c8b1
 800c840:	0800c8b1 	.word	0x0800c8b1
 800c844:	0800c8b1 	.word	0x0800c8b1
 800c848:	0800c8b1 	.word	0x0800c8b1
 800c84c:	0800c8b1 	.word	0x0800c8b1
 800c850:	0800c8b1 	.word	0x0800c8b1
 800c854:	0800c8b1 	.word	0x0800c8b1
 800c858:	0800c8b1 	.word	0x0800c8b1
 800c85c:	0800c8b1 	.word	0x0800c8b1
 800c860:	0800c8b1 	.word	0x0800c8b1
 800c864:	0800c8b1 	.word	0x0800c8b1
 800c868:	0800c8b1 	.word	0x0800c8b1
 800c86c:	0800c8b1 	.word	0x0800c8b1
 800c870:	0800c8b1 	.word	0x0800c8b1
 800c874:	0800c8b1 	.word	0x0800c8b1
 800c878:	0800c8b1 	.word	0x0800c8b1
 800c87c:	0800c8b1 	.word	0x0800c8b1
 800c880:	0800c8b1 	.word	0x0800c8b1
 800c884:	0800c8b1 	.word	0x0800c8b1
 800c888:	0800c8b1 	.word	0x0800c8b1
 800c88c:	0800c8b1 	.word	0x0800c8b1
 800c890:	0800c8b1 	.word	0x0800c8b1
 800c894:	0800c8b1 	.word	0x0800c8b1
 800c898:	0800c8b1 	.word	0x0800c8b1
 800c89c:	0800c8b1 	.word	0x0800c8b1
 800c8a0:	0800c8b1 	.word	0x0800c8b1
 800c8a4:	0800c8b1 	.word	0x0800c8b1
 800c8a8:	0800c8b1 	.word	0x0800c8b1
 800c8ac:	0800c8b1 	.word	0x0800c8b1
 800c8b0:	bf00      	nop
 800c8b2:	2300      	movs	r3, #0
 800c8b4:	4618      	mov	r0, r3
 800c8b6:	370c      	adds	r7, #12
 800c8b8:	46bd      	mov	sp, r7
 800c8ba:	f85d 7b04 	ldr.w	r7, [sp], #4
 800c8be:	4770      	bx	lr

0800c8c0 <CDC_Receive_FS>:
 800c8c0:	b580      	push	{r7, lr}
 800c8c2:	b082      	sub	sp, #8
 800c8c4:	af00      	add	r7, sp, #0
 800c8c6:	6078      	str	r0, [r7, #4]
 800c8c8:	6039      	str	r1, [r7, #0]
 800c8ca:	6879      	ldr	r1, [r7, #4]
 800c8cc:	4805      	ldr	r0, [pc, #20]	; (800c8e4 <CDC_Receive_FS+0x24>)
 800c8ce:	f7fe fdea 	bl	800b4a6 <USBD_CDC_SetRxBuffer>
 800c8d2:	4804      	ldr	r0, [pc, #16]	; (800c8e4 <CDC_Receive_FS+0x24>)
 800c8d4:	f7fe fe00 	bl	800b4d8 <USBD_CDC_ReceivePacket>
 800c8d8:	2300      	movs	r3, #0
 800c8da:	4618      	mov	r0, r3
 800c8dc:	3708      	adds	r7, #8
 800c8de:	46bd      	mov	sp, r7
 800c8e0:	bd80      	pop	{r7, pc}
 800c8e2:	bf00      	nop
 800c8e4:	20000530 	.word	0x20000530

0800c8e8 <CDC_TransmitCplt_FS>:
 800c8e8:	b480      	push	{r7}
 800c8ea:	b087      	sub	sp, #28
 800c8ec:	af00      	add	r7, sp, #0
 800c8ee:	60f8      	str	r0, [r7, #12]
 800c8f0:	60b9      	str	r1, [r7, #8]
 800c8f2:	4613      	mov	r3, r2
 800c8f4:	71fb      	strb	r3, [r7, #7]
 800c8f6:	2300      	movs	r3, #0
 800c8f8:	75fb      	strb	r3, [r7, #23]
 800c8fa:	f997 3017 	ldrsb.w	r3, [r7, #23]
 800c8fe:	4618      	mov	r0, r3
 800c900:	371c      	adds	r7, #28
 800c902:	46bd      	mov	sp, r7
 800c904:	f85d 7b04 	ldr.w	r7, [sp], #4
 800c908:	4770      	bx	lr
	...

0800c90c <USBD_CDC_DeviceDescriptor>:
 800c90c:	b480      	push	{r7}
 800c90e:	b083      	sub	sp, #12
 800c910:	af00      	add	r7, sp, #0
 800c912:	4603      	mov	r3, r0
 800c914:	6039      	str	r1, [r7, #0]
 800c916:	71fb      	strb	r3, [r7, #7]
 800c918:	683b      	ldr	r3, [r7, #0]
 800c91a:	2212      	movs	r2, #18
 800c91c:	801a      	strh	r2, [r3, #0]
 800c91e:	4b03      	ldr	r3, [pc, #12]	; (800c92c <USBD_CDC_DeviceDescriptor+0x20>)
 800c920:	4618      	mov	r0, r3
 800c922:	370c      	adds	r7, #12
 800c924:	46bd      	mov	sp, r7
 800c926:	f85d 7b04 	ldr.w	r7, [sp], #4
 800c92a:	4770      	bx	lr
 800c92c:	20000178 	.word	0x20000178

0800c930 <USBD_CDC_LangIDStrDescriptor>:
 800c930:	b480      	push	{r7}
 800c932:	b083      	sub	sp, #12
 800c934:	af00      	add	r7, sp, #0
 800c936:	4603      	mov	r3, r0
 800c938:	6039      	str	r1, [r7, #0]
 800c93a:	71fb      	strb	r3, [r7, #7]
 800c93c:	683b      	ldr	r3, [r7, #0]
 800c93e:	2204      	movs	r2, #4
 800c940:	801a      	strh	r2, [r3, #0]
 800c942:	4b03      	ldr	r3, [pc, #12]	; (800c950 <USBD_CDC_LangIDStrDescriptor+0x20>)
 800c944:	4618      	mov	r0, r3
 800c946:	370c      	adds	r7, #12
 800c948:	46bd      	mov	sp, r7
 800c94a:	f85d 7b04 	ldr.w	r7, [sp], #4
 800c94e:	4770      	bx	lr
 800c950:	2000018c 	.word	0x2000018c

0800c954 <USBD_CDC_ProductStrDescriptor>:
 800c954:	b580      	push	{r7, lr}
 800c956:	b082      	sub	sp, #8
 800c958:	af00      	add	r7, sp, #0
 800c95a:	4603      	mov	r3, r0
 800c95c:	6039      	str	r1, [r7, #0]
 800c95e:	71fb      	strb	r3, [r7, #7]
 800c960:	79fb      	ldrb	r3, [r7, #7]
 800c962:	2b00      	cmp	r3, #0
 800c964:	d105      	bne.n	800c972 <USBD_CDC_ProductStrDescriptor+0x1e>
 800c966:	683a      	ldr	r2, [r7, #0]
 800c968:	4907      	ldr	r1, [pc, #28]	; (800c988 <USBD_CDC_ProductStrDescriptor+0x34>)
 800c96a:	4808      	ldr	r0, [pc, #32]	; (800c98c <USBD_CDC_ProductStrDescriptor+0x38>)
 800c96c:	f7ff fe1d 	bl	800c5aa <USBD_GetString>
 800c970:	e004      	b.n	800c97c <USBD_CDC_ProductStrDescriptor+0x28>
 800c972:	683a      	ldr	r2, [r7, #0]
 800c974:	4904      	ldr	r1, [pc, #16]	; (800c988 <USBD_CDC_ProductStrDescriptor+0x34>)
 800c976:	4805      	ldr	r0, [pc, #20]	; (800c98c <USBD_CDC_ProductStrDescriptor+0x38>)
 800c978:	f7ff fe17 	bl	800c5aa <USBD_GetString>
 800c97c:	4b02      	ldr	r3, [pc, #8]	; (800c988 <USBD_CDC_ProductStrDescriptor+0x34>)
 800c97e:	4618      	mov	r0, r3
 800c980:	3708      	adds	r7, #8
 800c982:	46bd      	mov	sp, r7
 800c984:	bd80      	pop	{r7, pc}
 800c986:	bf00      	nop
 800c988:	20000fd0 	.word	0x20000fd0
 800c98c:	0800d1c0 	.word	0x0800d1c0

0800c990 <USBD_CDC_ManufacturerStrDescriptor>:
 800c990:	b580      	push	{r7, lr}
 800c992:	b082      	sub	sp, #8
 800c994:	af00      	add	r7, sp, #0
 800c996:	4603      	mov	r3, r0
 800c998:	6039      	str	r1, [r7, #0]
 800c99a:	71fb      	strb	r3, [r7, #7]
 800c99c:	683a      	ldr	r2, [r7, #0]
 800c99e:	4904      	ldr	r1, [pc, #16]	; (800c9b0 <USBD_CDC_ManufacturerStrDescriptor+0x20>)
 800c9a0:	4804      	ldr	r0, [pc, #16]	; (800c9b4 <USBD_CDC_ManufacturerStrDescriptor+0x24>)
 800c9a2:	f7ff fe02 	bl	800c5aa <USBD_GetString>
 800c9a6:	4b02      	ldr	r3, [pc, #8]	; (800c9b0 <USBD_CDC_ManufacturerStrDescriptor+0x20>)
 800c9a8:	4618      	mov	r0, r3
 800c9aa:	3708      	adds	r7, #8
 800c9ac:	46bd      	mov	sp, r7
 800c9ae:	bd80      	pop	{r7, pc}
 800c9b0:	20000fd0 	.word	0x20000fd0
 800c9b4:	0800d1d8 	.word	0x0800d1d8

0800c9b8 <USBD_CDC_SerialStrDescriptor>:
 800c9b8:	b580      	push	{r7, lr}
 800c9ba:	b082      	sub	sp, #8
 800c9bc:	af00      	add	r7, sp, #0
 800c9be:	4603      	mov	r3, r0
 800c9c0:	6039      	str	r1, [r7, #0]
 800c9c2:	71fb      	strb	r3, [r7, #7]
 800c9c4:	683b      	ldr	r3, [r7, #0]
 800c9c6:	221a      	movs	r2, #26
 800c9c8:	801a      	strh	r2, [r3, #0]
 800c9ca:	f000 f843 	bl	800ca54 <Get_SerialNum>
 800c9ce:	4b02      	ldr	r3, [pc, #8]	; (800c9d8 <USBD_CDC_SerialStrDescriptor+0x20>)
 800c9d0:	4618      	mov	r0, r3
 800c9d2:	3708      	adds	r7, #8
 800c9d4:	46bd      	mov	sp, r7
 800c9d6:	bd80      	pop	{r7, pc}
 800c9d8:	20000190 	.word	0x20000190

0800c9dc <USBD_CDC_ConfigStrDescriptor>:
 800c9dc:	b580      	push	{r7, lr}
 800c9de:	b082      	sub	sp, #8
 800c9e0:	af00      	add	r7, sp, #0
 800c9e2:	4603      	mov	r3, r0
 800c9e4:	6039      	str	r1, [r7, #0]
 800c9e6:	71fb      	strb	r3, [r7, #7]
 800c9e8:	79fb      	ldrb	r3, [r7, #7]
 800c9ea:	2b00      	cmp	r3, #0
 800c9ec:	d105      	bne.n	800c9fa <USBD_CDC_ConfigStrDescriptor+0x1e>
 800c9ee:	683a      	ldr	r2, [r7, #0]
 800c9f0:	4907      	ldr	r1, [pc, #28]	; (800ca10 <USBD_CDC_ConfigStrDescriptor+0x34>)
 800c9f2:	4808      	ldr	r0, [pc, #32]	; (800ca14 <USBD_CDC_ConfigStrDescriptor+0x38>)
 800c9f4:	f7ff fdd9 	bl	800c5aa <USBD_GetString>
 800c9f8:	e004      	b.n	800ca04 <USBD_CDC_ConfigStrDescriptor+0x28>
 800c9fa:	683a      	ldr	r2, [r7, #0]
 800c9fc:	4904      	ldr	r1, [pc, #16]	; (800ca10 <USBD_CDC_ConfigStrDescriptor+0x34>)
 800c9fe:	4805      	ldr	r0, [pc, #20]	; (800ca14 <USBD_CDC_ConfigStrDescriptor+0x38>)
 800ca00:	f7ff fdd3 	bl	800c5aa <USBD_GetString>
 800ca04:	4b02      	ldr	r3, [pc, #8]	; (800ca10 <USBD_CDC_ConfigStrDescriptor+0x34>)
 800ca06:	4618      	mov	r0, r3
 800ca08:	3708      	adds	r7, #8
 800ca0a:	46bd      	mov	sp, r7
 800ca0c:	bd80      	pop	{r7, pc}
 800ca0e:	bf00      	nop
 800ca10:	20000fd0 	.word	0x20000fd0
 800ca14:	0800d1ec 	.word	0x0800d1ec

0800ca18 <USBD_CDC_InterfaceStrDescriptor>:
 800ca18:	b580      	push	{r7, lr}
 800ca1a:	b082      	sub	sp, #8
 800ca1c:	af00      	add	r7, sp, #0
 800ca1e:	4603      	mov	r3, r0
 800ca20:	6039      	str	r1, [r7, #0]
 800ca22:	71fb      	strb	r3, [r7, #7]
 800ca24:	79fb      	ldrb	r3, [r7, #7]
 800ca26:	2b00      	cmp	r3, #0
 800ca28:	d105      	bne.n	800ca36 <USBD_CDC_InterfaceStrDescriptor+0x1e>
 800ca2a:	683a      	ldr	r2, [r7, #0]
 800ca2c:	4907      	ldr	r1, [pc, #28]	; (800ca4c <USBD_CDC_InterfaceStrDescriptor+0x34>)
 800ca2e:	4808      	ldr	r0, [pc, #32]	; (800ca50 <USBD_CDC_InterfaceStrDescriptor+0x38>)
 800ca30:	f7ff fdbb 	bl	800c5aa <USBD_GetString>
 800ca34:	e004      	b.n	800ca40 <USBD_CDC_InterfaceStrDescriptor+0x28>
 800ca36:	683a      	ldr	r2, [r7, #0]
 800ca38:	4904      	ldr	r1, [pc, #16]	; (800ca4c <USBD_CDC_InterfaceStrDescriptor+0x34>)
 800ca3a:	4805      	ldr	r0, [pc, #20]	; (800ca50 <USBD_CDC_InterfaceStrDescriptor+0x38>)
 800ca3c:	f7ff fdb5 	bl	800c5aa <USBD_GetString>
 800ca40:	4b02      	ldr	r3, [pc, #8]	; (800ca4c <USBD_CDC_InterfaceStrDescriptor+0x34>)
 800ca42:	4618      	mov	r0, r3
 800ca44:	3708      	adds	r7, #8
 800ca46:	46bd      	mov	sp, r7
 800ca48:	bd80      	pop	{r7, pc}
 800ca4a:	bf00      	nop
 800ca4c:	20000fd0 	.word	0x20000fd0
 800ca50:	0800d1f8 	.word	0x0800d1f8

0800ca54 <Get_SerialNum>:
 800ca54:	b580      	push	{r7, lr}
 800ca56:	b084      	sub	sp, #16
 800ca58:	af00      	add	r7, sp, #0
 800ca5a:	4b0f      	ldr	r3, [pc, #60]	; (800ca98 <Get_SerialNum+0x44>)
 800ca5c:	681b      	ldr	r3, [r3, #0]
 800ca5e:	60fb      	str	r3, [r7, #12]
 800ca60:	4b0e      	ldr	r3, [pc, #56]	; (800ca9c <Get_SerialNum+0x48>)
 800ca62:	681b      	ldr	r3, [r3, #0]
 800ca64:	60bb      	str	r3, [r7, #8]
 800ca66:	4b0e      	ldr	r3, [pc, #56]	; (800caa0 <Get_SerialNum+0x4c>)
 800ca68:	681b      	ldr	r3, [r3, #0]
 800ca6a:	607b      	str	r3, [r7, #4]
 800ca6c:	68fa      	ldr	r2, [r7, #12]
 800ca6e:	687b      	ldr	r3, [r7, #4]
 800ca70:	4413      	add	r3, r2
 800ca72:	60fb      	str	r3, [r7, #12]
 800ca74:	68fb      	ldr	r3, [r7, #12]
 800ca76:	2b00      	cmp	r3, #0
 800ca78:	d009      	beq.n	800ca8e <Get_SerialNum+0x3a>
 800ca7a:	2208      	movs	r2, #8
 800ca7c:	4909      	ldr	r1, [pc, #36]	; (800caa4 <Get_SerialNum+0x50>)
 800ca7e:	68f8      	ldr	r0, [r7, #12]
 800ca80:	f000 f814 	bl	800caac <IntToUnicode>
 800ca84:	2204      	movs	r2, #4
 800ca86:	4908      	ldr	r1, [pc, #32]	; (800caa8 <Get_SerialNum+0x54>)
 800ca88:	68b8      	ldr	r0, [r7, #8]
 800ca8a:	f000 f80f 	bl	800caac <IntToUnicode>
 800ca8e:	bf00      	nop
 800ca90:	3710      	adds	r7, #16
 800ca92:	46bd      	mov	sp, r7
 800ca94:	bd80      	pop	{r7, pc}
 800ca96:	bf00      	nop
 800ca98:	1fff7590 	.word	0x1fff7590
 800ca9c:	1fff7594 	.word	0x1fff7594
 800caa0:	1fff7598 	.word	0x1fff7598
 800caa4:	20000192 	.word	0x20000192
 800caa8:	200001a2 	.word	0x200001a2

0800caac <IntToUnicode>:
 800caac:	b480      	push	{r7}
 800caae:	b087      	sub	sp, #28
 800cab0:	af00      	add	r7, sp, #0
 800cab2:	60f8      	str	r0, [r7, #12]
 800cab4:	60b9      	str	r1, [r7, #8]
 800cab6:	4613      	mov	r3, r2
 800cab8:	71fb      	strb	r3, [r7, #7]
 800caba:	2300      	movs	r3, #0
 800cabc:	75fb      	strb	r3, [r7, #23]
 800cabe:	2300      	movs	r3, #0
 800cac0:	75fb      	strb	r3, [r7, #23]
 800cac2:	e027      	b.n	800cb14 <IntToUnicode+0x68>
 800cac4:	68fb      	ldr	r3, [r7, #12]
 800cac6:	0f1b      	lsrs	r3, r3, #28
 800cac8:	2b09      	cmp	r3, #9
 800caca:	d80b      	bhi.n	800cae4 <IntToUnicode+0x38>
 800cacc:	68fb      	ldr	r3, [r7, #12]
 800cace:	0f1b      	lsrs	r3, r3, #28
 800cad0:	b2da      	uxtb	r2, r3
 800cad2:	7dfb      	ldrb	r3, [r7, #23]
 800cad4:	005b      	lsls	r3, r3, #1
 800cad6:	4619      	mov	r1, r3
 800cad8:	68bb      	ldr	r3, [r7, #8]
 800cada:	440b      	add	r3, r1
 800cadc:	3230      	adds	r2, #48	; 0x30
 800cade:	b2d2      	uxtb	r2, r2
 800cae0:	701a      	strb	r2, [r3, #0]
 800cae2:	e00a      	b.n	800cafa <IntToUnicode+0x4e>
 800cae4:	68fb      	ldr	r3, [r7, #12]
 800cae6:	0f1b      	lsrs	r3, r3, #28
 800cae8:	b2da      	uxtb	r2, r3
 800caea:	7dfb      	ldrb	r3, [r7, #23]
 800caec:	005b      	lsls	r3, r3, #1
 800caee:	4619      	mov	r1, r3
 800caf0:	68bb      	ldr	r3, [r7, #8]
 800caf2:	440b      	add	r3, r1
 800caf4:	3237      	adds	r2, #55	; 0x37
 800caf6:	b2d2      	uxtb	r2, r2
 800caf8:	701a      	strb	r2, [r3, #0]
 800cafa:	68fb      	ldr	r3, [r7, #12]
 800cafc:	011b      	lsls	r3, r3, #4
 800cafe:	60fb      	str	r3, [r7, #12]
 800cb00:	7dfb      	ldrb	r3, [r7, #23]
 800cb02:	005b      	lsls	r3, r3, #1
 800cb04:	3301      	adds	r3, #1
 800cb06:	68ba      	ldr	r2, [r7, #8]
 800cb08:	4413      	add	r3, r2
 800cb0a:	2200      	movs	r2, #0
 800cb0c:	701a      	strb	r2, [r3, #0]
 800cb0e:	7dfb      	ldrb	r3, [r7, #23]
 800cb10:	3301      	adds	r3, #1
 800cb12:	75fb      	strb	r3, [r7, #23]
 800cb14:	7dfa      	ldrb	r2, [r7, #23]
 800cb16:	79fb      	ldrb	r3, [r7, #7]
 800cb18:	429a      	cmp	r2, r3
 800cb1a:	d3d3      	bcc.n	800cac4 <IntToUnicode+0x18>
 800cb1c:	bf00      	nop
 800cb1e:	bf00      	nop
 800cb20:	371c      	adds	r7, #28
 800cb22:	46bd      	mov	sp, r7
 800cb24:	f85d 7b04 	ldr.w	r7, [sp], #4
 800cb28:	4770      	bx	lr
	...

0800cb2c <HAL_PCD_MspInit>:
 800cb2c:	b580      	push	{r7, lr}
 800cb2e:	b094      	sub	sp, #80	; 0x50
 800cb30:	af00      	add	r7, sp, #0
 800cb32:	6078      	str	r0, [r7, #4]
 800cb34:	f107 030c 	add.w	r3, r7, #12
 800cb38:	2244      	movs	r2, #68	; 0x44
 800cb3a:	2100      	movs	r1, #0
 800cb3c:	4618      	mov	r0, r3
 800cb3e:	f000 fb2b 	bl	800d198 <memset>
 800cb42:	687b      	ldr	r3, [r7, #4]
 800cb44:	681b      	ldr	r3, [r3, #0]
 800cb46:	4a15      	ldr	r2, [pc, #84]	; (800cb9c <HAL_PCD_MspInit+0x70>)
 800cb48:	4293      	cmp	r3, r2
 800cb4a:	d123      	bne.n	800cb94 <HAL_PCD_MspInit+0x68>
 800cb4c:	f44f 5300 	mov.w	r3, #8192	; 0x2000
 800cb50:	60fb      	str	r3, [r7, #12]
 800cb52:	f04f 6300 	mov.w	r3, #134217728	; 0x8000000
 800cb56:	643b      	str	r3, [r7, #64]	; 0x40
 800cb58:	f107 030c 	add.w	r3, r7, #12
 800cb5c:	4618      	mov	r0, r3
 800cb5e:	f7f9 fb6d 	bl	800623c <HAL_RCCEx_PeriphCLKConfig>
 800cb62:	4603      	mov	r3, r0
 800cb64:	2b00      	cmp	r3, #0
 800cb66:	d001      	beq.n	800cb6c <HAL_PCD_MspInit+0x40>
 800cb68:	f7f5 f99a 	bl	8001ea0 <Error_Handler>
 800cb6c:	4b0c      	ldr	r3, [pc, #48]	; (800cba0 <HAL_PCD_MspInit+0x74>)
 800cb6e:	6d9b      	ldr	r3, [r3, #88]	; 0x58
 800cb70:	4a0b      	ldr	r2, [pc, #44]	; (800cba0 <HAL_PCD_MspInit+0x74>)
 800cb72:	f443 0300 	orr.w	r3, r3, #8388608	; 0x800000
 800cb76:	6593      	str	r3, [r2, #88]	; 0x58
 800cb78:	4b09      	ldr	r3, [pc, #36]	; (800cba0 <HAL_PCD_MspInit+0x74>)
 800cb7a:	6d9b      	ldr	r3, [r3, #88]	; 0x58
 800cb7c:	f403 0300 	and.w	r3, r3, #8388608	; 0x800000
 800cb80:	60bb      	str	r3, [r7, #8]
 800cb82:	68bb      	ldr	r3, [r7, #8]
 800cb84:	2200      	movs	r2, #0
 800cb86:	2100      	movs	r1, #0
 800cb88:	2014      	movs	r0, #20
 800cb8a:	f7f6 fb36 	bl	80031fa <HAL_NVIC_SetPriority>
 800cb8e:	2014      	movs	r0, #20
 800cb90:	f7f6 fb4d 	bl	800322e <HAL_NVIC_EnableIRQ>
 800cb94:	bf00      	nop
 800cb96:	3750      	adds	r7, #80	; 0x50
 800cb98:	46bd      	mov	sp, r7
 800cb9a:	bd80      	pop	{r7, pc}
 800cb9c:	40005c00 	.word	0x40005c00
 800cba0:	40021000 	.word	0x40021000

0800cba4 <HAL_PCD_SetupStageCallback>:
 800cba4:	b580      	push	{r7, lr}
 800cba6:	b082      	sub	sp, #8
 800cba8:	af00      	add	r7, sp, #0
 800cbaa:	6078      	str	r0, [r7, #4]
 800cbac:	687b      	ldr	r3, [r7, #4]
 800cbae:	f8d3 22d8 	ldr.w	r2, [r3, #728]	; 0x2d8
 800cbb2:	687b      	ldr	r3, [r7, #4]
 800cbb4:	f503 7326 	add.w	r3, r3, #664	; 0x298
 800cbb8:	4619      	mov	r1, r3
 800cbba:	4610      	mov	r0, r2
 800cbbc:	f7fe fd58 	bl	800b670 <USBD_LL_SetupStage>
 800cbc0:	bf00      	nop
 800cbc2:	3708      	adds	r7, #8
 800cbc4:	46bd      	mov	sp, r7
 800cbc6:	bd80      	pop	{r7, pc}

0800cbc8 <HAL_PCD_DataOutStageCallback>:
 800cbc8:	b580      	push	{r7, lr}
 800cbca:	b082      	sub	sp, #8
 800cbcc:	af00      	add	r7, sp, #0
 800cbce:	6078      	str	r0, [r7, #4]
 800cbd0:	460b      	mov	r3, r1
 800cbd2:	70fb      	strb	r3, [r7, #3]
 800cbd4:	687b      	ldr	r3, [r7, #4]
 800cbd6:	f8d3 02d8 	ldr.w	r0, [r3, #728]	; 0x2d8
 800cbda:	78fa      	ldrb	r2, [r7, #3]
 800cbdc:	6879      	ldr	r1, [r7, #4]
 800cbde:	4613      	mov	r3, r2
 800cbe0:	009b      	lsls	r3, r3, #2
 800cbe2:	4413      	add	r3, r2
 800cbe4:	00db      	lsls	r3, r3, #3
 800cbe6:	440b      	add	r3, r1
 800cbe8:	f503 73b2 	add.w	r3, r3, #356	; 0x164
 800cbec:	681a      	ldr	r2, [r3, #0]
 800cbee:	78fb      	ldrb	r3, [r7, #3]
 800cbf0:	4619      	mov	r1, r3
 800cbf2:	f7fe fd92 	bl	800b71a <USBD_LL_DataOutStage>
 800cbf6:	bf00      	nop
 800cbf8:	3708      	adds	r7, #8
 800cbfa:	46bd      	mov	sp, r7
 800cbfc:	bd80      	pop	{r7, pc}

0800cbfe <HAL_PCD_DataInStageCallback>:
 800cbfe:	b580      	push	{r7, lr}
 800cc00:	b082      	sub	sp, #8
 800cc02:	af00      	add	r7, sp, #0
 800cc04:	6078      	str	r0, [r7, #4]
 800cc06:	460b      	mov	r3, r1
 800cc08:	70fb      	strb	r3, [r7, #3]
 800cc0a:	687b      	ldr	r3, [r7, #4]
 800cc0c:	f8d3 02d8 	ldr.w	r0, [r3, #728]	; 0x2d8
 800cc10:	78fa      	ldrb	r2, [r7, #3]
 800cc12:	6879      	ldr	r1, [r7, #4]
 800cc14:	4613      	mov	r3, r2
 800cc16:	009b      	lsls	r3, r3, #2
 800cc18:	4413      	add	r3, r2
 800cc1a:	00db      	lsls	r3, r3, #3
 800cc1c:	440b      	add	r3, r1
 800cc1e:	3324      	adds	r3, #36	; 0x24
 800cc20:	681a      	ldr	r2, [r3, #0]
 800cc22:	78fb      	ldrb	r3, [r7, #3]
 800cc24:	4619      	mov	r1, r3
 800cc26:	f7fe fddb 	bl	800b7e0 <USBD_LL_DataInStage>
 800cc2a:	bf00      	nop
 800cc2c:	3708      	adds	r7, #8
 800cc2e:	46bd      	mov	sp, r7
 800cc30:	bd80      	pop	{r7, pc}

0800cc32 <HAL_PCD_SOFCallback>:
 800cc32:	b580      	push	{r7, lr}
 800cc34:	b082      	sub	sp, #8
 800cc36:	af00      	add	r7, sp, #0
 800cc38:	6078      	str	r0, [r7, #4]
 800cc3a:	687b      	ldr	r3, [r7, #4]
 800cc3c:	f8d3 32d8 	ldr.w	r3, [r3, #728]	; 0x2d8
 800cc40:	4618      	mov	r0, r3
 800cc42:	f7fe feef 	bl	800ba24 <USBD_LL_SOF>
 800cc46:	bf00      	nop
 800cc48:	3708      	adds	r7, #8
 800cc4a:	46bd      	mov	sp, r7
 800cc4c:	bd80      	pop	{r7, pc}

0800cc4e <HAL_PCD_ResetCallback>:
 800cc4e:	b580      	push	{r7, lr}
 800cc50:	b084      	sub	sp, #16
 800cc52:	af00      	add	r7, sp, #0
 800cc54:	6078      	str	r0, [r7, #4]
 800cc56:	2301      	movs	r3, #1
 800cc58:	73fb      	strb	r3, [r7, #15]
 800cc5a:	687b      	ldr	r3, [r7, #4]
 800cc5c:	795b      	ldrb	r3, [r3, #5]
 800cc5e:	2b02      	cmp	r3, #2
 800cc60:	d001      	beq.n	800cc66 <HAL_PCD_ResetCallback+0x18>
 800cc62:	f7f5 f91d 	bl	8001ea0 <Error_Handler>
 800cc66:	687b      	ldr	r3, [r7, #4]
 800cc68:	f8d3 32d8 	ldr.w	r3, [r3, #728]	; 0x2d8
 800cc6c:	7bfa      	ldrb	r2, [r7, #15]
 800cc6e:	4611      	mov	r1, r2
 800cc70:	4618      	mov	r0, r3
 800cc72:	f7fe fe99 	bl	800b9a8 <USBD_LL_SetSpeed>
 800cc76:	687b      	ldr	r3, [r7, #4]
 800cc78:	f8d3 32d8 	ldr.w	r3, [r3, #728]	; 0x2d8
 800cc7c:	4618      	mov	r0, r3
 800cc7e:	f7fe fe45 	bl	800b90c <USBD_LL_Reset>
 800cc82:	bf00      	nop
 800cc84:	3710      	adds	r7, #16
 800cc86:	46bd      	mov	sp, r7
 800cc88:	bd80      	pop	{r7, pc}
	...

0800cc8c <HAL_PCD_SuspendCallback>:
 800cc8c:	b580      	push	{r7, lr}
 800cc8e:	b082      	sub	sp, #8
 800cc90:	af00      	add	r7, sp, #0
 800cc92:	6078      	str	r0, [r7, #4]
 800cc94:	687b      	ldr	r3, [r7, #4]
 800cc96:	f8d3 32d8 	ldr.w	r3, [r3, #728]	; 0x2d8
 800cc9a:	4618      	mov	r0, r3
 800cc9c:	f7fe fe94 	bl	800b9c8 <USBD_LL_Suspend>
 800cca0:	687b      	ldr	r3, [r7, #4]
 800cca2:	7a5b      	ldrb	r3, [r3, #9]
 800cca4:	2b00      	cmp	r3, #0
 800cca6:	d005      	beq.n	800ccb4 <HAL_PCD_SuspendCallback+0x28>
 800cca8:	4b04      	ldr	r3, [pc, #16]	; (800ccbc <HAL_PCD_SuspendCallback+0x30>)
 800ccaa:	691b      	ldr	r3, [r3, #16]
 800ccac:	4a03      	ldr	r2, [pc, #12]	; (800ccbc <HAL_PCD_SuspendCallback+0x30>)
 800ccae:	f043 0306 	orr.w	r3, r3, #6
 800ccb2:	6113      	str	r3, [r2, #16]
 800ccb4:	bf00      	nop
 800ccb6:	3708      	adds	r7, #8
 800ccb8:	46bd      	mov	sp, r7
 800ccba:	bd80      	pop	{r7, pc}
 800ccbc:	e000ed00 	.word	0xe000ed00

0800ccc0 <HAL_PCD_ResumeCallback>:
 800ccc0:	b580      	push	{r7, lr}
 800ccc2:	b082      	sub	sp, #8
 800ccc4:	af00      	add	r7, sp, #0
 800ccc6:	6078      	str	r0, [r7, #4]
 800ccc8:	687b      	ldr	r3, [r7, #4]
 800ccca:	7a5b      	ldrb	r3, [r3, #9]
 800cccc:	2b00      	cmp	r3, #0
 800ccce:	d007      	beq.n	800cce0 <HAL_PCD_ResumeCallback+0x20>
 800ccd0:	4b08      	ldr	r3, [pc, #32]	; (800ccf4 <HAL_PCD_ResumeCallback+0x34>)
 800ccd2:	691b      	ldr	r3, [r3, #16]
 800ccd4:	4a07      	ldr	r2, [pc, #28]	; (800ccf4 <HAL_PCD_ResumeCallback+0x34>)
 800ccd6:	f023 0306 	bic.w	r3, r3, #6
 800ccda:	6113      	str	r3, [r2, #16]
 800ccdc:	f000 f9f8 	bl	800d0d0 <SystemClockConfig_Resume>
 800cce0:	687b      	ldr	r3, [r7, #4]
 800cce2:	f8d3 32d8 	ldr.w	r3, [r3, #728]	; 0x2d8
 800cce6:	4618      	mov	r0, r3
 800cce8:	f7fe fe84 	bl	800b9f4 <USBD_LL_Resume>
 800ccec:	bf00      	nop
 800ccee:	3708      	adds	r7, #8
 800ccf0:	46bd      	mov	sp, r7
 800ccf2:	bd80      	pop	{r7, pc}
 800ccf4:	e000ed00 	.word	0xe000ed00

0800ccf8 <USBD_LL_Init>:
 800ccf8:	b580      	push	{r7, lr}
 800ccfa:	b082      	sub	sp, #8
 800ccfc:	af00      	add	r7, sp, #0
 800ccfe:	6078      	str	r0, [r7, #4]
 800cd00:	4a2b      	ldr	r2, [pc, #172]	; (800cdb0 <USBD_LL_Init+0xb8>)
 800cd02:	687b      	ldr	r3, [r7, #4]
 800cd04:	f8c2 32d8 	str.w	r3, [r2, #728]	; 0x2d8
 800cd08:	687b      	ldr	r3, [r7, #4]
 800cd0a:	4a29      	ldr	r2, [pc, #164]	; (800cdb0 <USBD_LL_Init+0xb8>)
 800cd0c:	f8c3 22c4 	str.w	r2, [r3, #708]	; 0x2c4
 800cd10:	4b27      	ldr	r3, [pc, #156]	; (800cdb0 <USBD_LL_Init+0xb8>)
 800cd12:	4a28      	ldr	r2, [pc, #160]	; (800cdb4 <USBD_LL_Init+0xbc>)
 800cd14:	601a      	str	r2, [r3, #0]
 800cd16:	4b26      	ldr	r3, [pc, #152]	; (800cdb0 <USBD_LL_Init+0xb8>)
 800cd18:	2208      	movs	r2, #8
 800cd1a:	711a      	strb	r2, [r3, #4]
 800cd1c:	4b24      	ldr	r3, [pc, #144]	; (800cdb0 <USBD_LL_Init+0xb8>)
 800cd1e:	2202      	movs	r2, #2
 800cd20:	715a      	strb	r2, [r3, #5]
 800cd22:	4b23      	ldr	r3, [pc, #140]	; (800cdb0 <USBD_LL_Init+0xb8>)
 800cd24:	2202      	movs	r2, #2
 800cd26:	71da      	strb	r2, [r3, #7]
 800cd28:	4b21      	ldr	r3, [pc, #132]	; (800cdb0 <USBD_LL_Init+0xb8>)
 800cd2a:	2200      	movs	r2, #0
 800cd2c:	721a      	strb	r2, [r3, #8]
 800cd2e:	4b20      	ldr	r3, [pc, #128]	; (800cdb0 <USBD_LL_Init+0xb8>)
 800cd30:	2200      	movs	r2, #0
 800cd32:	725a      	strb	r2, [r3, #9]
 800cd34:	4b1e      	ldr	r3, [pc, #120]	; (800cdb0 <USBD_LL_Init+0xb8>)
 800cd36:	2200      	movs	r2, #0
 800cd38:	729a      	strb	r2, [r3, #10]
 800cd3a:	4b1d      	ldr	r3, [pc, #116]	; (800cdb0 <USBD_LL_Init+0xb8>)
 800cd3c:	2200      	movs	r2, #0
 800cd3e:	72da      	strb	r2, [r3, #11]
 800cd40:	481b      	ldr	r0, [pc, #108]	; (800cdb0 <USBD_LL_Init+0xb8>)
 800cd42:	f7f6 ff65 	bl	8003c10 <HAL_PCD_Init>
 800cd46:	4603      	mov	r3, r0
 800cd48:	2b00      	cmp	r3, #0
 800cd4a:	d001      	beq.n	800cd50 <USBD_LL_Init+0x58>
 800cd4c:	f7f5 f8a8 	bl	8001ea0 <Error_Handler>
 800cd50:	687b      	ldr	r3, [r7, #4]
 800cd52:	f8d3 02c4 	ldr.w	r0, [r3, #708]	; 0x2c4
 800cd56:	2318      	movs	r3, #24
 800cd58:	2200      	movs	r2, #0
 800cd5a:	2100      	movs	r1, #0
 800cd5c:	f7f8 fc1f 	bl	800559e <HAL_PCDEx_PMAConfig>
 800cd60:	687b      	ldr	r3, [r7, #4]
 800cd62:	f8d3 02c4 	ldr.w	r0, [r3, #708]	; 0x2c4
 800cd66:	2358      	movs	r3, #88	; 0x58
 800cd68:	2200      	movs	r2, #0
 800cd6a:	2180      	movs	r1, #128	; 0x80
 800cd6c:	f7f8 fc17 	bl	800559e <HAL_PCDEx_PMAConfig>
 800cd70:	687b      	ldr	r3, [r7, #4]
 800cd72:	f8d3 02c4 	ldr.w	r0, [r3, #708]	; 0x2c4
 800cd76:	23c0      	movs	r3, #192	; 0xc0
 800cd78:	2200      	movs	r2, #0
 800cd7a:	2181      	movs	r1, #129	; 0x81
 800cd7c:	f7f8 fc0f 	bl	800559e <HAL_PCDEx_PMAConfig>
 800cd80:	687b      	ldr	r3, [r7, #4]
 800cd82:	f8d3 02c4 	ldr.w	r0, [r3, #708]	; 0x2c4
 800cd86:	f44f 7388 	mov.w	r3, #272	; 0x110
 800cd8a:	2200      	movs	r2, #0
 800cd8c:	2101      	movs	r1, #1
 800cd8e:	f7f8 fc06 	bl	800559e <HAL_PCDEx_PMAConfig>
 800cd92:	687b      	ldr	r3, [r7, #4]
 800cd94:	f8d3 02c4 	ldr.w	r0, [r3, #708]	; 0x2c4
 800cd98:	f44f 7380 	mov.w	r3, #256	; 0x100
 800cd9c:	2200      	movs	r2, #0
 800cd9e:	2182      	movs	r1, #130	; 0x82
 800cda0:	f7f8 fbfd 	bl	800559e <HAL_PCDEx_PMAConfig>
 800cda4:	2300      	movs	r3, #0
 800cda6:	4618      	mov	r0, r3
 800cda8:	3708      	adds	r7, #8
 800cdaa:	46bd      	mov	sp, r7
 800cdac:	bd80      	pop	{r7, pc}
 800cdae:	bf00      	nop
 800cdb0:	200011d0 	.word	0x200011d0
 800cdb4:	40005c00 	.word	0x40005c00

0800cdb8 <USBD_LL_Start>:
 800cdb8:	b580      	push	{r7, lr}
 800cdba:	b084      	sub	sp, #16
 800cdbc:	af00      	add	r7, sp, #0
 800cdbe:	6078      	str	r0, [r7, #4]
 800cdc0:	2300      	movs	r3, #0
 800cdc2:	73fb      	strb	r3, [r7, #15]
 800cdc4:	2300      	movs	r3, #0
 800cdc6:	73bb      	strb	r3, [r7, #14]
 800cdc8:	687b      	ldr	r3, [r7, #4]
 800cdca:	f8d3 32c4 	ldr.w	r3, [r3, #708]	; 0x2c4
 800cdce:	4618      	mov	r0, r3
 800cdd0:	f7f6 ffec 	bl	8003dac <HAL_PCD_Start>
 800cdd4:	4603      	mov	r3, r0
 800cdd6:	73fb      	strb	r3, [r7, #15]
 800cdd8:	7bfb      	ldrb	r3, [r7, #15]
 800cdda:	4618      	mov	r0, r3
 800cddc:	f000 f97e 	bl	800d0dc <USBD_Get_USB_Status>
 800cde0:	4603      	mov	r3, r0
 800cde2:	73bb      	strb	r3, [r7, #14]
 800cde4:	7bbb      	ldrb	r3, [r7, #14]
 800cde6:	4618      	mov	r0, r3
 800cde8:	3710      	adds	r7, #16
 800cdea:	46bd      	mov	sp, r7
 800cdec:	bd80      	pop	{r7, pc}

0800cdee <USBD_LL_OpenEP>:
 800cdee:	b580      	push	{r7, lr}
 800cdf0:	b084      	sub	sp, #16
 800cdf2:	af00      	add	r7, sp, #0
 800cdf4:	6078      	str	r0, [r7, #4]
 800cdf6:	4608      	mov	r0, r1
 800cdf8:	4611      	mov	r1, r2
 800cdfa:	461a      	mov	r2, r3
 800cdfc:	4603      	mov	r3, r0
 800cdfe:	70fb      	strb	r3, [r7, #3]
 800ce00:	460b      	mov	r3, r1
 800ce02:	70bb      	strb	r3, [r7, #2]
 800ce04:	4613      	mov	r3, r2
 800ce06:	803b      	strh	r3, [r7, #0]
 800ce08:	2300      	movs	r3, #0
 800ce0a:	73fb      	strb	r3, [r7, #15]
 800ce0c:	2300      	movs	r3, #0
 800ce0e:	73bb      	strb	r3, [r7, #14]
 800ce10:	687b      	ldr	r3, [r7, #4]
 800ce12:	f8d3 02c4 	ldr.w	r0, [r3, #708]	; 0x2c4
 800ce16:	78bb      	ldrb	r3, [r7, #2]
 800ce18:	883a      	ldrh	r2, [r7, #0]
 800ce1a:	78f9      	ldrb	r1, [r7, #3]
 800ce1c:	f7f7 f933 	bl	8004086 <HAL_PCD_EP_Open>
 800ce20:	4603      	mov	r3, r0
 800ce22:	73fb      	strb	r3, [r7, #15]
 800ce24:	7bfb      	ldrb	r3, [r7, #15]
 800ce26:	4618      	mov	r0, r3
 800ce28:	f000 f958 	bl	800d0dc <USBD_Get_USB_Status>
 800ce2c:	4603      	mov	r3, r0
 800ce2e:	73bb      	strb	r3, [r7, #14]
 800ce30:	7bbb      	ldrb	r3, [r7, #14]
 800ce32:	4618      	mov	r0, r3
 800ce34:	3710      	adds	r7, #16
 800ce36:	46bd      	mov	sp, r7
 800ce38:	bd80      	pop	{r7, pc}

0800ce3a <USBD_LL_CloseEP>:
 800ce3a:	b580      	push	{r7, lr}
 800ce3c:	b084      	sub	sp, #16
 800ce3e:	af00      	add	r7, sp, #0
 800ce40:	6078      	str	r0, [r7, #4]
 800ce42:	460b      	mov	r3, r1
 800ce44:	70fb      	strb	r3, [r7, #3]
 800ce46:	2300      	movs	r3, #0
 800ce48:	73fb      	strb	r3, [r7, #15]
 800ce4a:	2300      	movs	r3, #0
 800ce4c:	73bb      	strb	r3, [r7, #14]
 800ce4e:	687b      	ldr	r3, [r7, #4]
 800ce50:	f8d3 32c4 	ldr.w	r3, [r3, #708]	; 0x2c4
 800ce54:	78fa      	ldrb	r2, [r7, #3]
 800ce56:	4611      	mov	r1, r2
 800ce58:	4618      	mov	r0, r3
 800ce5a:	f7f7 f971 	bl	8004140 <HAL_PCD_EP_Close>
 800ce5e:	4603      	mov	r3, r0
 800ce60:	73fb      	strb	r3, [r7, #15]
 800ce62:	7bfb      	ldrb	r3, [r7, #15]
 800ce64:	4618      	mov	r0, r3
 800ce66:	f000 f939 	bl	800d0dc <USBD_Get_USB_Status>
 800ce6a:	4603      	mov	r3, r0
 800ce6c:	73bb      	strb	r3, [r7, #14]
 800ce6e:	7bbb      	ldrb	r3, [r7, #14]
 800ce70:	4618      	mov	r0, r3
 800ce72:	3710      	adds	r7, #16
 800ce74:	46bd      	mov	sp, r7
 800ce76:	bd80      	pop	{r7, pc}

0800ce78 <USBD_LL_StallEP>:
 800ce78:	b580      	push	{r7, lr}
 800ce7a:	b084      	sub	sp, #16
 800ce7c:	af00      	add	r7, sp, #0
 800ce7e:	6078      	str	r0, [r7, #4]
 800ce80:	460b      	mov	r3, r1
 800ce82:	70fb      	strb	r3, [r7, #3]
 800ce84:	2300      	movs	r3, #0
 800ce86:	73fb      	strb	r3, [r7, #15]
 800ce88:	2300      	movs	r3, #0
 800ce8a:	73bb      	strb	r3, [r7, #14]
 800ce8c:	687b      	ldr	r3, [r7, #4]
 800ce8e:	f8d3 32c4 	ldr.w	r3, [r3, #708]	; 0x2c4
 800ce92:	78fa      	ldrb	r2, [r7, #3]
 800ce94:	4611      	mov	r1, r2
 800ce96:	4618      	mov	r0, r3
 800ce98:	f7f7 fa1a 	bl	80042d0 <HAL_PCD_EP_SetStall>
 800ce9c:	4603      	mov	r3, r0
 800ce9e:	73fb      	strb	r3, [r7, #15]
 800cea0:	7bfb      	ldrb	r3, [r7, #15]
 800cea2:	4618      	mov	r0, r3
 800cea4:	f000 f91a 	bl	800d0dc <USBD_Get_USB_Status>
 800cea8:	4603      	mov	r3, r0
 800ceaa:	73bb      	strb	r3, [r7, #14]
 800ceac:	7bbb      	ldrb	r3, [r7, #14]
 800ceae:	4618      	mov	r0, r3
 800ceb0:	3710      	adds	r7, #16
 800ceb2:	46bd      	mov	sp, r7
 800ceb4:	bd80      	pop	{r7, pc}

0800ceb6 <USBD_LL_ClearStallEP>:
 800ceb6:	b580      	push	{r7, lr}
 800ceb8:	b084      	sub	sp, #16
 800ceba:	af00      	add	r7, sp, #0
 800cebc:	6078      	str	r0, [r7, #4]
 800cebe:	460b      	mov	r3, r1
 800cec0:	70fb      	strb	r3, [r7, #3]
 800cec2:	2300      	movs	r3, #0
 800cec4:	73fb      	strb	r3, [r7, #15]
 800cec6:	2300      	movs	r3, #0
 800cec8:	73bb      	strb	r3, [r7, #14]
 800ceca:	687b      	ldr	r3, [r7, #4]
 800cecc:	f8d3 32c4 	ldr.w	r3, [r3, #708]	; 0x2c4
 800ced0:	78fa      	ldrb	r2, [r7, #3]
 800ced2:	4611      	mov	r1, r2
 800ced4:	4618      	mov	r0, r3
 800ced6:	f7f7 fa4d 	bl	8004374 <HAL_PCD_EP_ClrStall>
 800ceda:	4603      	mov	r3, r0
 800cedc:	73fb      	strb	r3, [r7, #15]
 800cede:	7bfb      	ldrb	r3, [r7, #15]
 800cee0:	4618      	mov	r0, r3
 800cee2:	f000 f8fb 	bl	800d0dc <USBD_Get_USB_Status>
 800cee6:	4603      	mov	r3, r0
 800cee8:	73bb      	strb	r3, [r7, #14]
 800ceea:	7bbb      	ldrb	r3, [r7, #14]
 800ceec:	4618      	mov	r0, r3
 800ceee:	3710      	adds	r7, #16
 800cef0:	46bd      	mov	sp, r7
 800cef2:	bd80      	pop	{r7, pc}

0800cef4 <USBD_LL_IsStallEP>:
 800cef4:	b480      	push	{r7}
 800cef6:	b085      	sub	sp, #20
 800cef8:	af00      	add	r7, sp, #0
 800cefa:	6078      	str	r0, [r7, #4]
 800cefc:	460b      	mov	r3, r1
 800cefe:	70fb      	strb	r3, [r7, #3]
 800cf00:	687b      	ldr	r3, [r7, #4]
 800cf02:	f8d3 32c4 	ldr.w	r3, [r3, #708]	; 0x2c4
 800cf06:	60fb      	str	r3, [r7, #12]
 800cf08:	f997 3003 	ldrsb.w	r3, [r7, #3]
 800cf0c:	2b00      	cmp	r3, #0
 800cf0e:	da0b      	bge.n	800cf28 <USBD_LL_IsStallEP+0x34>
 800cf10:	78fb      	ldrb	r3, [r7, #3]
 800cf12:	f003 027f 	and.w	r2, r3, #127	; 0x7f
 800cf16:	68f9      	ldr	r1, [r7, #12]
 800cf18:	4613      	mov	r3, r2
 800cf1a:	009b      	lsls	r3, r3, #2
 800cf1c:	4413      	add	r3, r2
 800cf1e:	00db      	lsls	r3, r3, #3
 800cf20:	440b      	add	r3, r1
 800cf22:	3312      	adds	r3, #18
 800cf24:	781b      	ldrb	r3, [r3, #0]
 800cf26:	e00b      	b.n	800cf40 <USBD_LL_IsStallEP+0x4c>
 800cf28:	78fb      	ldrb	r3, [r7, #3]
 800cf2a:	f003 027f 	and.w	r2, r3, #127	; 0x7f
 800cf2e:	68f9      	ldr	r1, [r7, #12]
 800cf30:	4613      	mov	r3, r2
 800cf32:	009b      	lsls	r3, r3, #2
 800cf34:	4413      	add	r3, r2
 800cf36:	00db      	lsls	r3, r3, #3
 800cf38:	440b      	add	r3, r1
 800cf3a:	f503 73a9 	add.w	r3, r3, #338	; 0x152
 800cf3e:	781b      	ldrb	r3, [r3, #0]
 800cf40:	4618      	mov	r0, r3
 800cf42:	3714      	adds	r7, #20
 800cf44:	46bd      	mov	sp, r7
 800cf46:	f85d 7b04 	ldr.w	r7, [sp], #4
 800cf4a:	4770      	bx	lr

0800cf4c <USBD_LL_SetUSBAddress>:
 800cf4c:	b580      	push	{r7, lr}
 800cf4e:	b084      	sub	sp, #16
 800cf50:	af00      	add	r7, sp, #0
 800cf52:	6078      	str	r0, [r7, #4]
 800cf54:	460b      	mov	r3, r1
 800cf56:	70fb      	strb	r3, [r7, #3]
 800cf58:	2300      	movs	r3, #0
 800cf5a:	73fb      	strb	r3, [r7, #15]
 800cf5c:	2300      	movs	r3, #0
 800cf5e:	73bb      	strb	r3, [r7, #14]
 800cf60:	687b      	ldr	r3, [r7, #4]
 800cf62:	f8d3 32c4 	ldr.w	r3, [r3, #708]	; 0x2c4
 800cf66:	78fa      	ldrb	r2, [r7, #3]
 800cf68:	4611      	mov	r1, r2
 800cf6a:	4618      	mov	r0, r3
 800cf6c:	f7f7 f867 	bl	800403e <HAL_PCD_SetAddress>
 800cf70:	4603      	mov	r3, r0
 800cf72:	73fb      	strb	r3, [r7, #15]
 800cf74:	7bfb      	ldrb	r3, [r7, #15]
 800cf76:	4618      	mov	r0, r3
 800cf78:	f000 f8b0 	bl	800d0dc <USBD_Get_USB_Status>
 800cf7c:	4603      	mov	r3, r0
 800cf7e:	73bb      	strb	r3, [r7, #14]
 800cf80:	7bbb      	ldrb	r3, [r7, #14]
 800cf82:	4618      	mov	r0, r3
 800cf84:	3710      	adds	r7, #16
 800cf86:	46bd      	mov	sp, r7
 800cf88:	bd80      	pop	{r7, pc}

0800cf8a <USBD_LL_Transmit>:
 800cf8a:	b580      	push	{r7, lr}
 800cf8c:	b086      	sub	sp, #24
 800cf8e:	af00      	add	r7, sp, #0
 800cf90:	60f8      	str	r0, [r7, #12]
 800cf92:	607a      	str	r2, [r7, #4]
 800cf94:	603b      	str	r3, [r7, #0]
 800cf96:	460b      	mov	r3, r1
 800cf98:	72fb      	strb	r3, [r7, #11]
 800cf9a:	2300      	movs	r3, #0
 800cf9c:	75fb      	strb	r3, [r7, #23]
 800cf9e:	2300      	movs	r3, #0
 800cfa0:	75bb      	strb	r3, [r7, #22]
 800cfa2:	68fb      	ldr	r3, [r7, #12]
 800cfa4:	f8d3 02c4 	ldr.w	r0, [r3, #708]	; 0x2c4
 800cfa8:	7af9      	ldrb	r1, [r7, #11]
 800cfaa:	683b      	ldr	r3, [r7, #0]
 800cfac:	687a      	ldr	r2, [r7, #4]
 800cfae:	f7f7 f958 	bl	8004262 <HAL_PCD_EP_Transmit>
 800cfb2:	4603      	mov	r3, r0
 800cfb4:	75fb      	strb	r3, [r7, #23]
 800cfb6:	7dfb      	ldrb	r3, [r7, #23]
 800cfb8:	4618      	mov	r0, r3
 800cfba:	f000 f88f 	bl	800d0dc <USBD_Get_USB_Status>
 800cfbe:	4603      	mov	r3, r0
 800cfc0:	75bb      	strb	r3, [r7, #22]
 800cfc2:	7dbb      	ldrb	r3, [r7, #22]
 800cfc4:	4618      	mov	r0, r3
 800cfc6:	3718      	adds	r7, #24
 800cfc8:	46bd      	mov	sp, r7
 800cfca:	bd80      	pop	{r7, pc}

0800cfcc <USBD_LL_PrepareReceive>:
 800cfcc:	b580      	push	{r7, lr}
 800cfce:	b086      	sub	sp, #24
 800cfd0:	af00      	add	r7, sp, #0
 800cfd2:	60f8      	str	r0, [r7, #12]
 800cfd4:	607a      	str	r2, [r7, #4]
 800cfd6:	603b      	str	r3, [r7, #0]
 800cfd8:	460b      	mov	r3, r1
 800cfda:	72fb      	strb	r3, [r7, #11]
 800cfdc:	2300      	movs	r3, #0
 800cfde:	75fb      	strb	r3, [r7, #23]
 800cfe0:	2300      	movs	r3, #0
 800cfe2:	75bb      	strb	r3, [r7, #22]
 800cfe4:	68fb      	ldr	r3, [r7, #12]
 800cfe6:	f8d3 02c4 	ldr.w	r0, [r3, #708]	; 0x2c4
 800cfea:	7af9      	ldrb	r1, [r7, #11]
 800cfec:	683b      	ldr	r3, [r7, #0]
 800cfee:	687a      	ldr	r2, [r7, #4]
 800cff0:	f7f7 f8ee 	bl	80041d0 <HAL_PCD_EP_Receive>
 800cff4:	4603      	mov	r3, r0
 800cff6:	75fb      	strb	r3, [r7, #23]
 800cff8:	7dfb      	ldrb	r3, [r7, #23]
 800cffa:	4618      	mov	r0, r3
 800cffc:	f000 f86e 	bl	800d0dc <USBD_Get_USB_Status>
 800d000:	4603      	mov	r3, r0
 800d002:	75bb      	strb	r3, [r7, #22]
 800d004:	7dbb      	ldrb	r3, [r7, #22]
 800d006:	4618      	mov	r0, r3
 800d008:	3718      	adds	r7, #24
 800d00a:	46bd      	mov	sp, r7
 800d00c:	bd80      	pop	{r7, pc}

0800d00e <USBD_LL_GetRxDataSize>:
 800d00e:	b580      	push	{r7, lr}
 800d010:	b082      	sub	sp, #8
 800d012:	af00      	add	r7, sp, #0
 800d014:	6078      	str	r0, [r7, #4]
 800d016:	460b      	mov	r3, r1
 800d018:	70fb      	strb	r3, [r7, #3]
 800d01a:	687b      	ldr	r3, [r7, #4]
 800d01c:	f8d3 32c4 	ldr.w	r3, [r3, #708]	; 0x2c4
 800d020:	78fa      	ldrb	r2, [r7, #3]
 800d022:	4611      	mov	r1, r2
 800d024:	4618      	mov	r0, r3
 800d026:	f7f7 f904 	bl	8004232 <HAL_PCD_EP_GetRxCount>
 800d02a:	4603      	mov	r3, r0
 800d02c:	4618      	mov	r0, r3
 800d02e:	3708      	adds	r7, #8
 800d030:	46bd      	mov	sp, r7
 800d032:	bd80      	pop	{r7, pc}

0800d034 <HAL_PCDEx_LPM_Callback>:
 800d034:	b580      	push	{r7, lr}
 800d036:	b082      	sub	sp, #8
 800d038:	af00      	add	r7, sp, #0
 800d03a:	6078      	str	r0, [r7, #4]
 800d03c:	460b      	mov	r3, r1
 800d03e:	70fb      	strb	r3, [r7, #3]
 800d040:	78fb      	ldrb	r3, [r7, #3]
 800d042:	2b00      	cmp	r3, #0
 800d044:	d002      	beq.n	800d04c <HAL_PCDEx_LPM_Callback+0x18>
 800d046:	2b01      	cmp	r3, #1
 800d048:	d013      	beq.n	800d072 <HAL_PCDEx_LPM_Callback+0x3e>
 800d04a:	e023      	b.n	800d094 <HAL_PCDEx_LPM_Callback+0x60>
 800d04c:	687b      	ldr	r3, [r7, #4]
 800d04e:	7a5b      	ldrb	r3, [r3, #9]
 800d050:	2b00      	cmp	r3, #0
 800d052:	d007      	beq.n	800d064 <HAL_PCDEx_LPM_Callback+0x30>
 800d054:	f000 f83c 	bl	800d0d0 <SystemClockConfig_Resume>
 800d058:	4b10      	ldr	r3, [pc, #64]	; (800d09c <HAL_PCDEx_LPM_Callback+0x68>)
 800d05a:	691b      	ldr	r3, [r3, #16]
 800d05c:	4a0f      	ldr	r2, [pc, #60]	; (800d09c <HAL_PCDEx_LPM_Callback+0x68>)
 800d05e:	f023 0306 	bic.w	r3, r3, #6
 800d062:	6113      	str	r3, [r2, #16]
 800d064:	687b      	ldr	r3, [r7, #4]
 800d066:	f8d3 32d8 	ldr.w	r3, [r3, #728]	; 0x2d8
 800d06a:	4618      	mov	r0, r3
 800d06c:	f7fe fcc2 	bl	800b9f4 <USBD_LL_Resume>
 800d070:	e010      	b.n	800d094 <HAL_PCDEx_LPM_Callback+0x60>
 800d072:	687b      	ldr	r3, [r7, #4]
 800d074:	f8d3 32d8 	ldr.w	r3, [r3, #728]	; 0x2d8
 800d078:	4618      	mov	r0, r3
 800d07a:	f7fe fca5 	bl	800b9c8 <USBD_LL_Suspend>
 800d07e:	687b      	ldr	r3, [r7, #4]
 800d080:	7a5b      	ldrb	r3, [r3, #9]
 800d082:	2b00      	cmp	r3, #0
 800d084:	d005      	beq.n	800d092 <HAL_PCDEx_LPM_Callback+0x5e>
 800d086:	4b05      	ldr	r3, [pc, #20]	; (800d09c <HAL_PCDEx_LPM_Callback+0x68>)
 800d088:	691b      	ldr	r3, [r3, #16]
 800d08a:	4a04      	ldr	r2, [pc, #16]	; (800d09c <HAL_PCDEx_LPM_Callback+0x68>)
 800d08c:	f043 0306 	orr.w	r3, r3, #6
 800d090:	6113      	str	r3, [r2, #16]
 800d092:	bf00      	nop
 800d094:	bf00      	nop
 800d096:	3708      	adds	r7, #8
 800d098:	46bd      	mov	sp, r7
 800d09a:	bd80      	pop	{r7, pc}
 800d09c:	e000ed00 	.word	0xe000ed00

0800d0a0 <USBD_static_malloc>:
 800d0a0:	b480      	push	{r7}
 800d0a2:	b083      	sub	sp, #12
 800d0a4:	af00      	add	r7, sp, #0
 800d0a6:	6078      	str	r0, [r7, #4]
 800d0a8:	4b03      	ldr	r3, [pc, #12]	; (800d0b8 <USBD_static_malloc+0x18>)
 800d0aa:	4618      	mov	r0, r3
 800d0ac:	370c      	adds	r7, #12
 800d0ae:	46bd      	mov	sp, r7
 800d0b0:	f85d 7b04 	ldr.w	r7, [sp], #4
 800d0b4:	4770      	bx	lr
 800d0b6:	bf00      	nop
 800d0b8:	200014ac 	.word	0x200014ac

0800d0bc <USBD_static_free>:
 800d0bc:	b480      	push	{r7}
 800d0be:	b083      	sub	sp, #12
 800d0c0:	af00      	add	r7, sp, #0
 800d0c2:	6078      	str	r0, [r7, #4]
 800d0c4:	bf00      	nop
 800d0c6:	370c      	adds	r7, #12
 800d0c8:	46bd      	mov	sp, r7
 800d0ca:	f85d 7b04 	ldr.w	r7, [sp], #4
 800d0ce:	4770      	bx	lr

0800d0d0 <SystemClockConfig_Resume>:
 800d0d0:	b580      	push	{r7, lr}
 800d0d2:	af00      	add	r7, sp, #0
 800d0d4:	f7f4 fd46 	bl	8001b64 <SystemClock_Config>
 800d0d8:	bf00      	nop
 800d0da:	bd80      	pop	{r7, pc}

0800d0dc <USBD_Get_USB_Status>:
 800d0dc:	b480      	push	{r7}
 800d0de:	b085      	sub	sp, #20
 800d0e0:	af00      	add	r7, sp, #0
 800d0e2:	4603      	mov	r3, r0
 800d0e4:	71fb      	strb	r3, [r7, #7]
 800d0e6:	2300      	movs	r3, #0
 800d0e8:	73fb      	strb	r3, [r7, #15]
 800d0ea:	79fb      	ldrb	r3, [r7, #7]
 800d0ec:	2b03      	cmp	r3, #3
 800d0ee:	d817      	bhi.n	800d120 <USBD_Get_USB_Status+0x44>
 800d0f0:	a201      	add	r2, pc, #4	; (adr r2, 800d0f8 <USBD_Get_USB_Status+0x1c>)
 800d0f2:	f852 f023 	ldr.w	pc, [r2, r3, lsl #2]
 800d0f6:	bf00      	nop
 800d0f8:	0800d109 	.word	0x0800d109
 800d0fc:	0800d10f 	.word	0x0800d10f
 800d100:	0800d115 	.word	0x0800d115
 800d104:	0800d11b 	.word	0x0800d11b
 800d108:	2300      	movs	r3, #0
 800d10a:	73fb      	strb	r3, [r7, #15]
 800d10c:	e00b      	b.n	800d126 <USBD_Get_USB_Status+0x4a>
 800d10e:	2303      	movs	r3, #3
 800d110:	73fb      	strb	r3, [r7, #15]
 800d112:	e008      	b.n	800d126 <USBD_Get_USB_Status+0x4a>
 800d114:	2301      	movs	r3, #1
 800d116:	73fb      	strb	r3, [r7, #15]
 800d118:	e005      	b.n	800d126 <USBD_Get_USB_Status+0x4a>
 800d11a:	2303      	movs	r3, #3
 800d11c:	73fb      	strb	r3, [r7, #15]
 800d11e:	e002      	b.n	800d126 <USBD_Get_USB_Status+0x4a>
 800d120:	2303      	movs	r3, #3
 800d122:	73fb      	strb	r3, [r7, #15]
 800d124:	bf00      	nop
 800d126:	7bfb      	ldrb	r3, [r7, #15]
 800d128:	4618      	mov	r0, r3
 800d12a:	3714      	adds	r7, #20
 800d12c:	46bd      	mov	sp, r7
 800d12e:	f85d 7b04 	ldr.w	r7, [sp], #4
 800d132:	4770      	bx	lr

0800d134 <__libc_init_array>:
 800d134:	b570      	push	{r4, r5, r6, lr}
 800d136:	4d0d      	ldr	r5, [pc, #52]	; (800d16c <__libc_init_array+0x38>)
 800d138:	4c0d      	ldr	r4, [pc, #52]	; (800d170 <__libc_init_array+0x3c>)
 800d13a:	1b64      	subs	r4, r4, r5
 800d13c:	10a4      	asrs	r4, r4, #2
 800d13e:	2600      	movs	r6, #0
 800d140:	42a6      	cmp	r6, r4
 800d142:	d109      	bne.n	800d158 <__libc_init_array+0x24>
 800d144:	4d0b      	ldr	r5, [pc, #44]	; (800d174 <__libc_init_array+0x40>)
 800d146:	4c0c      	ldr	r4, [pc, #48]	; (800d178 <__libc_init_array+0x44>)
 800d148:	f000 f82e 	bl	800d1a8 <_init>
 800d14c:	1b64      	subs	r4, r4, r5
 800d14e:	10a4      	asrs	r4, r4, #2
 800d150:	2600      	movs	r6, #0
 800d152:	42a6      	cmp	r6, r4
 800d154:	d105      	bne.n	800d162 <__libc_init_array+0x2e>
 800d156:	bd70      	pop	{r4, r5, r6, pc}
 800d158:	f855 3b04 	ldr.w	r3, [r5], #4
 800d15c:	4798      	blx	r3
 800d15e:	3601      	adds	r6, #1
 800d160:	e7ee      	b.n	800d140 <__libc_init_array+0xc>
 800d162:	f855 3b04 	ldr.w	r3, [r5], #4
 800d166:	4798      	blx	r3
 800d168:	3601      	adds	r6, #1
 800d16a:	e7f2      	b.n	800d152 <__libc_init_array+0x1e>
 800d16c:	0800d250 	.word	0x0800d250
 800d170:	0800d250 	.word	0x0800d250
 800d174:	0800d250 	.word	0x0800d250
 800d178:	0800d254 	.word	0x0800d254

0800d17c <memcpy>:
 800d17c:	440a      	add	r2, r1
 800d17e:	4291      	cmp	r1, r2
 800d180:	f100 33ff 	add.w	r3, r0, #4294967295
 800d184:	d100      	bne.n	800d188 <memcpy+0xc>
 800d186:	4770      	bx	lr
 800d188:	b510      	push	{r4, lr}
 800d18a:	f811 4b01 	ldrb.w	r4, [r1], #1
 800d18e:	f803 4f01 	strb.w	r4, [r3, #1]!
 800d192:	4291      	cmp	r1, r2
 800d194:	d1f9      	bne.n	800d18a <memcpy+0xe>
 800d196:	bd10      	pop	{r4, pc}

0800d198 <memset>:
 800d198:	4402      	add	r2, r0
 800d19a:	4603      	mov	r3, r0
 800d19c:	4293      	cmp	r3, r2
 800d19e:	d100      	bne.n	800d1a2 <memset+0xa>
 800d1a0:	4770      	bx	lr
 800d1a2:	f803 1b01 	strb.w	r1, [r3], #1
 800d1a6:	e7f9      	b.n	800d19c <memset+0x4>

0800d1a8 <_init>:
 800d1a8:	b5f8      	push	{r3, r4, r5, r6, r7, lr}
 800d1aa:	bf00      	nop
 800d1ac:	bcf8      	pop	{r3, r4, r5, r6, r7}
 800d1ae:	bc08      	pop	{r3}
 800d1b0:	469e      	mov	lr, r3
 800d1b2:	4770      	bx	lr

0800d1b4 <_fini>:
 800d1b4:	b5f8      	push	{r3, r4, r5, r6, r7, lr}
 800d1b6:	bf00      	nop
 800d1b8:	bcf8      	pop	{r3, r4, r5, r6, r7}
 800d1ba:	bc08      	pop	{r3}
 800d1bc:	469e      	mov	lr, r3
 800d1be:	4770      	bx	lr
